1     0000              MODULE game_player_c
2     0000              LINE 0, "game_player.c"
0     0000              
1     0000              ;--------------------------------------------------------
2     0000              ; File Created by SDCC : free open source ANSI-C Compiler
3     0000              ; Version 3.6.9 #9958 (Mac OS X i386)
4     0000              ;--------------------------------------------------------
5     0000              ; Processed by Z88DK
6     0000              ;--------------------------------------------------------
7     0000              
8     0000              	EXTERN __divschar
9     0000              	EXTERN __divschar_callee
10    0000              	EXTERN __divsint
11    0000              	EXTERN __divsint_callee
12    0000              	EXTERN __divslong
13    0000              	EXTERN __divslong_callee
14    0000              	EXTERN __divslonglong
15    0000              	EXTERN __divslonglong_callee
16    0000              	EXTERN __divsuchar
17    0000              	EXTERN __divsuchar_callee
18    0000              	EXTERN __divuchar
19    0000              	EXTERN __divuchar_callee
20    0000              	EXTERN __divuint
21    0000              	EXTERN __divuint_callee
22    0000              	EXTERN __divulong
23    0000              	EXTERN __divulong_callee
24    0000              	EXTERN __divulonglong
25    0000              	EXTERN __divulonglong_callee
26    0000              	EXTERN __divuschar
27    0000              	EXTERN __divuschar_callee
28    0000              	EXTERN __modschar
29    0000              	EXTERN __modschar_callee
30    0000              	EXTERN __modsint
31    0000              	EXTERN __modsint_callee
32    0000              	EXTERN __modslong
33    0000              	EXTERN __modslong_callee
34    0000              	EXTERN __modslonglong
35    0000              	EXTERN __modslonglong_callee
36    0000              	EXTERN __modsuchar
37    0000              	EXTERN __modsuchar_callee
38    0000              	EXTERN __moduchar
39    0000              	EXTERN __moduchar_callee
40    0000              	EXTERN __moduint
41    0000              	EXTERN __moduint_callee
42    0000              	EXTERN __modulong
43    0000              	EXTERN __modulong_callee
44    0000              	EXTERN __modulonglong
45    0000              	EXTERN __modulonglong_callee
46    0000              	EXTERN __moduschar
47    0000              	EXTERN __moduschar_callee
48    0000              	EXTERN __mulint
49    0000              	EXTERN __mulint_callee
50    0000              	EXTERN __mullong
51    0000              	EXTERN __mullong_callee
52    0000              	EXTERN __mullonglong
53    0000              	EXTERN __mullonglong_callee
54    0000              	EXTERN __mulschar
55    0000              	EXTERN __mulschar_callee
56    0000              	EXTERN __mulsuchar
57    0000              	EXTERN __mulsuchar_callee
58    0000              	EXTERN __muluschar
59    0000              	EXTERN __muluschar_callee
60    0000              	EXTERN __rlslonglong
61    0000              	EXTERN __rlslonglong_callee
62    0000              	EXTERN __rlulonglong
63    0000              	EXTERN __rlulonglong_callee
64    0000              	EXTERN __rrslonglong
65    0000              	EXTERN __rrslonglong_callee
66    0000              	EXTERN __rrulonglong
67    0000              	EXTERN __rrulonglong_callee
68    0000              	EXTERN ___sdcc_call_hl
69    0000              	EXTERN ___sdcc_call_iy
70    0000              	EXTERN ___sdcc_enter_ix
71    0000              	EXTERN _banked_call
72    0000              	EXTERN _banked_ret
73    0000              	EXTERN ___fs2schar
74    0000              	EXTERN ___fs2schar_callee
75    0000              	EXTERN ___fs2sint
76    0000              	EXTERN ___fs2sint_callee
77    0000              	EXTERN ___fs2slong
78    0000              	EXTERN ___fs2slong_callee
79    0000              	EXTERN ___fs2slonglong
80    0000              	EXTERN ___fs2slonglong_callee
81    0000              	EXTERN ___fs2uchar
82    0000              	EXTERN ___fs2uchar_callee
83    0000              	EXTERN ___fs2uint
84    0000              	EXTERN ___fs2uint_callee
85    0000              	EXTERN ___fs2ulong
86    0000              	EXTERN ___fs2ulong_callee
87    0000              	EXTERN ___fs2ulonglong
88    0000              	EXTERN ___fs2ulonglong_callee
89    0000              	EXTERN ___fsadd
90    0000              	EXTERN ___fsadd_callee
91    0000              	EXTERN ___fsdiv
92    0000              	EXTERN ___fsdiv_callee
93    0000              	EXTERN ___fseq
94    0000              	EXTERN ___fseq_callee
95    0000              	EXTERN ___fsgt
96    0000              	EXTERN ___fsgt_callee
97    0000              	EXTERN ___fslt
98    0000              	EXTERN ___fslt_callee
99    0000              	EXTERN ___fsmul
100   0000              	EXTERN ___fsmul_callee
101   0000              	EXTERN ___fsneq
102   0000              	EXTERN ___fsneq_callee
103   0000              	EXTERN ___fssub
104   0000              	EXTERN ___fssub_callee
105   0000              	EXTERN ___schar2fs
106   0000              	EXTERN ___schar2fs_callee
107   0000              	EXTERN ___sint2fs
108   0000              	EXTERN ___sint2fs_callee
109   0000              	EXTERN ___slong2fs
110   0000              	EXTERN ___slong2fs_callee
111   0000              	EXTERN ___slonglong2fs
112   0000              	EXTERN ___slonglong2fs_callee
113   0000              	EXTERN ___uchar2fs
114   0000              	EXTERN ___uchar2fs_callee
115   0000              	EXTERN ___uint2fs
116   0000              	EXTERN ___uint2fs_callee
117   0000              	EXTERN ___ulong2fs
118   0000              	EXTERN ___ulong2fs_callee
119   0000              	EXTERN ___ulonglong2fs
120   0000              	EXTERN ___ulonglong2fs_callee
121   0000              	EXTERN ____sdcc_2_copy_src_mhl_dst_deix
122   0000              	EXTERN ____sdcc_2_copy_src_mhl_dst_bcix
123   0000              	EXTERN ____sdcc_4_copy_src_mhl_dst_deix
124   0000              	EXTERN ____sdcc_4_copy_src_mhl_dst_bcix
125   0000              	EXTERN ____sdcc_4_copy_src_mhl_dst_mbc
126   0000              	EXTERN ____sdcc_4_ldi_nosave_bc
127   0000              	EXTERN ____sdcc_4_ldi_save_bc
128   0000              	EXTERN ____sdcc_4_push_hlix
129   0000              	EXTERN ____sdcc_4_push_mhl
130   0000              	EXTERN ____sdcc_lib_setmem_hl
131   0000              	EXTERN ____sdcc_ll_add_de_bc_hl
132   0000              	EXTERN ____sdcc_ll_add_de_bc_hlix
133   0000              	EXTERN ____sdcc_ll_add_de_hlix_bc
134   0000              	EXTERN ____sdcc_ll_add_de_hlix_bcix
135   0000              	EXTERN ____sdcc_ll_add_deix_bc_hl
136   0000              	EXTERN ____sdcc_ll_add_deix_hlix
137   0000              	EXTERN ____sdcc_ll_add_hlix_bc_deix
138   0000              	EXTERN ____sdcc_ll_add_hlix_deix_bc
139   0000              	EXTERN ____sdcc_ll_add_hlix_deix_bcix
140   0000              	EXTERN ____sdcc_ll_asr_hlix_a
141   0000              	EXTERN ____sdcc_ll_asr_mbc_a
142   0000              	EXTERN ____sdcc_ll_copy_src_de_dst_hlix
143   0000              	EXTERN ____sdcc_ll_copy_src_de_dst_hlsp
144   0000              	EXTERN ____sdcc_ll_copy_src_deix_dst_hl
145   0000              	EXTERN ____sdcc_ll_copy_src_deix_dst_hlix
146   0000              	EXTERN ____sdcc_ll_copy_src_deixm_dst_hlsp
147   0000              	EXTERN ____sdcc_ll_copy_src_desp_dst_hlsp
148   0000              	EXTERN ____sdcc_ll_copy_src_hl_dst_de
149   0000              	EXTERN ____sdcc_ll_copy_src_hlsp_dst_de
150   0000              	EXTERN ____sdcc_ll_copy_src_hlsp_dst_deixm
151   0000              	EXTERN ____sdcc_ll_lsl_hlix_a
152   0000              	EXTERN ____sdcc_ll_lsl_mbc_a
153   0000              	EXTERN ____sdcc_ll_lsr_hlix_a
154   0000              	EXTERN ____sdcc_ll_lsr_mbc_a
155   0000              	EXTERN ____sdcc_ll_push_hlix
156   0000              	EXTERN ____sdcc_ll_push_mhl
157   0000              	EXTERN ____sdcc_ll_sub_de_bc_hl
158   0000              	EXTERN ____sdcc_ll_sub_de_bc_hlix
159   0000              	EXTERN ____sdcc_ll_sub_de_hlix_bc
160   0000              	EXTERN ____sdcc_ll_sub_de_hlix_bcix
161   0000              	EXTERN ____sdcc_ll_sub_deix_bc_hl
162   0000              	EXTERN ____sdcc_ll_sub_deix_hlix
163   0000              	EXTERN ____sdcc_ll_sub_hlix_bc_deix
164   0000              	EXTERN ____sdcc_ll_sub_hlix_deix_bc
165   0000              	EXTERN ____sdcc_ll_sub_hlix_deix_bcix
166   0000              	EXTERN ____sdcc_load_debc_deix
167   0000              	EXTERN ____sdcc_load_dehl_deix
168   0000              	EXTERN ____sdcc_load_debc_mhl
169   0000              	EXTERN ____sdcc_load_hlde_mhl
170   0000              	EXTERN ____sdcc_store_dehl_bcix
171   0000              	EXTERN ____sdcc_store_debc_hlix
172   0000              	EXTERN ____sdcc_store_debc_mhl
173   0000              	EXTERN ____sdcc_cpu_pop_ei
174   0000              	EXTERN ____sdcc_cpu_pop_ei_jp
175   0000              	EXTERN ____sdcc_cpu_push_di
176   0000              	EXTERN ____sdcc_outi
177   0000              	EXTERN ____sdcc_outi_128
178   0000              	EXTERN ____sdcc_outi_256
179   0000              	EXTERN ____sdcc_ldi
180   0000              	EXTERN ____sdcc_ldi_128
181   0000              	EXTERN ____sdcc_ldi_256
182   0000              	EXTERN ____sdcc_4_copy_srcd_hlix_dst_deix
183   0000              	EXTERN ____sdcc_4_and_src_mbc_mhl_dst_deix
184   0000              	EXTERN ____sdcc_4_or_src_mbc_mhl_dst_deix
185   0000              	EXTERN ____sdcc_4_xor_src_mbc_mhl_dst_deix
186   0000              	EXTERN ____sdcc_4_or_src_dehl_dst_bcix
187   0000              	EXTERN ____sdcc_4_xor_src_dehl_dst_bcix
188   0000              	EXTERN ____sdcc_4_and_src_dehl_dst_bcix
189   0000              	EXTERN ____sdcc_4_xor_src_mbc_mhl_dst_debc
190   0000              	EXTERN ____sdcc_4_or_src_mbc_mhl_dst_debc
191   0000              	EXTERN ____sdcc_4_and_src_mbc_mhl_dst_debc
192   0000              	EXTERN ____sdcc_4_cpl_src_mhl_dst_debc
193   0000              	EXTERN ____sdcc_4_xor_src_debc_mhl_dst_debc
194   0000              	EXTERN ____sdcc_4_or_src_debc_mhl_dst_debc
195   0000              	EXTERN ____sdcc_4_and_src_debc_mhl_dst_debc
196   0000              	EXTERN ____sdcc_4_and_src_debc_hlix_dst_debc
197   0000              	EXTERN ____sdcc_4_or_src_debc_hlix_dst_debc
198   0000              	EXTERN ____sdcc_4_xor_src_debc_hlix_dst_debc
199   0000              
200   0000              ;--------------------------------------------------------
201   0000              ; Public variables in this module
202   0000              ;--------------------------------------------------------
203   0000              	GLOBAL _player_get_floor
204   0000              	GLOBAL _player_collision
205   0000              	GLOBAL _player_check_conveyor_int
206   0000              	GLOBAL _player_check_conveyor
207   0000              	GLOBAL _player_handle_fall
208   0000              	GLOBAL _player_handle_walk
209   0000              	GLOBAL _player_handle_lock
210   0000              	GLOBAL _player_check_exit
211   0000              	GLOBAL _player_debug_keys
212   0000              	GLOBAL _player_init
213   0000              	GLOBAL _player_turn
214   0000              	GLOBAL _player_move
215   0000              	GLOBAL _player_move_jump
216   0000              	GLOBAL _player_move_walk
217   0000              	GLOBAL _player_handle_conveyor
218   0000              	GLOBAL _player_new_jump
219   0000              	GLOBAL _player_pick
220   0000              	GLOBAL _player_check_input
221   0000              	GLOBAL _player_tile
222   0000              	GLOBAL _player_score_add
223   0000              	GLOBAL _player_pick_item
224   0000              	GLOBAL _player_pick_deadly
225   0000              	GLOBAL _player_pick_extra
226   0000              	GLOBAL _player_check_ceil
227   0000              	GLOBAL _player_crumble
228   0000              	GLOBAL _player_check_floor
229   0000              	GLOBAL _player_lost_life
230   0000              ;--------------------------------------------------------
231   0000              ; Externals used
232   0000              ;--------------------------------------------------------
233   0000              	GLOBAL _ulltoa_callee
234   0000              	GLOBAL _ulltoa
235   0000              	GLOBAL _strtoull_callee
236   0000              	GLOBAL _strtoull
237   0000              	GLOBAL _strtoll_callee
238   0000              	GLOBAL _strtoll
239   0000              	GLOBAL _lltoa_callee
240   0000              	GLOBAL _lltoa
241   0000              	GLOBAL _llabs_callee
242   0000              	GLOBAL _llabs
243   0000              	GLOBAL __lldivu__callee
244   0000              	GLOBAL __lldivu_
245   0000              	GLOBAL __lldiv__callee
246   0000              	GLOBAL __lldiv_
247   0000              	GLOBAL _atoll_callee
248   0000              	GLOBAL _atoll
249   0000              	GLOBAL _realloc_unlocked_callee
250   0000              	GLOBAL _realloc_unlocked
251   0000              	GLOBAL _malloc_unlocked_fastcall
252   0000              	GLOBAL _malloc_unlocked
253   0000              	GLOBAL _free_unlocked_fastcall
254   0000              	GLOBAL _free_unlocked
255   0000              	GLOBAL _calloc_unlocked_callee
256   0000              	GLOBAL _calloc_unlocked
257   0000              	GLOBAL _aligned_alloc_unlocked_callee
258   0000              	GLOBAL _aligned_alloc_unlocked
259   0000              	GLOBAL _realloc_callee
260   0000              	GLOBAL _realloc
261   0000              	GLOBAL _malloc_fastcall
262   0000              	GLOBAL _malloc
263   0000              	GLOBAL _free_fastcall
264   0000              	GLOBAL _free
265   0000              	GLOBAL _calloc_callee
266   0000              	GLOBAL _calloc
267   0000              	GLOBAL _aligned_alloc_callee
268   0000              	GLOBAL _aligned_alloc
269   0000              	GLOBAL _utoa_callee
270   0000              	GLOBAL _utoa
271   0000              	GLOBAL _ultoa_callee
272   0000              	GLOBAL _ultoa
273   0000              	GLOBAL _system_fastcall
274   0000              	GLOBAL _system
275   0000              	GLOBAL _strtoul_callee
276   0000              	GLOBAL _strtoul
277   0000              	GLOBAL _strtol_callee
278   0000              	GLOBAL _strtol
279   0000              	GLOBAL _strtof_callee
280   0000              	GLOBAL _strtof
281   0000              	GLOBAL _strtod_callee
282   0000              	GLOBAL _strtod
283   0000              	GLOBAL _srand_fastcall
284   0000              	GLOBAL _srand
285   0000              	GLOBAL _rand
286   0000              	GLOBAL _quick_exit_fastcall
287   0000              	GLOBAL _quick_exit
288   0000              	GLOBAL _qsort_callee
289   0000              	GLOBAL _qsort
290   0000              	GLOBAL _ltoa_callee
291   0000              	GLOBAL _ltoa
292   0000              	GLOBAL _labs_fastcall
293   0000              	GLOBAL _labs
294   0000              	GLOBAL _itoa_callee
295   0000              	GLOBAL _itoa
296   0000              	GLOBAL _ftoh_callee
297   0000              	GLOBAL _ftoh
298   0000              	GLOBAL _ftog_callee
299   0000              	GLOBAL _ftog
300   0000              	GLOBAL _ftoe_callee
301   0000              	GLOBAL _ftoe
302   0000              	GLOBAL _ftoa_callee
303   0000              	GLOBAL _ftoa
304   0000              	GLOBAL _exit_fastcall
305   0000              	GLOBAL _exit
306   0000              	GLOBAL _dtoh_callee
307   0000              	GLOBAL _dtoh
308   0000              	GLOBAL _dtog_callee
309   0000              	GLOBAL _dtog
310   0000              	GLOBAL _dtoe_callee
311   0000              	GLOBAL _dtoe
312   0000              	GLOBAL _dtoa_callee
313   0000              	GLOBAL _dtoa
314   0000              	GLOBAL _bsearch_callee
315   0000              	GLOBAL _bsearch
316   0000              	GLOBAL _atol_fastcall
317   0000              	GLOBAL _atol
318   0000              	GLOBAL _atoi_fastcall
319   0000              	GLOBAL _atoi
320   0000              	GLOBAL _atof_fastcall
321   0000              	GLOBAL _atof
322   0000              	GLOBAL _atexit_fastcall
323   0000              	GLOBAL _atexit
324   0000              	GLOBAL _at_quick_exit_fastcall
325   0000              	GLOBAL _at_quick_exit
326   0000              	GLOBAL _abs_fastcall
327   0000              	GLOBAL _abs
328   0000              	GLOBAL _abort
329   0000              	GLOBAL __strtou__callee
330   0000              	GLOBAL __strtou_
331   0000              	GLOBAL __strtoi__callee
332   0000              	GLOBAL __strtoi_
333   0000              	GLOBAL __random_uniform_xor_8__fastcall
334   0000              	GLOBAL __random_uniform_xor_8_
335   0000              	GLOBAL __random_uniform_xor_32__fastcall
336   0000              	GLOBAL __random_uniform_xor_32_
337   0000              	GLOBAL __random_uniform_cmwc_8__fastcall
338   0000              	GLOBAL __random_uniform_cmwc_8_
339   0000              	GLOBAL __shellsort__callee
340   0000              	GLOBAL __shellsort_
341   0000              	GLOBAL __quicksort__callee
342   0000              	GLOBAL __quicksort_
343   0000              	GLOBAL __insertion_sort__callee
344   0000              	GLOBAL __insertion_sort_
345   0000              	GLOBAL __ldivu__callee
346   0000              	GLOBAL __ldivu_
347   0000              	GLOBAL __ldiv__callee
348   0000              	GLOBAL __ldiv_
349   0000              	GLOBAL __divu__callee
350   0000              	GLOBAL __divu_
351   0000              	GLOBAL __div__callee
352   0000              	GLOBAL __div_
353   0000              	GLOBAL _NIRVANAP_drawTW_raw_callee
354   0000              	GLOBAL _NIRVANAP_drawTW_raw
355   0000              	GLOBAL _NIRVANAP_drawTW_callee
356   0000              	GLOBAL _NIRVANAP_drawTW
357   0000              	GLOBAL _NIRVANAP_drawW_raw_callee
358   0000              	GLOBAL _NIRVANAP_drawW_raw
359   0000              	GLOBAL _NIRVANAP_drawW_callee
360   0000              	GLOBAL _NIRVANAP_drawW
361   0000              	GLOBAL _NIRVANAP_spriteT_callee
362   0000              	GLOBAL _NIRVANAP_spriteT
363   0000              	GLOBAL _NIRVANAP_fillC_callee
364   0000              	GLOBAL _NIRVANAP_fillC
365   0000              	GLOBAL _NIRVANAP_readC_callee
366   0000              	GLOBAL _NIRVANAP_readC
367   0000              	GLOBAL _NIRVANAP_paintC_callee
368   0000              	GLOBAL _NIRVANAP_paintC
369   0000              	GLOBAL _NIRVANAP_printQ_callee
370   0000              	GLOBAL _NIRVANAP_printQ
371   0000              	GLOBAL _NIRVANAP_fillT_raw_callee
372   0000              	GLOBAL _NIRVANAP_fillT_raw
373   0000              	GLOBAL _NIRVANAP_fillT_callee
374   0000              	GLOBAL _NIRVANAP_fillT
375   0000              	GLOBAL _NIRVANAP_drawT_raw_callee
376   0000              	GLOBAL _NIRVANAP_drawT_raw
377   0000              	GLOBAL _NIRVANAP_drawT_callee
378   0000              	GLOBAL _NIRVANAP_drawT
379   0000              	GLOBAL _NIRVANAP_stop
380   0000              	GLOBAL _NIRVANAP_start
381   0000              	GLOBAL _zx_print_str
382   0000              	GLOBAL _zx_print_int
383   0000              	GLOBAL _zx_print_chr
384   0000              	GLOBAL _zx_isr
385   0000              	GLOBAL _z80_otdr_callee
386   0000              	GLOBAL _z80_otdr
387   0000              	GLOBAL _z80_otir_callee
388   0000              	GLOBAL _z80_otir
389   0000              	GLOBAL _z80_outp_callee
390   0000              	GLOBAL _z80_outp
391   0000              	GLOBAL _z80_indr_callee
392   0000              	GLOBAL _z80_indr
393   0000              	GLOBAL _z80_inir_callee
394   0000              	GLOBAL _z80_inir
395   0000              	GLOBAL _z80_inp_fastcall
396   0000              	GLOBAL _z80_inp
397   0000              	GLOBAL _z80_set_int_state_fastcall
398   0000              	GLOBAL _z80_set_int_state
399   0000              	GLOBAL _z80_get_int_state
400   0000              	GLOBAL _z80_delay_tstate_fastcall
401   0000              	GLOBAL _z80_delay_tstate
402   0000              	GLOBAL _z80_delay_ms_fastcall
403   0000              	GLOBAL _z80_delay_ms
404   0000              	GLOBAL _im2_remove_generic_callback_callee
405   0000              	GLOBAL _im2_remove_generic_callback
406   0000              	GLOBAL _im2_prepend_generic_callback_callee
407   0000              	GLOBAL _im2_prepend_generic_callback
408   0000              	GLOBAL _im2_append_generic_callback_callee
409   0000              	GLOBAL _im2_append_generic_callback
410   0000              	GLOBAL _im2_create_generic_isr_8080_callee
411   0000              	GLOBAL _im2_create_generic_isr_8080
412   0000              	GLOBAL _im2_create_generic_isr_callee
413   0000              	GLOBAL _im2_create_generic_isr
414   0000              	GLOBAL _im2_install_isr_callee
415   0000              	GLOBAL _im2_install_isr
416   0000              	GLOBAL _im2_init_fastcall
417   0000              	GLOBAL _im2_init
418   0000              	GLOBAL _intrinsic_swap_word_32_fastcall
419   0000              	GLOBAL _intrinsic_swap_word_32
420   0000              	GLOBAL _intrinsic_swap_endian_32_fastcall
421   0000              	GLOBAL _intrinsic_swap_endian_32
422   0000              	GLOBAL _intrinsic_swap_endian_16_fastcall
423   0000              	GLOBAL _intrinsic_swap_endian_16
424   0000              	GLOBAL _intrinsic_return_de
425   0000              	GLOBAL _intrinsic_return_bc
426   0000              	GLOBAL _intrinsic_exx
427   0000              	GLOBAL _intrinsic_ex_de_hl
428   0000              	GLOBAL _intrinsic_nop
429   0000              	GLOBAL _intrinsic_im_2
430   0000              	GLOBAL _intrinsic_im_1
431   0000              	GLOBAL _intrinsic_im_0
432   0000              	GLOBAL _intrinsic_retn
433   0000              	GLOBAL _intrinsic_reti
434   0000              	GLOBAL _intrinsic_halt
435   0000              	GLOBAL _intrinsic_ei
436   0000              	GLOBAL _intrinsic_di
437   0000              	GLOBAL _intrinsic_stub
438   0000              	GLOBAL _intrinsic_ini
439   0000              	GLOBAL _intrinsic_outi
440   0000              	GLOBAL _intrinsic_ldi
441   0000              	GLOBAL _zx_pattern_fill_callee
442   0000              	GLOBAL _zx_pattern_fill
443   0000              	GLOBAL _zx_saddrpup_fastcall
444   0000              	GLOBAL _zx_saddrpup
445   0000              	GLOBAL _zx_saddrpright_callee
446   0000              	GLOBAL _zx_saddrpright
447   0000              	GLOBAL _zx_saddrpleft_callee
448   0000              	GLOBAL _zx_saddrpleft
449   0000              	GLOBAL _zx_saddrpdown_fastcall
450   0000              	GLOBAL _zx_saddrpdown
451   0000              	GLOBAL _zx_saddrcup_fastcall
452   0000              	GLOBAL _zx_saddrcup
453   0000              	GLOBAL _zx_saddrcright_fastcall
454   0000              	GLOBAL _zx_saddrcright
455   0000              	GLOBAL _zx_saddrcleft_fastcall
456   0000              	GLOBAL _zx_saddrcleft
457   0000              	GLOBAL _zx_saddrcdown_fastcall
458   0000              	GLOBAL _zx_saddrcdown
459   0000              	GLOBAL _zx_saddr2py_fastcall
460   0000              	GLOBAL _zx_saddr2py
461   0000              	GLOBAL _zx_saddr2px_fastcall
462   0000              	GLOBAL _zx_saddr2px
463   0000              	GLOBAL _zx_saddr2cy_fastcall
464   0000              	GLOBAL _zx_saddr2cy
465   0000              	GLOBAL _zx_saddr2cx_fastcall
466   0000              	GLOBAL _zx_saddr2cx
467   0000              	GLOBAL _zx_saddr2aaddr_fastcall
468   0000              	GLOBAL _zx_saddr2aaddr
469   0000              	GLOBAL _zx_py2saddr_fastcall
470   0000              	GLOBAL _zx_py2saddr
471   0000              	GLOBAL _zx_py2aaddr_fastcall
472   0000              	GLOBAL _zx_py2aaddr
473   0000              	GLOBAL _zx_pxy2saddr_callee
474   0000              	GLOBAL _zx_pxy2saddr
475   0000              	GLOBAL _zx_pxy2aaddr_callee
476   0000              	GLOBAL _zx_pxy2aaddr
477   0000              	GLOBAL _zx_px2bitmask_fastcall
478   0000              	GLOBAL _zx_px2bitmask
479   0000              	GLOBAL _zx_cy2saddr_fastcall
480   0000              	GLOBAL _zx_cy2saddr
481   0000              	GLOBAL _zx_cy2aaddr_fastcall
482   0000              	GLOBAL _zx_cy2aaddr
483   0000              	GLOBAL _zx_cxy2saddr_callee
484   0000              	GLOBAL _zx_cxy2saddr
485   0000              	GLOBAL _zx_cxy2aaddr_callee
486   0000              	GLOBAL _zx_cxy2aaddr
487   0000              	GLOBAL _zx_bitmask2px_fastcall
488   0000              	GLOBAL _zx_bitmask2px
489   0000              	GLOBAL _zx_aaddrcup_fastcall
490   0000              	GLOBAL _zx_aaddrcup
491   0000              	GLOBAL _zx_aaddrcright_fastcall
492   0000              	GLOBAL _zx_aaddrcright
493   0000              	GLOBAL _zx_aaddrcleft_fastcall
494   0000              	GLOBAL _zx_aaddrcleft
495   0000              	GLOBAL _zx_aaddrcdown_fastcall
496   0000              	GLOBAL _zx_aaddrcdown
497   0000              	GLOBAL _zx_aaddr2saddr_fastcall
498   0000              	GLOBAL _zx_aaddr2saddr
499   0000              	GLOBAL _zx_aaddr2py_fastcall
500   0000              	GLOBAL _zx_aaddr2py
501   0000              	GLOBAL _zx_aaddr2px_fastcall
502   0000              	GLOBAL _zx_aaddr2px
503   0000              	GLOBAL _zx_aaddr2cy_fastcall
504   0000              	GLOBAL _zx_aaddr2cy
505   0000              	GLOBAL _zx_aaddr2cx_fastcall
506   0000              	GLOBAL _zx_aaddr2cx
507   0000              	GLOBAL _zx_visit_wc_pix_callee
508   0000              	GLOBAL _zx_visit_wc_pix
509   0000              	GLOBAL _zx_visit_wc_attr_callee
510   0000              	GLOBAL _zx_visit_wc_attr
511   0000              	GLOBAL _zx_scroll_wc_up_pix_callee
512   0000              	GLOBAL _zx_scroll_wc_up_pix
513   0000              	GLOBAL _zx_scroll_wc_up_attr_callee
514   0000              	GLOBAL _zx_scroll_wc_up_attr
515   0000              	GLOBAL _zx_scroll_wc_up_callee
516   0000              	GLOBAL _zx_scroll_wc_up
517   0000              	GLOBAL _zx_scroll_up_pix_callee
518   0000              	GLOBAL _zx_scroll_up_pix
519   0000              	GLOBAL _zx_scroll_up_attr_callee
520   0000              	GLOBAL _zx_scroll_up_attr
521   0000              	GLOBAL _zx_scroll_up_callee
522   0000              	GLOBAL _zx_scroll_up
523   0000              	GLOBAL _zx_cls_wc_pix_callee
524   0000              	GLOBAL _zx_cls_wc_pix
525   0000              	GLOBAL _zx_cls_wc_attr_callee
526   0000              	GLOBAL _zx_cls_wc_attr
527   0000              	GLOBAL _zx_cls_wc_callee
528   0000              	GLOBAL _zx_cls_wc
529   0000              	GLOBAL _zx_cls_pix_fastcall
530   0000              	GLOBAL _zx_cls_pix
531   0000              	GLOBAL _zx_cls_attr_fastcall
532   0000              	GLOBAL _zx_cls_attr
533   0000              	GLOBAL _zx_cls_fastcall
534   0000              	GLOBAL _zx_cls
535   0000              	GLOBAL _zx_border_fastcall
536   0000              	GLOBAL _zx_border
537   0000              	GLOBAL _zx_tape_verify_block_callee
538   0000              	GLOBAL _zx_tape_verify_block
539   0000              	GLOBAL _zx_tape_save_block_callee
540   0000              	GLOBAL _zx_tape_save_block
541   0000              	GLOBAL _zx_tape_load_block_callee
542   0000              	GLOBAL _zx_tape_load_block
543   0000              	GLOBAL _spr_horizontal_check
544   0000              	GLOBAL _spr_draw8
545   0000              	GLOBAL _spr_clear_scr
546   0000              	GLOBAL _spr_back_repaint
547   0000              	GLOBAL _spr_get_tile_dir
548   0000              	GLOBAL _spr_get_tile
549   0000              	GLOBAL _spr_paint_player
550   0000              	GLOBAL _spr_clear_fast_hor
551   0000              	GLOBAL _spr_clear_fast_vert
552   0000              	GLOBAL _spr_clear_fast
553   0000              	GLOBAL _spr_paint
554   0000              	GLOBAL _spr_move_left
555   0000              	GLOBAL _spr_move_right
556   0000              	GLOBAL _spr_move_left_f
557   0000              	GLOBAL _spr_move_right_f
558   0000              	GLOBAL _spr_move_horizontal
559   0000              	GLOBAL _spr_move_down_f
560   0000              	GLOBAL _spr_move_up_f
561   0000              	GLOBAL _spr_set_right
562   0000              	GLOBAL _spr_set_left
563   0000              	GLOBAL _spr_set_down
564   0000              	GLOBAL _spr_set_up
565   0000              	GLOBAL _spr_calc_index
566   0000              	GLOBAL _spr_chktime
567   0000              	GLOBAL _player_use_floor
568   0000              	GLOBAL _game_text
569   0000              	GLOBAL _game_logo1
570   0000              	GLOBAL _game_anim_conveyor
571   0000              	GLOBAL _zx_print_char
572   0000              	GLOBAL _reverse
573   0000              	GLOBAL _page
574   0000              	GLOBAL _game_crumble
575   0000              	GLOBAL _game_solar_ray0
576   0000              	GLOBAL _game_solar_ray1
577   0000              	GLOBAL _game_solar_ray
578   0000              	GLOBAL _game_anim_air
579   0000              	GLOBAL _game_shoe
580   0000              	GLOBAL _game_intro
581   0000              	GLOBAL _game_copy_sprite
582   0000              	GLOBAL _game_copy_sprite_color_reset
583   0000              	GLOBAL _game_copy_sprite_std
584   0000              	GLOBAL _game_flash_exit
585   0000              	GLOBAL _game_page_map
586   0000              	GLOBAL _game_attribs
587   0000              	GLOBAL _game_check_time
588   0000              	GLOBAL _game_key_paint
589   0000              	GLOBAL _game_colour_message
590   0000              	GLOBAL _game_paint_attrib
591   0000              	GLOBAL _game_print_score
592   0000              	GLOBAL _game_cell_paint_index
593   0000              	GLOBAL _game_cell_paint
594   0000              	GLOBAL _game_check_cell
595   0000              	GLOBAL _game_check_map
596   0000              	GLOBAL _game_loop
597   0000              	GLOBAL _game_round_init
598   0000              	GLOBAL _game_start_timer
599   0000              	GLOBAL _game_update_stats
600   0000              	GLOBAL _game_print_footer
601   0000              	GLOBAL _game_fill_row
602   0000              	GLOBAL _game_cls
603   0000              	GLOBAL _game_fps
604   0000              	GLOBAL _game_draw_map
605   0000              	GLOBAL _enemy_init
606   0000              	GLOBAL _enemy_move
607   0000              	GLOBAL _enemy_turn
608   0000              	GLOBAL _enemy_static
609   0000              	GLOBAL _enemy_horizontal
610   0000              	GLOBAL _enemy_vertical
611   0000              	GLOBAL _ay_reset
612   0000              	GLOBAL _ay_song_stop
613   0000              	GLOBAL _ay_song_play
614   0000              	GLOBAL _ay_fx_stop
615   0000              	GLOBAL _ay_fx_play
616   0000              	GLOBAL _ay_is_playing
617   0000              	GLOBAL _audio_game_over
618   0000              	GLOBAL _audio_round_init
619   0000              	GLOBAL _audio_levelup
620   0000              	GLOBAL _audio_menu
621   0000              	GLOBAL _audio_game_end
622   0000              	GLOBAL _audio_game_start
623   0000              	GLOBAL _audio_level_complete
624   0000              	GLOBAL _audio_level_start
625   0000              	GLOBAL _audio_puerta
626   0000              	GLOBAL _audio_crumble
627   0000              	GLOBAL _audio_tick
628   0000              	GLOBAL _audio_door_open
629   0000              	GLOBAL _audio_coin_noentiendo
630   0000              	GLOBAL _audio_coin
631   0000              	GLOBAL _audio_fall
632   0000              	GLOBAL _audio_jump
633   0000              	GLOBAL _audio_dead
634   0000              	GLOBAL _audio_time
635   0000              	GLOBAL _audio_ingame
636   0000              	GLOBAL _in_mouse_kempston_wheel_delta
637   0000              	GLOBAL _in_mouse_kempston_wheel
638   0000              	GLOBAL _in_mouse_kempston_callee
639   0000              	GLOBAL _in_mouse_kempston
640   0000              	GLOBAL _in_mouse_kempston_setpos_callee
641   0000              	GLOBAL _in_mouse_kempston_setpos
642   0000              	GLOBAL _in_mouse_kempston_reset
643   0000              	GLOBAL _in_mouse_kempston_init
644   0000              	GLOBAL _in_mouse_amx_wheel_delta
645   0000              	GLOBAL _in_mouse_amx_wheel
646   0000              	GLOBAL _in_mouse_amx_callee
647   0000              	GLOBAL _in_mouse_amx
648   0000              	GLOBAL _in_mouse_amx_setpos_callee
649   0000              	GLOBAL _in_mouse_amx_setpos
650   0000              	GLOBAL _in_mouse_amx_reset
651   0000              	GLOBAL _in_mouse_amx_init_callee
652   0000              	GLOBAL _in_mouse_amx_init
653   0000              	GLOBAL _in_stick_sinclair2
654   0000              	GLOBAL _in_stick_sinclair1
655   0000              	GLOBAL _in_stick_kempston
656   0000              	GLOBAL _in_stick_fuller
657   0000              	GLOBAL _in_stick_cursor
658   0000              	GLOBAL _in_stick_keyboard_fastcall
659   0000              	GLOBAL _in_stick_keyboard
660   0000              	GLOBAL _in_wait_nokey
661   0000              	GLOBAL _in_wait_key
662   0000              	GLOBAL _in_test_key
663   0000              	GLOBAL _in_pause_fastcall
664   0000              	GLOBAL _in_pause
665   0000              	GLOBAL _in_key_scancode_fastcall
666   0000              	GLOBAL _in_key_scancode
667   0000              	GLOBAL _in_key_pressed_fastcall
668   0000              	GLOBAL _in_key_pressed
669   0000              	GLOBAL _in_inkey
670   0000              	GLOBAL _NIRVANAP_CHAR_TABLE
671   0000              	GLOBAL _NIRVANAP_WIDE_IMAGES
672   0000              	GLOBAL _NIRVANAP_TILE_IMAGES
673   0000              	GLOBAL _NIRVANAP_HOLE
674   0000              	GLOBAL _NIRVANAP_ISR_HOOK
675   0000              	GLOBAL _game_tune
676   0000              	GLOBAL _code1
677   0000              	GLOBAL _code0
678   0000              	GLOBAL _deltas
679   0000              	GLOBAL _attribs
680   0000              	GLOBAL _air_curr_byte
681   0000              	GLOBAL _spr_clr
682   0000              	GLOBAL _spr_init_bright
683   0000              	GLOBAL _spr_init_cout3
684   0000              	GLOBAL _spr_init_cin3
685   0000              	GLOBAL _spr_init_cout2
686   0000              	GLOBAL _spr_init_cin2
687   0000              	GLOBAL _spr_init_cout1
688   0000              	GLOBAL _spr_init_cin1
689   0000              	GLOBAL _spr_init_cout0
690   0000              	GLOBAL _spr_init_cin0
691   0000              	GLOBAL _map_clear
692   0000              	GLOBAL _map_paper
693   0000              	GLOBAL _map_border
694   0000              	GLOBAL _gbyte
695   0000              	GLOBAL _scr_curr
696   0000              	GLOBAL _color
697   0000              	GLOBAL _scr_map
698   0000              	GLOBAL _spr_kind
699   0000              	GLOBAL _spr_altset
700   0000              	GLOBAL _spr_frames
701   0000              	GLOBAL _spr_speed_a
702   0000              	GLOBAL _spr_speed_b
703   0000              	GLOBAL _spr_speed
704   0000              	GLOBAL _spr_tile
705   0000              	GLOBAL _screen_ink
706   0000              	GLOBAL _screen_paper
707   0000              	GLOBAL _game_start_scr
708   0000              	GLOBAL _player_next_extra
709   0000              	GLOBAL _game_score_top
710   0000              	GLOBAL _player_coins
711   0000              	GLOBAL _player_lives
712   0000              	GLOBAL _game_crumb_end
713   0000              	GLOBAL _game_crumb_start
714   0000              	GLOBAL _game_over
715   0000              	GLOBAL _game_tile_cnt
716   0000              	GLOBAL _game_sound
717   0000              	GLOBAL _game_inf_lives
718   0000              	GLOBAL _game_inmune
719   0000              	GLOBAL _spr_count
720   0000              	GLOBAL _key_ink
721   0000              	GLOBAL _key_last
722   0000              	GLOBAL _lapse_crumb
723   0000              	GLOBAL _time_key
724   0000              	GLOBAL _time_conv
725   0000              	GLOBAL _time_air
726   0000              	GLOBAL _frame_time
727   0000              	GLOBAL _curr_time
728   0000              	GLOBAL _key_attrib
729   0000              	GLOBAL _g_ray1
730   0000              	GLOBAL _attrib_osd
731   0000              	GLOBAL _attrib_hl
732   0000              	GLOBAL _attrib
733   0000              	GLOBAL _zx_val_asm
734   0000              	GLOBAL _index1
735   0000              	GLOBAL _index0
736   0000              	GLOBAL _loop_count
737   0000              	GLOBAL _s_row1
738   0000              	GLOBAL _s_col1
739   0000              	GLOBAL _s_col0
740   0000              	GLOBAL _s_lin1
741   0000              	GLOBAL _s_lin0
742   0000              	GLOBAL _nirv_sprite_index
743   0000              	GLOBAL _player_kill_index
744   0000              	GLOBAL _player_jump_top
745   0000              	GLOBAL _game_debug
746   0000              	GLOBAL _sprite
747   0000              	GLOBAL _fps
748   0000              	GLOBAL _game_effect
749   0000              	GLOBAL _game_menu
750   0000              	GLOBAL _game_atrac
751   0000              	GLOBAL _game_mode
752   0000              	GLOBAL _game_tileset
753   0000              	GLOBAL _menu_curr_sel
754   0000              	GLOBAL _game_round_up
755   0000              	GLOBAL _game_lives
756   0000              	GLOBAL _game_code
757   0000              	GLOBAL _game_exit_lin
758   0000              	GLOBAL _game_exit_col
759   0000              	GLOBAL _game_conveyor_col1
760   0000              	GLOBAL _game_conveyor_col0
761   0000              	GLOBAL _game_conveyor_lin
762   0000              	GLOBAL _game_conveyor_dir
763   0000              	GLOBAL _game_song_play
764   0000              	GLOBAL _game_gravity
765   0000              	GLOBAL _player_lin_scr
766   0000              	GLOBAL _player_col_scr
767   0000              	GLOBAL _player_fall_start
768   0000              	GLOBAL _player_jump_lin
769   0000              	GLOBAL _player_jump_count
770   0000              	GLOBAL _player_jump_hack
771   0000              	GLOBAL _player_vel_inc
772   0000              	GLOBAL _player_vel_y0
773   0000              	GLOBAL _player_vel_y
774   0000              	GLOBAL _player_score
775   0000              	GLOBAL _tbuffer
776   0000              	GLOBAL _obj_count
777   0000              	GLOBAL _obj_col
778   0000              	GLOBAL _obj_lin
779   0000              	GLOBAL _last_time_b
780   0000              	GLOBAL _last_time_a
781   0000              	GLOBAL _last_time
782   0000              	GLOBAL _colint
783   0000              	GLOBAL _col
784   0000              	GLOBAL _lin
785   0000              	GLOBAL _tile
786   0000              	GLOBAL _value_c
787   0000              	GLOBAL _value_b
788   0000              	GLOBAL _value_a
789   0000              	GLOBAL _state_a
790   0000              	GLOBAL _state
791   0000              	GLOBAL _class
792   0000              	GLOBAL _dirs_last
793   0000              	GLOBAL _dirs
794   0000              	GLOBAL _k2
795   0000              	GLOBAL _k1
796   0000              	GLOBAL _joyfunc2
797   0000              	GLOBAL _joyfunc1
798   0000              	GLOBAL _btiles
799   0000              	GLOBAL _v3
800   0000              	GLOBAL _v2
801   0000              	GLOBAL _v1
802   0000              	GLOBAL _v0
803   0000              	GLOBAL _i
804   0000              	GLOBAL _spec128
805   0000              	GLOBAL _GLOBAL_ZX_PORT_7FFD
806   0000              	GLOBAL _GLOBAL_ZX_PORT_1FFD
807   0000              	GLOBAL _GLOBAL_ZX_PORT_FE
808   0000              	GLOBAL _hitiles2
809   0000              	GLOBAL _hitiles1
810   0000              	GLOBAL _ay_song_coin_noentiendo
811   0000              	GLOBAL _ay_song_game_over
812   0000              	GLOBAL _ay_song_time_atack
813   0000              	GLOBAL _ay_fx_pause
814   0000              	GLOBAL _ay_fx_crumble
815   0000              	GLOBAL _ay_fx_door_open
816   0000              	GLOBAL _ay_fx_tick
817   0000              	GLOBAL _ay_fx_game_start
818   0000              	GLOBAL _ay_fx_fall
819   0000              	GLOBAL _ay_fx_jump
820   0000              	GLOBAL _ay_fx_dead
821   0000              	GLOBAL _ay_fx_coin
822   0000              	GLOBAL _ay_song_round_init
823   0000              	GLOBAL _ay_song_menu
824   0000              	GLOBAL _ay_song_ingame1
825   0000              	GLOBAL _ay_song_ingame0
826   0000              	GLOBAL _hisprites2
827   0000              	GLOBAL _hisprites1
828   0000              	GLOBAL _logo2
829   0000              	GLOBAL _logo1
830   0000              	GLOBAL _cartoon2
831   0000              	GLOBAL _cartoon1
832   0000              	GLOBAL _cartoon0
833   0000              	GLOBAL _img1
834   0000              	GLOBAL _air_end_byte
835   0000              	GLOBAL _air_start_byte
836   0000              	GLOBAL _tile_class
837   0000              	GLOBAL _texts
838   0000              	GLOBAL _map_names0
839   0000              	GLOBAL _game_borders0
840   0000              	GLOBAL _spr_init2
841   0000              	GLOBAL _spr_init1
842   0000              	GLOBAL _tile_class2
843   0000              	GLOBAL _tile_class1
844   0000              	GLOBAL _paper0
845   0000              	GLOBAL _lenght0
846   0000              	GLOBAL _world0
847   0000              	GLOBAL _spr_init
848   0000              	GLOBAL _game_encode
849   0000              	GLOBAL _player_jump_hor
850   0000              ;--------------------------------------------------------
851   0000              ; special function registers
852   0000              ;--------------------------------------------------------
853   0000              defc _IO_FE	=	0x00fe
854   0000              defc _IO_1FFD	=	0x1ffd
855   0000              defc _IO_7FFD	=	0x7ffd
856   0000              ;--------------------------------------------------------
857   0000              ; ram data
858   0000              ;--------------------------------------------------------
859   0000              	SECTION bss_compiler
860   0000              ;--------------------------------------------------------
861   0000              ; ram data
862   0000              ;--------------------------------------------------------
863   0000              
864   0000              IF 0
865   0000              
866   0000              ; .area _INITIALIZED removed by z88dk
867   0000              
868   0000              
869   0000              ENDIF
870   0000              
871   0000              ;--------------------------------------------------------
872   0000              ; absolute external ram data
873   0000              ;--------------------------------------------------------
874   0000              	SECTION IGNORE
875   0000              ;--------------------------------------------------------
876   0000              ; global & static initialisations
877   0000              ;--------------------------------------------------------
878   0000              	SECTION code_crt_init
879   0000              ;--------------------------------------------------------
880   0000              ; Home
881   0000              ;--------------------------------------------------------
882   0000              	SECTION IGNORE
883   0000              ;--------------------------------------------------------
884   0000              ; code
885   0000              ;--------------------------------------------------------
886   0000              	SECTION code_compiler
887   0000              ;	---------------------------------
888   0000              ; Function player_init
889   0000              ; ---------------------------------
890   0000              _player_init:
891   0000  CD 00 00    	call	___sdcc_enter_ix
892   0003  F5          	push	af
893   0004  21 08 00    	ld	hl, +(_class + 0x0008)
894   0007  36 FF       	ld	(hl),0xff
895   0009  21 08 00    	ld	hl, +(_spr_speed + 0x0008)
896   000C  36 04       	ld	(hl),0x04
897   000E  21 08 00    	ld	hl, +(_spr_frames + 0x0008)
898   0011  36 04       	ld	(hl),0x04
899   0013  21 08 00    	ld	hl, +(_lin + 0x0008)
900   0016  DD 7E 04    	ld	a,(ix+4)
901   0019  77          	ld	(hl), a
902   001A  21 08 00    	ld	hl, +(_col + 0x0008)
903   001D  DD 7E 05    	ld	a,(ix+5)
904   0020  77          	ld	(hl), a
905   0021  DD 7E 04    	ld	a,(ix+4)
906   0024  32 00 00    	ld	(_player_jump_top),a
907   0027  01 08 00    	ld	bc,_state+8
908   002A  AF          	xor	a, a
909   002B  02          	ld	(bc), a
910   002C  11 08 00    	ld	de,_state_a+8
911   002F  AF          	xor	a, a
912   0030  12          	ld	(de), a
913   0031  2A 00 00    	ld	hl,(_curr_time)
914   0034  C5          	push	bc
915   0035  D5          	push	de
916   0036  DD 74 FF    	ld	(ix-1),h
917   0039  DD 75 FE    	ld	(ix-2),l
918   003C  D1          	pop	de
919   003D  C1          	pop	bc
920   003E  21 10 00    	ld	hl, +(_last_time + 0x0010)
921   0041  DD 7E FE    	ld	a,(ix-2)
922   0044  77          	ld	(hl), a
923   0045  23          	inc	hl
924   0046  DD 7E FF    	ld	a,(ix-1)
925   0049  77          	ld	(hl), a
926   004A  21 00 00    	ld	hl,0x0000
927   004D  22 00 00    	ld	(_player_vel_y),hl
928   0050  21 08 00    	ld	hl, +(_spr_frames + 0x0008)
929   0053  36 04       	ld	(hl),0x04
930   0055  3A 08 00    	ld	a,(_value_a + 0x0008)
931   0058  DD 77 FE    	ld	(ix-2),a
932   005B  B7          	or	a, a
933   005C  28 1C       	jr	Z,l_player_init_00102
934   005E  21 08 00    	ld	hl, +(_colint + 0x0008)
935   0061  36 03       	ld	(hl),0x03
936   0063  0A          	ld	a, (bc)
937   0064  F6 08       	or	a,0x08
938   0066  02          	ld	(bc), a
939   0067  1A          	ld	a, (de)
940   0068  F6 08       	or	a,0x08
941   006A  12          	ld	(de), a
942   006B  01 08 00    	ld	bc,_tile+8
943   006E  DD 7E 06    	ld	a,(ix+6)
944   0071  C6 04       	add	a,0x04
945   0073  02          	ld	(bc), a
946   0074  3A 08 00    	ld	a,(_value_b + 0x0008)
947   0077  77          	ld	(hl), a
948   0078  18 15       	jr	l_player_init_00104
949   007A              l_player_init_00102:
950   007A  0A          	ld	a, (bc)
951   007B  F6 04       	or	a,0x04
952   007D  02          	ld	(bc), a
953   007E  1A          	ld	a, (de)
954   007F  F6 10       	or	a,0x10
955   0081  12          	ld	(de), a
956   0082  21 08 00    	ld	hl, +(_tile + 0x0008)
957   0085  DD 7E 06    	ld	a,(ix+6)
958   0088  77          	ld	(hl), a
959   0089  3A 08 00    	ld	a,(_value_b + 0x0008)
960   008C  32 08 00    	ld	(_colint+8),a
961   008F              l_player_init_00104:
962   008F  F1          	pop	af
963   0090  DD E1       	pop	ix
964   0092  C9          	ret
965   0093              	SECTION code_compiler
966   0093              ;	---------------------------------
967   0093              ; Function player_turn
968   0093              ; ---------------------------------
969   0093              _player_turn:
970   0093  21 00 00    	ld	hl,_sprite
971   0096  36 08       	ld	(hl),0x08
972   0098  CD 00 00    	call	_spr_chktime
973   009B  7D          	ld	a, l
974   009C  B7          	or	a, a
975   009D  CA 1F 01    	jp	Z, l_player_turn_00117
976   00A0  3A 08 00    	ld	a,(_lin + 0x0008)
977   00A3  32 00 00    	ld	(_s_lin0),a
978   00A6  3A 08 00    	ld	a,(_col + 0x0008)
979   00A9  32 00 00    	ld	(_s_col0),a
980   00AC  21 00 00    	ld	hl,_k1
981   00AF  E5          	push	hl
982   00B0  2A 00 00    	ld	hl,(_joyfunc1)
983   00B3  CD 00 00    	call	___sdcc_call_hl
984   00B6  F1          	pop	af
985   00B7  7D          	ld	a,l
986   00B8  32 00 00    	ld	(_dirs),a
987   00BB  CD 1C 02    	call	_player_move
988   00BE  CD 5B 04    	call	_player_handle_lock
989   00C1  CD BD 06    	call	_player_collision
990   00C4  CD 90 01    	call	_player_check_exit
991   00C7  3A 08 00    	ld	a,(_state + 0x0008)
992   00CA  CB 6F       	bit	5, a
993   00CC  28 11       	jr	Z,l_player_turn_00102
994   00CE  3A 00 00    	ld	a,(_game_inmune)
995   00D1  B7          	or	a, a
996   00D2  20 0B       	jr	NZ,l_player_turn_00102
997   00D4  CD DE 0D    	call	_player_lost_life
998   00D7  3A 08 00    	ld	a,(_state + 0x0008)
999   00DA  E6 DF       	and	a,0xdf
1000  00DC  32 08 00    	ld	((_state + 0x0008)),a
1001  00DF              l_player_turn_00102:
1002  00DF  3A 00 00    	ld	a,(_scr_curr)
1003  00E2  D6 14       	sub	a,0x14
1004  00E4  38 07       	jr	C,l_player_turn_00106
1005  00E6  2A 10 00    	ld	hl,(_last_time_b + 0x0010)
1006  00E9  7C          	ld	a, h
1007  00EA  B5          	or	a,l
1008  00EB  20 05       	jr	NZ,l_player_turn_00107
1009  00ED              l_player_turn_00106:
1010  00ED  CD 00 00    	call	_game_crumble
1011  00F0  18 14       	jr	l_player_turn_00108
1012  00F2              l_player_turn_00107:
1013  00F2  21 06 00    	ld	hl,0x0006
1014  00F5  E5          	push	hl
1015  00F6  21 10 00    	ld	hl, +(_last_time_b + 0x0010)
1016  00F9  E5          	push	hl
1017  00FA  CD 00 00    	call	_game_check_time
1018  00FD  F1          	pop	af
1019  00FE  F1          	pop	af
1020  00FF  7D          	ld	a, l
1021  0100  B7          	or	a, a
1022  0101  28 03       	jr	Z,l_player_turn_00108
1023  0103  CD 00 00    	call	_game_crumble
1024  0106              l_player_turn_00108:
1025  0106  3A 08 00    	ld	a,(_state + 0x0008)
1026  0109  CB 47       	bit	0, a
1027  010B  20 0A       	jr	NZ,l_player_turn_00111
1028  010D  CB 4F       	bit	1, a
1029  010F  20 06       	jr	NZ,l_player_turn_00111
1030  0111  3A 00 00    	ld	a,(_dirs)
1031  0114  32 00 00    	ld	(_dirs_last),a
1032  0117              l_player_turn_00111:
1033  0117  3A 00 00    	ld	a,(_game_debug)
1034  011A  B7          	or	a, a
1035  011B  C8          	ret	Z
1036  011C  CD 20 01    	call	_player_debug_keys
1037  011F              l_player_turn_00117:
1038  011F  C9          	ret
1039  0120              	SECTION code_compiler
1040  0120              ;	---------------------------------
1041  0120              ; Function player_debug_keys
1042  0120              ; ---------------------------------
1043  0120              _player_debug_keys:
1044  0120  CD 00 00    	call	_in_inkey
1045  0123  7D          	ld	a,l
1046  0124  32 00 00    	ld	(_v0),a
1047  0127  D6 31       	sub	a,0x31
1048  0129  28 0D       	jr	Z,l_player_debug_keys_00101
1049  012B  3A 00 00    	ld	a,(_v0)
1050  012E  FE 32       	cp	a,0x32
1051  0130  28 1F       	jr	Z,l_player_debug_keys_00104
1052  0132  D6 33       	sub	a,0x33
1053  0134  28 35       	jr	Z,l_player_debug_keys_00107
1054  0136  18 57       	jr	l_player_debug_keys_00112
1055  0138              l_player_debug_keys_00101:
1056  0138  21 00 00    	ld	hl,_scr_curr
1057  013B  35          	dec	(hl)
1058  013C  21 00 00    	ld	hl,_game_round_up
1059  013F  36 01       	ld	(hl),0x01
1060  0141  3A 00 00    	ld	a,(_scr_curr)
1061  0144  3C          	inc	a
1062  0145  20 05       	jr	NZ,l_player_debug_keys_00103
1063  0147  21 00 00    	ld	hl,_scr_curr
1064  014A  36 27       	ld	(hl),0x27
1065  014C              l_player_debug_keys_00103:
1066  014C  CD 00 00    	call	_in_wait_nokey
1067  014F  18 3E       	jr	l_player_debug_keys_00112
1068  0151              l_player_debug_keys_00104:
1069  0151  21 00 00    	ld	hl,_scr_curr
1070  0154  34          	inc	(hl)
1071  0155  21 00 00    	ld	hl,_game_round_up
1072  0158  36 01       	ld	(hl),0x01
1073  015A  3A 00 00    	ld	a,(_scr_curr)
1074  015D  D6 28       	sub	a,0x28
1075  015F  20 05       	jr	NZ,l_player_debug_keys_00106
1076  0161  21 00 00    	ld	hl,_scr_curr
1077  0164  36 00       	ld	(hl),0x00
1078  0166              l_player_debug_keys_00106:
1079  0166  CD 00 00    	call	_in_wait_nokey
1080  0169  18 24       	jr	l_player_debug_keys_00112
1081  016B              l_player_debug_keys_00107:
1082  016B  21 00 00    	ld	hl,_game_inmune
1083  016E  7E          	ld	a, (hl)
1084  016F  D6 01       	sub	a,0x01
1085  0171  3E 00       	ld	a,0x00
1086  0173  17          	rla
1087  0174  77          	ld	(hl), a
1088  0175  01 08 00    	ld	bc,_state+8
1089  0178  0A          	ld	a, (bc)
1090  0179  E6 DF       	and	a,0xdf
1091  017B  02          	ld	(bc), a
1092  017C  7E          	ld	a, (hl)
1093  017D  B7          	or	a, a
1094  017E  28 07       	jr	Z,l_player_debug_keys_00109
1095  0180  2E 04       	ld	l,0x04
1096  0182  CD 00 00    	call	_zx_border_fastcall
1097  0185  18 05       	jr	l_player_debug_keys_00110
1098  0187              l_player_debug_keys_00109:
1099  0187  2E 02       	ld	l,0x02
1100  0189  CD 00 00    	call	_zx_border_fastcall
1101  018C              l_player_debug_keys_00110:
1102  018C  CD 00 00    	call	_in_wait_nokey
1103  018F              l_player_debug_keys_00112:
1104  018F  C9          	ret
1105  0190              	SECTION code_compiler
1106  0190              ;	---------------------------------
1107  0190              ; Function player_check_exit
1108  0190              ; ---------------------------------
1109  0190              _player_check_exit:
1110  0190  3A 00 00    	ld	a,(_obj_count)
1111  0193  3C          	inc	a
1112  0194  C2 1B 02    	jp	NZ,l_player_check_exit_00114
1113  0197  21 08 00    	ld	hl,+(_col + 0x0008)
1114  019A  5E          	ld	e, (hl)
1115  019B  3A 00 00    	ld	a,(_game_exit_col)
1116  019E  BB          	cp	a,e
1117  019F  28 0E       	jr	Z,l_player_check_exit_00110
1118  01A1  4F          	ld	c,a
1119  01A2  06 00       	ld	b,0x00
1120  01A4  03          	inc	bc
1121  01A5  16 00       	ld	d,0x00
1122  01A7  79          	ld	a, c
1123  01A8  93          	sub	a, e
1124  01A9  20 70       	jr	NZ,l_player_check_exit_00114
1125  01AB  78          	ld	a, b
1126  01AC  92          	sub	a, d
1127  01AD  20 6C       	jr	NZ,l_player_check_exit_00114
1128  01AF              l_player_check_exit_00110:
1129  01AF  2A 08 00    	ld	hl,(_lin + 0x0008)
1130  01B2  26 00       	ld	h,0x00
1131  01B4  01 10 00    	ld	bc,0x0010
1132  01B7  09          	add	hl,bc
1133  01B8  3A 00 00    	ld	a,(_game_exit_lin)
1134  01BB  5F          	ld	e,a
1135  01BC  16 00       	ld	d,0x00
1136  01BE  7D          	ld	a,l
1137  01BF  93          	sub	a,e
1138  01C0  44          	ld	b,h
1139  01C1  6F          	ld	l, a
1140  01C2  78          	ld	a, b
1141  01C3  9A          	sbc	a, d
1142  01C4  67          	ld	h, a
1143  01C5  CD 00 00    	call	_abs_fastcall
1144  01C8  7D          	ld	a,l
1145  01C9  32 00 00    	ld	(_v0),a
1146  01CC  D6 08       	sub	a,0x08
1147  01CE  30 4B       	jr	NC,l_player_check_exit_00114
1148  01D0  21 00 00    	ld	hl,_scr_curr
1149  01D3  7E          	ld	a,(hl)
1150  01D4  3C          	inc	a
1151  01D5  77          	ld	(hl),a
1152  01D6  D6 14       	sub	a,0x14
1153  01D8  20 05       	jr	NZ,l_player_check_exit_00102
1154  01DA  21 00 00    	ld	hl,_scr_curr
1155  01DD  36 00       	ld	(hl),0x00
1156  01DF              l_player_check_exit_00102:
1157  01DF  3A 00 00    	ld	a,(_scr_curr)
1158  01E2  D6 28       	sub	a,0x28
1159  01E4  20 05       	jr	NZ,l_player_check_exit_00104
1160  01E6  21 00 00    	ld	hl,_scr_curr
1161  01E9  36 14       	ld	(hl),0x14
1162  01EB              l_player_check_exit_00104:
1163  01EB  21 00 00    	ld	hl,_game_round_up
1164  01EE  36 01       	ld	(hl),0x01
1165  01F0  01 08 00    	ld	bc,_state+8
1166  01F3  0A          	ld	a, (bc)
1167  01F4  E6 DF       	and	a,0xdf
1168  01F6  02          	ld	(bc), a
1169  01F7  CD 00 00    	call	_ay_song_stop
1170  01FA              l_player_check_exit_00105:
1171  01FA  ED 4B 00 00 	ld	bc,(_air_curr_byte)
1172  01FE  ED 5B 00 00 	ld	de,(_air_end_byte)
1173  0202  7B          	ld	a,e
1174  0203  91          	sub	a,c
1175  0204  7A          	ld	a,d
1176  0205  98          	sbc	a,b
1177  0206  D0          	ret	NC
1178  0207  CD 00 00    	call	_audio_tick
1179  020A  CD 00 00    	call	_game_anim_air
1180  020D  21 08 00    	ld	hl,0x0008
1181  0210  CD C1 08    	call	_player_score_add
1182  0213  21 05 00    	ld	hl,0x0005
1183  0216  CD 00 00    	call	_z80_delay_ms_fastcall
1184  0219  18 DF       	jr	l_player_check_exit_00105
1185  021B              l_player_check_exit_00114:
1186  021B  C9          	ret
1187  021C              	SECTION code_compiler
1188  021C              ;	---------------------------------
1189  021C              ; Function player_move
1190  021C              ; ---------------------------------
1191  021C              _player_move:
1192  021C  3A 08 00    	ld	a,(_state + 0x0008)
1193  021F  CB 47       	bit	0, a
1194  0221  20 04       	jr	NZ,l_player_move_00101
1195  0223  CB 4F       	bit	1, a
1196  0225  28 05       	jr	Z,l_player_move_00102
1197  0227              l_player_move_00101:
1198  0227  CD 35 02    	call	_player_move_jump
1199  022A  18 03       	jr	l_player_move_00103
1200  022C              l_player_move_00102:
1201  022C  CD E1 03    	call	_player_move_walk
1202  022F              l_player_move_00103:
1203  022F  CD 00 00    	call	_spr_paint_player
1204  0232  2E 00       	ld	l,0x00
1205  0234  C9          	ret
1206  0235              	SECTION code_compiler
1207  0235              ;	---------------------------------
1208  0235              ; Function player_move_jump
1209  0235              ; ---------------------------------
1210  0235              _player_move_jump:
1211  0235  CD 00 00    	call	___sdcc_enter_ix
1212  0238  F5          	push	af
1213  0239  3B          	dec	sp
1214  023A  21 00 00    	ld	hl,_player_jump_count
1215  023D  34          	inc	(hl)
1216  023E  3E 11       	ld	a,0x11
1217  0240  96          	sub	a, (hl)
1218  0241  30 07       	jr	NC,l_player_move_jump_00102
1219  0243  01 08 00    	ld	bc,_state+8
1220  0246  0A          	ld	a, (bc)
1221  0247  E6 F3       	and	a,+(0xfb&0xf7)
1222  0249  02          	ld	(bc),a
1223  024A              l_player_move_jump_00102:
1224  024A  3A 08 00    	ld	a,(_state_a + 0x0008)
1225  024D  CB 57       	bit	2, a
1226  024F  28 19       	jr	Z,l_player_move_jump_00108
1227  0251  3E 02       	ld	a,0x02
1228  0253  21 00 00    	ld	hl,_player_jump_count
1229  0256  96          	sub	a, (hl)
1230  0257  30 0C       	jr	NC,l_player_move_jump_00104
1231  0259  7E          	ld	a, (hl)
1232  025A  D6 09       	sub	a,0x09
1233  025C  30 07       	jr	NC,l_player_move_jump_00104
1234  025E  21 08 00    	ld	hl, +(_spr_speed + 0x0008)
1235  0261  36 07       	ld	(hl),0x07
1236  0263  18 05       	jr	l_player_move_jump_00108
1237  0265              l_player_move_jump_00104:
1238  0265  21 08 00    	ld	hl, +(_spr_speed + 0x0008)
1239  0268  36 04       	ld	(hl),0x04
1240  026A              l_player_move_jump_00108:
1241  026A  2A 00 00    	ld	hl,(_player_vel_y)
1242  026D  ED 5B 00 00 	ld	de,(_game_gravity)
1243  0271  19          	add	hl,de
1244  0272  22 00 00    	ld	(_player_vel_y),hl
1245  0275  3A 08 00    	ld	a,(_state + 0x0008)
1246  0278  E6 EF       	and	a,0xef
1247  027A  32 08 00    	ld	((_state + 0x0008)),a
1248  027D  21 64 00    	ld	hl,0x0064
1249  0280  E5          	push	hl
1250  0281  2A 00 00    	ld	hl,(_player_vel_y)
1251  0284  E5          	push	hl
1252  0285  CD 00 00    	call	__divsint_callee
1253  0288  4D          	ld	c, l
1254  0289  44          	ld	b, h
1255  028A  CB 41       	bit	0,c
1256  028C  21 00 00    	ld	hl,_s_lin1
1257  028F  71          	ld	(hl),c
1258  0290  28 04       	jr	Z,l_player_move_jump_00110
1259  0292  21 00 00    	ld	hl,_s_lin1
1260  0295  35          	dec	(hl)
1261  0296              l_player_move_jump_00110:
1262  0296  3A 08 00    	ld	a,(_lin + 0x0008)
1263  0299  21 00 00    	ld	hl,_s_lin1
1264  029C  86          	add	a, (hl)
1265  029D  77          	ld	(hl), a
1266  029E  AF          	xor	a, a
1267  029F  B9          	cp	a, c
1268  02A0  98          	sbc	a, b
1269  02A1  E2 A6 02    	jp	PO, l_player_move_jump_00204
1270  02A4  EE 80       	xor	a,0x80
1271  02A6              l_player_move_jump_00204:
1272  02A6  FA EA 02    	jp	M, l_player_move_jump_00129
1273  02A9  CD 00 00    	call	_spr_set_up
1274  02AC  21 08 00    	ld	hl,+(_col + 0x0008)
1275  02AF  46          	ld	b, (hl)
1276  02B0  3A 00 00    	ld	a,(_s_lin1)
1277  02B3  4F          	ld	c,a
1278  02B4  C5          	push	bc
1279  02B5  CD 3E 0B    	call	_player_check_ceil
1280  02B8  F1          	pop	af
1281  02B9  DD 75 FF    	ld	(ix-1),l
1282  02BC  7D          	ld	a, l
1283  02BD  B7          	or	a, a
1284  02BE  20 1B       	jr	NZ,l_player_move_jump_00112
1285  02C0  21 00 00    	ld	hl,0x0000
1286  02C3  22 00 00    	ld	(_player_vel_y),hl
1287  02C6  3A 08 00    	ld	a,(_state + 0x0008)
1288  02C9  DD 77 FF    	ld	(ix-1),a
1289  02CC  4F          	ld	c, a
1290  02CD  CB 91       	res	2, c
1291  02CF  21 08 00    	ld	hl, +(_state + 0x0008)
1292  02D2  71          	ld	(hl), c
1293  02D3  CB 99       	res	3, c
1294  02D5  71          	ld	(hl), c
1295  02D6  CB 81       	res	0, c
1296  02D8  71          	ld	(hl), c
1297  02D9  18 06       	jr	l_player_move_jump_00113
1298  02DB              l_player_move_jump_00112:
1299  02DB  3A 00 00    	ld	a,(_s_lin1)
1300  02DE  32 08 00    	ld	((_lin + 0x0008)),a
1301  02E1              l_player_move_jump_00113:
1302  02E1  3A 00 00    	ld	a,(_s_lin1)
1303  02E4  32 00 00    	ld	(_player_jump_top),a
1304  02E7  C3 98 03    	jp	l_player_move_jump_00130
1305  02EA              l_player_move_jump_00129:
1306  02EA  3E 70       	ld	a,0x70
1307  02EC  21 00 00    	ld	hl,_s_lin1
1308  02EF  96          	sub	a, (hl)
1309  02F0  30 18       	jr	NC,l_player_move_jump_00118
1310  02F2  3E C8       	ld	a,0xc8
1311  02F4  96          	sub	a, (hl)
1312  02F5  30 07       	jr	NC,l_player_move_jump_00115
1313  02F7  21 00 00    	ld	hl,_v0
1314  02FA  36 00       	ld	(hl),0x00
1315  02FC  18 19       	jr	l_player_move_jump_00119
1316  02FE              l_player_move_jump_00115:
1317  02FE  21 00 00    	ld	hl,_v0
1318  0301  36 70       	ld	(hl),0x70
1319  0303  21 00 00    	ld	hl,_s_lin1
1320  0306  36 70       	ld	(hl),0x70
1321  0308  18 0D       	jr	l_player_move_jump_00119
1322  030A              l_player_move_jump_00118:
1323  030A  CD E0 0C    	call	_player_get_floor
1324  030D  DD 74 FE    	ld	(ix-2),h
1325  0310  DD 75 FD    	ld	(ix-3),l
1326  0313  7D          	ld	a, l
1327  0314  32 00 00    	ld	(_v0),a
1328  0317              l_player_move_jump_00119:
1329  0317  3A 00 00    	ld	a,(_s_lin1)
1330  031A  21 00 00    	ld	hl,_v0
1331  031D  96          	sub	a, (hl)
1332  031E  38 6F       	jr	C,l_player_move_jump_00126
1333  0320  7E          	ld	a, (hl)
1334  0321  21 00 00    	ld	hl,_s_lin0
1335  0324  96          	sub	a, (hl)
1336  0325  38 68       	jr	C,l_player_move_jump_00126
1337  0327  3A 00 00    	ld	a,(_v0)
1338  032A  4F          	ld	c,a
1339  032B  06 00       	ld	b,0x00
1340  032D  3A 00 00    	ld	a,(_player_jump_top)
1341  0330  5F          	ld	e,a
1342  0331  16 00       	ld	d,0x00
1343  0333  79          	ld	a, c
1344  0334  93          	sub	a, e
1345  0335  4F          	ld	c, a
1346  0336  78          	ld	a, b
1347  0337  9A          	sbc	a, d
1348  0338  47          	ld	b, a
1349  0339  79          	ld	a, c
1350  033A  D6 28       	sub	a,0x28
1351  033C  78          	ld	a, b
1352  033D  17          	rla
1353  033E  3F          	ccf
1354  033F  1F          	rra
1355  0340  DE 80       	sbc	a,0x80
1356  0342  38 08       	jr	C,l_player_move_jump_00121
1357  0344  3A 08 00    	ld	a,(_state + 0x0008)
1358  0347  F6 20       	or	a,0x20
1359  0349  32 08 00    	ld	((_state + 0x0008)),a
1360  034C              l_player_move_jump_00121:
1361  034C  3A 00 00    	ld	a,(_v0)
1362  034F  32 08 00    	ld	((_lin + 0x0008)),a
1363  0352  21 00 00    	ld	hl,0x0000
1364  0355  22 00 00    	ld	(_player_vel_y),hl
1365  0358  3A 08 00    	ld	a,(_state + 0x0008)
1366  035B  E6 FC       	and	a,+(0xfd&0xfe)
1367  035D  32 08 00    	ld	((_state + 0x0008)),a
1368  0360  3A 00 00    	ld	a,(_player_jump_lin)
1369  0363  21 00 00    	ld	hl,_v0
1370  0366  96          	sub	a, (hl)
1371  0367  20 0C       	jr	NZ,l_player_move_jump_00123
1372  0369  3A 08 00    	ld	a,(_state_a + 0x0008)
1373  036C  CB 57       	bit	2, a
1374  036E  28 05       	jr	Z,l_player_move_jump_00123
1375  0370  E6 FE       	and	a,0xfe
1376  0372  32 08 00    	ld	((_state_a + 0x0008)),a
1377  0375              l_player_move_jump_00123:
1378  0375  3A 08 00    	ld	a,(_state_a + 0x0008)
1379  0378  E6 7B       	and	a,+(0x7f&0xfb)
1380  037A  32 08 00    	ld	((_state_a + 0x0008)),a
1381  037D  CD 7F 05    	call	_player_handle_conveyor
1382  0380  CD 00 00    	call	_ay_fx_stop
1383  0383  21 08 00    	ld	hl, +(_spr_speed + 0x0008)
1384  0386  36 04       	ld	(hl),0x04
1385  0388  CD 23 05    	call	_player_check_conveyor
1386  038B  2E 00       	ld	l,0x00
1387  038D  18 4D       	jr	l_player_move_jump_00136
1388  038F              l_player_move_jump_00126:
1389  038F  CD 00 00    	call	_spr_set_down
1390  0392  3A 00 00    	ld	a,(_s_lin1)
1391  0395  32 08 00    	ld	((_lin + 0x0008)),a
1392  0398              l_player_move_jump_00130:
1393  0398  3A 08 00    	ld	a,(_state + 0x0008)
1394  039B  CB 5F       	bit	3, a
1395  039D  20 04       	jr	NZ,l_player_move_jump_00133
1396  039F  CB 57       	bit	2, a
1397  03A1  28 37       	jr	Z,l_player_move_jump_00134
1398  03A3              l_player_move_jump_00133:
1399  03A3  3E 00       	ld	a, +((_player_jump_hor) & 0xFF)
1400  03A5  21 00 00    	ld	hl,_player_jump_count
1401  03A8  86          	add	a, (hl)
1402  03A9  DD 77 FD    	ld	(ix-3),a
1403  03AC  3E 00       	ld	a, +((_player_jump_hor) / 256)
1404  03AE  CE 00       	adc	a,0x00
1405  03B0  DD 77 FE    	ld	(ix-2),a
1406  03B3  E1          	pop	hl
1407  03B4  7E          	ld	a,(hl)
1408  03B5  E5          	push	hl
1409  03B6  DD 77 FD    	ld	(ix-3),a
1410  03B9  B7          	or	a, a
1411  03BA  28 1B       	jr	Z,l_player_move_jump_00132
1412  03BC  3A 00 00    	ld	a,(_player_vel_y)
1413  03BF  21 00 00    	ld	hl,_game_gravity
1414  03C2  96          	sub	a, (hl)
1415  03C3  21 00 00    	ld	hl,_player_vel_y
1416  03C6  77          	ld	(hl), a
1417  03C7  23          	inc	hl
1418  03C8  7E          	ld	a, (hl)
1419  03C9  21 01 00    	ld	hl,_game_gravity + 1
1420  03CC  9E          	sbc	a, (hl)
1421  03CD  32 01 00    	ld	(_player_vel_y + 1),a
1422  03D0  CD 00 00    	call	_spr_move_horizontal
1423  03D3  2E 00       	ld	l,0x00
1424  03D5  18 05       	jr	l_player_move_jump_00136
1425  03D7              l_player_move_jump_00132:
1426  03D7  CD 00 00    	call	_spr_move_horizontal
1427  03DA              l_player_move_jump_00134:
1428  03DA  2E 01       	ld	l,0x01
1429  03DC              l_player_move_jump_00136:
1430  03DC  DD F9       	ld	sp, ix
1431  03DE  DD E1       	pop	ix
1432  03E0  C9          	ret
1433  03E1              	SECTION code_compiler
1434  03E1              ;	---------------------------------
1435  03E1              ; Function player_move_walk
1436  03E1              ; ---------------------------------
1437  03E1              _player_move_walk:
1438  03E1  CD 84 08    	call	_player_check_input
1439  03E4  7D          	ld	a, l
1440  03E5  B7          	or	a, a
1441  03E6  28 5C       	jr	Z,l_player_move_walk_00117
1442  03E8  21 00 00    	ld	hl,_dirs
1443  03EB  CB 7E       	bit	7, (hl)
1444  03ED  28 0E       	jr	Z,l_player_move_walk_00104
1445  03EF  CD B7 05    	call	_player_new_jump
1446  03F2  7D          	ld	a, l
1447  03F3  B7          	or	a, a
1448  03F4  28 03       	jr	Z,l_player_move_walk_00102
1449  03F6  CD 00 00    	call	_spr_move_horizontal
1450  03F9              l_player_move_walk_00102:
1451  03F9  2E 01       	ld	l,0x01
1452  03FB  18 5D       	jr	l_player_move_walk_00119
1453  03FD              l_player_move_walk_00104:
1454  03FD  11 08 00    	ld	de,_state_a+8
1455  0400  1A          	ld	a, (de)
1456  0401  E6 FD       	and	a,0xfd
1457  0403  12          	ld	(de), a
1458  0404  01 08 00    	ld	bc,_state+8
1459  0407  0A          	ld	a, (bc)
1460  0408  CB 67       	bit	4, a
1461  040A  20 07       	jr	NZ,l_player_move_walk_00106
1462  040C  C5          	push	bc
1463  040D  D5          	push	de
1464  040E  CD B3 04    	call	_player_handle_walk
1465  0411  D1          	pop	de
1466  0412  C1          	pop	bc
1467  0413              l_player_move_walk_00106:
1468  0413  1A          	ld	a, (de)
1469  0414  0F          	rrca
1470  0415  38 05       	jr	C,l_player_move_walk_00112
1471  0417  CD 7F 05    	call	_player_handle_conveyor
1472  041A  18 1E       	jr	l_player_move_walk_00113
1473  041C              l_player_move_walk_00112:
1474  041C  21 00 00    	ld	hl,_dirs
1475  041F  CB 5E       	bit	3, (hl)
1476  0421  28 04       	jr	Z,l_player_move_walk_00108
1477  0423  0A          	ld	a, (bc)
1478  0424  F6 04       	or	a,0x04
1479  0426  02          	ld	(bc), a
1480  0427              l_player_move_walk_00108:
1481  0427  21 00 00    	ld	hl,_dirs
1482  042A  CB 56       	bit	2, (hl)
1483  042C  28 04       	jr	Z,l_player_move_walk_00110
1484  042E  0A          	ld	a, (bc)
1485  042F  F6 08       	or	a,0x08
1486  0431  02          	ld	(bc), a
1487  0432              l_player_move_walk_00110:
1488  0432  21 08 04    	ld	hl,0x0408
1489  0435  E5          	push	hl
1490  0436  CD A7 08    	call	_player_tile
1491  0439  F1          	pop	af
1492  043A              l_player_move_walk_00113:
1493  043A  CD EB 04    	call	_player_handle_fall
1494  043D  CD 00 00    	call	_spr_move_horizontal
1495  0440  2E 01       	ld	l,0x01
1496  0442  18 16       	jr	l_player_move_walk_00119
1497  0444              l_player_move_walk_00117:
1498  0444  01 08 00    	ld	bc,_state_a+8
1499  0447  0A          	ld	a, (bc)
1500  0448  E6 FD       	and	a,0xfd
1501  044A  02          	ld	(bc), a
1502  044B  CD 7F 05    	call	_player_handle_conveyor
1503  044E  7D          	ld	a, l
1504  044F  B7          	or	a, a
1505  0450  28 03       	jr	Z,l_player_move_walk_00115
1506  0452  CD 00 00    	call	_spr_move_horizontal
1507  0455              l_player_move_walk_00115:
1508  0455  CD EB 04    	call	_player_handle_fall
1509  0458  2E 00       	ld	l,0x00
1510  045A              l_player_move_walk_00119:
1511  045A  C9          	ret
1512  045B              	SECTION code_compiler
1513  045B              ;	---------------------------------
1514  045B              ; Function player_handle_lock
1515  045B              ; ---------------------------------
1516  045B              _player_handle_lock:
1517  045B  3A 08 00    	ld	a,(_state + 0x0008)
1518  045E  CB 67       	bit	4, a
1519  0460  20 49       	jr	NZ,l_player_handle_lock_00116
1520  0462  3A 00 00    	ld	a,(_dirs)
1521  0465  B7          	or	a, a
1522  0466  20 09       	jr	NZ,l_player_handle_lock_00113
1523  0468  01 08 00    	ld	bc,_state_a+8
1524  046B  0A          	ld	a, (bc)
1525  046C  E6 FE       	and	a,0xfe
1526  046E  02          	ld	(bc), a
1527  046F  18 41       	jr	l_player_handle_lock_00118
1528  0471              l_player_handle_lock_00113:
1529  0471  21 00 00    	ld	hl,_dirs
1530  0474  CB 56       	bit	2,(hl)
1531  0476  20 04       	jr	NZ,l_player_handle_lock_00108
1532  0478  CB 5E       	bit	3, (hl)
1533  047A  28 0F       	jr	Z,l_player_handle_lock_00109
1534  047C              l_player_handle_lock_00108:
1535  047C  01 08 00    	ld	bc,_state_a+8
1536  047F  0A          	ld	a, (bc)
1537  0480  F6 01       	or	a,0x01
1538  0482  02          	ld	(bc), a
1539  0483  3A 00 00    	ld	a,(_dirs)
1540  0486  32 00 00    	ld	(_dirs_last),a
1541  0489  18 27       	jr	l_player_handle_lock_00118
1542  048B              l_player_handle_lock_00109:
1543  048B  21 00 00    	ld	hl,_dirs
1544  048E  CB 7E       	bit	7, (hl)
1545  0490  28 10       	jr	Z,l_player_handle_lock_00105
1546  0492  21 00 00    	ld	hl,_dirs_last
1547  0495  CB 7E       	bit	7, (hl)
1548  0497  28 09       	jr	Z,l_player_handle_lock_00105
1549  0499  01 08 00    	ld	bc,_state_a+8
1550  049C  0A          	ld	a, (bc)
1551  049D  F6 01       	or	a,0x01
1552  049F  02          	ld	(bc), a
1553  04A0  18 10       	jr	l_player_handle_lock_00118
1554  04A2              l_player_handle_lock_00105:
1555  04A2  01 08 00    	ld	bc,_state_a+8
1556  04A5  0A          	ld	a, (bc)
1557  04A6  E6 FE       	and	a,0xfe
1558  04A8  02          	ld	(bc), a
1559  04A9  18 07       	jr	l_player_handle_lock_00118
1560  04AB              l_player_handle_lock_00116:
1561  04AB  01 08 00    	ld	bc,_state_a+8
1562  04AE  0A          	ld	a, (bc)
1563  04AF  E6 FE       	and	a,0xfe
1564  04B1  02          	ld	(bc), a
1565  04B2              l_player_handle_lock_00118:
1566  04B2  C9          	ret
1567  04B3              	SECTION code_compiler
1568  04B3              ;	---------------------------------
1569  04B3              ; Function player_handle_walk
1570  04B3              ; ---------------------------------
1571  04B3              _player_handle_walk:
1572  04B3  21 00 00    	ld	hl,_dirs
1573  04B6  CB 5E       	bit	3, (hl)
1574  04B8  28 11       	jr	Z,l_player_handle_walk_00104
1575  04BA  3A 08 00    	ld	a,(_state_a + 0x0008)
1576  04BD  CB 5F       	bit	3, a
1577  04BF  28 07       	jr	Z,l_player_handle_walk_00102
1578  04C1  01 08 00    	ld	bc,_colint+8
1579  04C4  0A          	ld	a, (bc)
1580  04C5  C6 FF       	add	a,0xff
1581  04C7  02          	ld	(bc), a
1582  04C8              l_player_handle_walk_00102:
1583  04C8  CD 00 00    	call	_spr_set_right
1584  04CB              l_player_handle_walk_00104:
1585  04CB  21 00 00    	ld	hl,_dirs
1586  04CE  CB 56       	bit	2, (hl)
1587  04D0  28 10       	jr	Z,l_player_handle_walk_00108
1588  04D2  3A 08 00    	ld	a,(_state_a + 0x0008)
1589  04D5  CB 67       	bit	4, a
1590  04D7  28 06       	jr	Z,l_player_handle_walk_00106
1591  04D9  01 08 00    	ld	bc,_colint+8
1592  04DC  0A          	ld	a, (bc)
1593  04DD  3C          	inc	a
1594  04DE  02          	ld	(bc), a
1595  04DF              l_player_handle_walk_00106:
1596  04DF  CD 00 00    	call	_spr_set_left
1597  04E2              l_player_handle_walk_00108:
1598  04E2  21 08 04    	ld	hl,0x0408
1599  04E5  E5          	push	hl
1600  04E6  CD A7 08    	call	_player_tile
1601  04E9  F1          	pop	af
1602  04EA  C9          	ret
1603  04EB              	SECTION code_compiler
1604  04EB              ;	---------------------------------
1605  04EB              ; Function player_handle_fall
1606  04EB              ; ---------------------------------
1607  04EB              _player_handle_fall:
1608  04EB  AF          	xor	a, a
1609  04EC  F5          	push	af
1610  04ED  33          	inc	sp
1611  04EE  CD 68 0C    	call	_player_check_floor
1612  04F1  33          	inc	sp
1613  04F2  7D          	ld	a, l
1614  04F3  B7          	or	a, a
1615  04F4  C8          	ret	Z
1616  04F5  3E 01       	ld	a,0x01
1617  04F7  F5          	push	af
1618  04F8  33          	inc	sp
1619  04F9  CD 68 0C    	call	_player_check_floor
1620  04FC  33          	inc	sp
1621  04FD  7D          	ld	a, l
1622  04FE  B7          	or	a, a
1623  04FF  C8          	ret	Z
1624  0500  3A 08 00    	ld	a,(_lin + 0x0008)
1625  0503  32 00 00    	ld	(_player_jump_top),a
1626  0506  01 08 00    	ld	bc,_state+8
1627  0509  0A          	ld	a, (bc)
1628  050A  F6 02       	or	a,0x02
1629  050C  E6 F3       	and	a,+(0xf7&0xfb)
1630  050E  02          	ld	(bc),a
1631  050F  01 08 00    	ld	bc,_state_a+8
1632  0512  0A          	ld	a, (bc)
1633  0513  E6 FC       	and	a,+(0xfe&0xfd)
1634  0515  02          	ld	(bc),a
1635  0516  21 00 00    	ld	hl,_player_jump_count
1636  0519  36 FF       	ld	(hl),0xff
1637  051B  21 00 00    	ld	hl,_player_fall_start
1638  051E  36 01       	ld	(hl),0x01
1639  0520  C3 00 00    	jp  _audio_fall
1640  0523              	SECTION code_compiler
1641  0523              ;	---------------------------------
1642  0523              ; Function player_check_conveyor
1643  0523              ; ---------------------------------
1644  0523              _player_check_conveyor:
1645  0523  3A 08 00    	ld	a,(_state_a + 0x0008)
1646  0526  0F          	rrca
1647  0527  D8          	ret	C
1648  0528  C3 2B 05    	jp  _player_check_conveyor_int
1649  052B              	SECTION code_compiler
1650  052B              ;	---------------------------------
1651  052B              ; Function player_check_conveyor_int
1652  052B              ; ---------------------------------
1653  052B              _player_check_conveyor_int:
1654  052B  21 08 00    	ld	hl,+(_col + 0x0008)
1655  052E  56          	ld	d, (hl)
1656  052F  3A 08 00    	ld	a,(_lin + 0x0008)
1657  0532  C6 10       	add	a,0x10
1658  0534  5F          	ld	e, a
1659  0535  D5          	push	de
1660  0536  CD 00 00    	call	_spr_calc_index
1661  0539  F1          	pop	af
1662  053A  22 00 00    	ld	(_index1),hl
1663  053D  01 00 00    	ld	bc,_tile_class+0
1664  0540  11 00 00    	ld	de,_scr_map
1665  0543  2A 00 00    	ld	hl,(_index1)
1666  0546  19          	add	hl,de
1667  0547  6E          	ld	l,(hl)
1668  0548  26 00       	ld	h,0x00
1669  054A  09          	add	hl, bc
1670  054B  7E          	ld	a, (hl)
1671  054C  32 00 00    	ld	(_v0),a
1672  054F  ED 5B 00 00 	ld	de,(_index1)
1673  0553  13          	inc	de
1674  0554  21 00 00    	ld	hl,_scr_map
1675  0557  19          	add	hl, de
1676  0558  6E          	ld	l, (hl)
1677  0559  26 00       	ld	h,0x00
1678  055B  09          	add	hl, bc
1679  055C  7E          	ld	a, (hl)
1680  055D  32 00 00    	ld	(_v1),a
1681  0560  3A 00 00    	ld	a,(_v0)
1682  0563  D6 04       	sub	a,0x04
1683  0565  28 07       	jr	Z,l_player_check_conveyor_int_00101
1684  0567  3A 00 00    	ld	a,(_v1)
1685  056A  D6 04       	sub	a,0x04
1686  056C  20 09       	jr	NZ,l_player_check_conveyor_int_00102
1687  056E              l_player_check_conveyor_int_00101:
1688  056E  01 08 00    	ld	bc,_state+8
1689  0571  0A          	ld	a, (bc)
1690  0572  F6 10       	or	a,0x10
1691  0574  02          	ld	(bc), a
1692  0575  18 07       	jr	l_player_check_conveyor_int_00105
1693  0577              l_player_check_conveyor_int_00102:
1694  0577  01 08 00    	ld	bc,_state+8
1695  057A  0A          	ld	a, (bc)
1696  057B  E6 EF       	and	a,0xef
1697  057D  02          	ld	(bc), a
1698  057E              l_player_check_conveyor_int_00105:
1699  057E  C9          	ret
1700  057F              	SECTION code_compiler
1701  057F              ;	---------------------------------
1702  057F              ; Function player_handle_conveyor
1703  057F              ; ---------------------------------
1704  057F              _player_handle_conveyor:
1705  057F  CD 23 05    	call	_player_check_conveyor
1706  0582  3A 08 00    	ld	a,(_state + 0x0008)
1707  0585  CB 67       	bit	4, a
1708  0587  28 2B       	jr	Z,l_player_handle_conveyor_00106
1709  0589  3A 00 00    	ld	a,(_game_conveyor_dir)
1710  058C  D6 02       	sub	a,0x02
1711  058E  20 0F       	jr	NZ,l_player_handle_conveyor_00102
1712  0590  CD 00 00    	call	_spr_set_right
1713  0593  21 08 04    	ld	hl,0x0408
1714  0596  E5          	push	hl
1715  0597  CD A7 08    	call	_player_tile
1716  059A  F1          	pop	af
1717  059B  2E 01       	ld	l,0x01
1718  059D  18 17       	jr	l_player_handle_conveyor_00107
1719  059F              l_player_handle_conveyor_00102:
1720  059F  3A 00 00    	ld	a,(_game_conveyor_dir)
1721  05A2  3D          	dec	a
1722  05A3  20 0F       	jr	NZ,l_player_handle_conveyor_00106
1723  05A5  CD 00 00    	call	_spr_set_left
1724  05A8  21 08 04    	ld	hl,0x0408
1725  05AB  E5          	push	hl
1726  05AC  CD A7 08    	call	_player_tile
1727  05AF  F1          	pop	af
1728  05B0  2E 01       	ld	l,0x01
1729  05B2  18 02       	jr	l_player_handle_conveyor_00107
1730  05B4              l_player_handle_conveyor_00106:
1731  05B4  2E 00       	ld	l,0x00
1732  05B6              l_player_handle_conveyor_00107:
1733  05B6  C9          	ret
1734  05B7              	SECTION code_compiler
1735  05B7              ;	---------------------------------
1736  05B7              ; Function player_new_jump
1737  05B7              ; ---------------------------------
1738  05B7              _player_new_jump:
1739  05B7  21 08 00    	ld	hl,+(_col + 0x0008)
1740  05BA  56          	ld	d, (hl)
1741  05BB  21 08 00    	ld	hl,+(_lin + 0x0008)
1742  05BE  46          	ld	b, (hl)
1743  05BF  05          	dec	b
1744  05C0  05          	dec	b
1745  05C1  58          	ld	e,b
1746  05C2  D5          	push	de
1747  05C3  CD 3E 0B    	call	_player_check_ceil
1748  05C6  F1          	pop	af
1749  05C7  7D          	ld	a, l
1750  05C8  B7          	or	a, a
1751  05C9  CA B4 06    	jp	Z, l_player_new_jump_00128
1752  05CC  21 08 00    	ld	hl,+(_state_a + 0x0008)
1753  05CF  4E          	ld	c, (hl)
1754  05D0  CB 49       	bit	1, c
1755  05D2  20 08       	jr	NZ,l_player_new_jump_00102
1756  05D4  3A 00 00    	ld	a,(_dirs)
1757  05D7  32 00 00    	ld	(_dirs_last),a
1758  05DA  18 0B       	jr	l_player_new_jump_00103
1759  05DC              l_player_new_jump_00102:
1760  05DC  21 00 00    	ld	hl,_dirs_last
1761  05DF  36 00       	ld	(hl),0x00
1762  05E1  CB 81       	res	0, c
1763  05E3  21 08 00    	ld	hl, +(_state_a + 0x0008)
1764  05E6  71          	ld	(hl), c
1765  05E7              l_player_new_jump_00103:
1766  05E7  3A 08 00    	ld	a,(_state_a + 0x0008)
1767  05EA  E6 FB       	and	a,0xfb
1768  05EC  F6 80       	or	a,0x80
1769  05EE  32 08 00    	ld	((_state_a + 0x0008)),a
1770  05F1  21 64 00    	ld	hl,0x0064
1771  05F4  22 00 00    	ld	(_game_gravity),hl
1772  05F7  21 A8 FD    	ld	hl,0xfda8
1773  05FA  22 00 00    	ld	(_player_vel_y0),hl
1774  05FD  21 00 00    	ld	hl,_player_vel_inc
1775  0600  36 01       	ld	(hl),0x01
1776  0602  21 00 00    	ld	hl,_player_jump_count
1777  0605  36 FF       	ld	(hl),0xff
1778  0607  3A 00 00    	ld	a,(_s_lin0)
1779  060A  32 00 00    	ld	(_player_jump_lin),a
1780  060D  CD 00 00    	call	_audio_jump
1781  0610  CD 00 00    	call	_spr_set_up
1782  0613  2A 00 00    	ld	hl,(_player_vel_y0)
1783  0616  22 00 00    	ld	(_player_vel_y),hl
1784  0619  3A 08 00    	ld	a,(_state_a + 0x0008)
1785  061C  E6 FB       	and	a,0xfb
1786  061E  32 08 00    	ld	((_state_a + 0x0008)),a
1787  0621  CD 23 05    	call	_player_check_conveyor
1788  0624  2A 08 00    	ld	hl,(_state + 0x0008)
1789  0627  5D          	ld	e, l
1790  0628  CB 9B       	res	3, e
1791  062A  4B          	ld	c, e
1792  062B  CB 91       	res	2, c
1793  062D  CB 65       	bit	4, l
1794  062F  28 43       	jr	Z,l_player_new_jump_00122
1795  0631  3A 08 00    	ld	a,(_state_a + 0x0008)
1796  0634  CB 47       	bit	0, a
1797  0636  28 2F       	jr	Z,l_player_new_jump_00115
1798  0638  21 00 00    	ld	hl,_dirs
1799  063B  CB 56       	bit	2,(hl)
1800  063D  20 12       	jr	NZ,l_player_new_jump_00108
1801  063F  CB 5E       	bit	3, (hl)
1802  0641  20 0E       	jr	NZ,l_player_new_jump_00108
1803  0643  CB 4F       	bit	1, a
1804  0645  20 07       	jr	NZ,l_player_new_jump_00105
1805  0647  21 08 00    	ld	hl, +(_state + 0x0008)
1806  064A  73          	ld	(hl), e
1807  064B  71          	ld	(hl), c
1808  064C  18 03       	jr	l_player_new_jump_00108
1809  064E              l_player_new_jump_00105:
1810  064E  CD 7F 05    	call	_player_handle_conveyor
1811  0651              l_player_new_jump_00108:
1812  0651  21 00 00    	ld	hl,_dirs
1813  0654  CB 56       	bit	2, (hl)
1814  0656  28 03       	jr	Z,l_player_new_jump_00111
1815  0658  CD 00 00    	call	_spr_set_left
1816  065B              l_player_new_jump_00111:
1817  065B  21 00 00    	ld	hl,_dirs
1818  065E  CB 5E       	bit	3, (hl)
1819  0660  28 08       	jr	Z,l_player_new_jump_00116
1820  0662  CD 00 00    	call	_spr_set_right
1821  0665  18 03       	jr	l_player_new_jump_00116
1822  0667              l_player_new_jump_00115:
1823  0667  CD 7F 05    	call	_player_handle_conveyor
1824  066A              l_player_new_jump_00116:
1825  066A  3A 08 00    	ld	a,(_state_a + 0x0008)
1826  066D  F6 02       	or	a,0x02
1827  066F  32 08 00    	ld	((_state_a + 0x0008)),a
1828  0672  18 21       	jr	l_player_new_jump_00123
1829  0674              l_player_new_jump_00122:
1830  0674  21 08 00    	ld	hl, +(_state + 0x0008)
1831  0677  73          	ld	(hl), e
1832  0678  71          	ld	(hl), c
1833  0679  3A 08 00    	ld	a,(_state_a + 0x0008)
1834  067C  E6 FD       	and	a,0xfd
1835  067E  32 08 00    	ld	((_state_a + 0x0008)),a
1836  0681  21 00 00    	ld	hl,_dirs
1837  0684  CB 56       	bit	2, (hl)
1838  0686  28 03       	jr	Z,l_player_new_jump_00118
1839  0688  CD 00 00    	call	_spr_set_left
1840  068B              l_player_new_jump_00118:
1841  068B  21 00 00    	ld	hl,_dirs
1842  068E  CB 5E       	bit	3, (hl)
1843  0690  28 03       	jr	Z,l_player_new_jump_00123
1844  0692  CD 00 00    	call	_spr_set_right
1845  0695              l_player_new_jump_00123:
1846  0695  3A 08 00    	ld	a,(_state + 0x0008)
1847  0698  CB 5F       	bit	3, a
1848  069A  20 0C       	jr	NZ,l_player_new_jump_00125
1849  069C  CB 57       	bit	2, a
1850  069E  20 08       	jr	NZ,l_player_new_jump_00125
1851  06A0  3A 08 00    	ld	a,(_state_a + 0x0008)
1852  06A3  F6 04       	or	a,0x04
1853  06A5  32 08 00    	ld	((_state_a + 0x0008)),a
1854  06A8              l_player_new_jump_00125:
1855  06A8  21 08 04    	ld	hl,0x0408
1856  06AB  E5          	push	hl
1857  06AC  CD A7 08    	call	_player_tile
1858  06AF  F1          	pop	af
1859  06B0  2E 01       	ld	l,0x01
1860  06B2  18 08       	jr	l_player_new_jump_00130
1861  06B4              l_player_new_jump_00128:
1862  06B4  CD 00 00    	call	_spr_move_horizontal
1863  06B7  CD EB 04    	call	_player_handle_fall
1864  06BA  2E 00       	ld	l,0x00
1865  06BC              l_player_new_jump_00130:
1866  06BC  C9          	ret
1867  06BD              	SECTION code_compiler
1868  06BD              ;	---------------------------------
1869  06BD              ; Function player_collision
1870  06BD              ; ---------------------------------
1871  06BD              _player_collision:
1872  06BD  21 08 00    	ld	hl,+(_col + 0x0008)
1873  06C0  56          	ld	d, (hl)
1874  06C1  21 08 00    	ld	hl,+(_lin + 0x0008)
1875  06C4  5E          	ld	e, (hl)
1876  06C5  D5          	push	de
1877  06C6  CD 00 00    	call	_spr_calc_index
1878  06C9  F1          	pop	af
1879  06CA  22 00 00    	ld	(_index1),hl
1880  06CD  CD 55 08    	call	_player_pick
1881  06D0  21 08 00    	ld	hl,+(_col + 0x0008)
1882  06D3  56          	ld	d, (hl)
1883  06D4  3A 08 00    	ld	a,(_lin + 0x0008)
1884  06D7  C6 0E       	add	a,0x0e
1885  06D9  5F          	ld	e, a
1886  06DA  D5          	push	de
1887  06DB  CD 00 00    	call	_spr_calc_index
1888  06DE  F1          	pop	af
1889  06DF  22 00 00    	ld	(_index1),hl
1890  06E2  CD 55 08    	call	_player_pick
1891  06E5  21 08 00    	ld	hl,+(_col + 0x0008)
1892  06E8  56          	ld	d, (hl)
1893  06E9  14          	inc	d
1894  06EA  21 08 00    	ld	hl,+(_lin + 0x0008)
1895  06ED  5E          	ld	e, (hl)
1896  06EE  D5          	push	de
1897  06EF  CD 00 00    	call	_spr_calc_index
1898  06F2  F1          	pop	af
1899  06F3  22 00 00    	ld	(_index1),hl
1900  06F6  CD 55 08    	call	_player_pick
1901  06F9  21 08 00    	ld	hl,+(_col + 0x0008)
1902  06FC  56          	ld	d, (hl)
1903  06FD  14          	inc	d
1904  06FE  3A 08 00    	ld	a,(_lin + 0x0008)
1905  0701  C6 0E       	add	a,0x0e
1906  0703  5F          	ld	e, a
1907  0704  D5          	push	de
1908  0705  CD 00 00    	call	_spr_calc_index
1909  0708  F1          	pop	af
1910  0709  22 00 00    	ld	(_index1),hl
1911  070C  CD 55 08    	call	_player_pick
1912  070F  21 00 00    	ld	hl,_i
1913  0712  36 00       	ld	(hl),0x00
1914  0714              l_player_collision_00139:
1915  0714  2A 00 00    	ld	hl,(_i)
1916  0717  26 00       	ld	h,0x00
1917  0719  01 00 00    	ld	bc,_class
1918  071C  09          	add	hl,bc
1919  071D  7E          	ld	a,(hl)
1920  071E  B7          	or	a,a
1921  071F  CA 49 08    	jp	Z,l_player_collision_00140
1922  0722  2A 00 00    	ld	hl,(_i)
1923  0725  26 00       	ld	h,0x00
1924  0727  01 00 00    	ld	bc,_col
1925  072A  09          	add	hl,bc
1926  072B  4E          	ld	c, (hl)
1927  072C  06 00       	ld	b,0x00
1928  072E  ED 5B 08 00 	ld	de,(_col + 0x0008)
1929  0732  50          	ld	d,b
1930  0733  79          	ld	a, c
1931  0734  93          	sub	a, e
1932  0735  6F          	ld	l, a
1933  0736  78          	ld	a, b
1934  0737  9A          	sbc	a, d
1935  0738  67          	ld	h, a
1936  0739  CD 00 00    	call	_abs_fastcall
1937  073C  7D          	ld	a,l
1938  073D  32 00 00    	ld	(_v0),a
1939  0740  3D          	dec	a
1940  0741  20 75       	jr	NZ,l_player_collision_00120
1941  0743  2A 00 00    	ld	hl,(_i)
1942  0746  26 00       	ld	h,0x00
1943  0748  01 00 00    	ld	bc,_spr_kind
1944  074B  09          	add	hl,bc
1945  074C  7E          	ld	a,(hl)
1946  074D  FE 01       	cp	a,0x01
1947  074F  28 04       	jr	Z,l_player_collision_00101
1948  0751  D6 08       	sub	a,0x08
1949  0753  20 0F       	jr	NZ,l_player_collision_00102
1950  0755              l_player_collision_00101:
1951  0755  2A 00 00    	ld	hl,(_i)
1952  0758  26 00       	ld	h,0x00
1953  075A  01 00 00    	ld	bc,_colint
1954  075D  09          	add	hl,bc
1955  075E  7E          	ld	a,(hl)
1956  075F  32 00 00    	ld	(_v1),a
1957  0762  18 05       	jr	l_player_collision_00103
1958  0764              l_player_collision_00102:
1959  0764  21 00 00    	ld	hl,_v1
1960  0767  36 01       	ld	(hl),0x01
1961  0769              l_player_collision_00103:
1962  0769  21 08 00    	ld	hl,+(_colint + 0x0008)
1963  076C  4E          	ld	c, (hl)
1964  076D  3A 00 00    	ld	a,(_i)
1965  0770  C6 00       	add	a,+((_col) & 0xFF)
1966  0772  5F          	ld	e,a
1967  0773  3E 00       	ld	a,+((_col) / 256)
1968  0775  CE 00       	adc	a,0x00
1969  0777  57          	ld	d,a
1970  0778  79          	ld	a, c
1971  0779  B7          	or	a, a
1972  077A  20 1C       	jr	NZ,l_player_collision_00111
1973  077C  21 08 00    	ld	hl,+(_col + 0x0008)
1974  077F  46          	ld	b, (hl)
1975  0780  1A          	ld	a, (de)
1976  0781  6F          	ld	l, a
1977  0782  78          	ld	a, b
1978  0783  95          	sub	a, l
1979  0784  30 07       	jr	NC,l_player_collision_00108
1980  0786  21 00 00    	ld	hl,_v0
1981  0789  36 FF       	ld	(hl),0xff
1982  078B  18 0B       	jr	l_player_collision_00111
1983  078D              l_player_collision_00108:
1984  078D  3A 00 00    	ld	a,(_v1)
1985  0790  B7          	or	a, a
1986  0791  20 05       	jr	NZ,l_player_collision_00111
1987  0793  21 00 00    	ld	hl,_v0
1988  0796  36 FF       	ld	(hl),0xff
1989  0798              l_player_collision_00111:
1990  0798  79          	ld	a, c
1991  0799  D6 03       	sub	a,0x03
1992  079B  20 1B       	jr	NZ,l_player_collision_00120
1993  079D  21 08 00    	ld	hl,+(_col + 0x0008)
1994  07A0  4E          	ld	c, (hl)
1995  07A1  1A          	ld	a, (de)
1996  07A2  91          	sub	a, c
1997  07A3  30 07       	jr	NC,l_player_collision_00115
1998  07A5  21 00 00    	ld	hl,_v0
1999  07A8  36 FF       	ld	(hl),0xff
2000  07AA  18 0C       	jr	l_player_collision_00120
2001  07AC              l_player_collision_00115:
2002  07AC  3A 00 00    	ld	a,(_v1)
2003  07AF  D6 03       	sub	a,0x03
2004  07B1  20 05       	jr	NZ,l_player_collision_00120
2005  07B3  21 00 00    	ld	hl,_v0
2006  07B6  36 FF       	ld	(hl),0xff
2007  07B8              l_player_collision_00120:
2008  07B8  3A 00 00    	ld	a,(_v0)
2009  07BB  D6 02       	sub	a,0x02
2010  07BD  D2 49 08    	jp	NC, l_player_collision_00140
2011  07C0  2A 00 00    	ld	hl,(_i)
2012  07C3  26 00       	ld	h,0x00
2013  07C5  01 00 00    	ld	bc,_lin
2014  07C8  09          	add	hl,bc
2015  07C9  4E          	ld	c,(hl)
2016  07CA  06 00       	ld	b,0x00
2017  07CC  ED 5B 08 00 	ld	de,(_lin + 0x0008)
2018  07D0  50          	ld	d,b
2019  07D1  79          	ld	a, c
2020  07D2  93          	sub	a, e
2021  07D3  6F          	ld	l, a
2022  07D4  78          	ld	a, b
2023  07D5  9A          	sbc	a, d
2024  07D6  67          	ld	h, a
2025  07D7  CD 00 00    	call	_abs_fastcall
2026  07DA  7D          	ld	a,l
2027  07DB  32 00 00    	ld	(_v0),a
2028  07DE  2A 00 00    	ld	hl,(_i)
2029  07E1  26 00       	ld	h,0x00
2030  07E3  01 00 00    	ld	bc,_lin
2031  07E6  09          	add	hl,bc
2032  07E7  4E          	ld	c,(hl)
2033  07E8  21 08 00    	ld	hl,+(_lin + 0x0008)
2034  07EB  46          	ld	b, (hl)
2035  07EC  79          	ld	a, c
2036  07ED  90          	sub	a, b
2037  07EE  30 13       	jr	NC,l_player_collision_00128
2038  07F0  21 00 00    	ld	hl,_v0
2039  07F3  7E          	ld	a, (hl)
2040  07F4  D6 10       	sub	a,0x10
2041  07F6  30 04       	jr	NC,l_player_collision_00122
2042  07F8  36 01       	ld	(hl),0x01
2043  07FA  18 18       	jr	l_player_collision_00129
2044  07FC              l_player_collision_00122:
2045  07FC  21 00 00    	ld	hl,_v0
2046  07FF  36 00       	ld	(hl),0x00
2047  0801  18 11       	jr	l_player_collision_00129
2048  0803              l_player_collision_00128:
2049  0803  21 00 00    	ld	hl,_v0
2050  0806  7E          	ld	a, (hl)
2051  0807  D6 0E       	sub	a,0x0e
2052  0809  30 04       	jr	NC,l_player_collision_00125
2053  080B  36 01       	ld	(hl),0x01
2054  080D  18 05       	jr	l_player_collision_00129
2055  080F              l_player_collision_00125:
2056  080F  21 00 00    	ld	hl,_v0
2057  0812  36 00       	ld	(hl),0x00
2058  0814              l_player_collision_00129:
2059  0814  3A 00 00    	ld	a,(_v0)
2060  0817  B7          	or	a, a
2061  0818  28 2F       	jr	Z,l_player_collision_00140
2062  081A  2A 00 00    	ld	hl,(_i)
2063  081D  26 00       	ld	h,0x00
2064  081F  01 00 00    	ld	bc,_colint
2065  0822  09          	add	hl,bc
2066  0823  4E          	ld	c,(hl)
2067  0824  06 00       	ld	b,0x00
2068  0826  ED 5B 08 00 	ld	de,(_colint + 0x0008)
2069  082A  50          	ld	d,b
2070  082B  79          	ld	a, c
2071  082C  93          	sub	a, e
2072  082D  6F          	ld	l, a
2073  082E  78          	ld	a, b
2074  082F  9A          	sbc	a, d
2075  0830  67          	ld	h, a
2076  0831  CD 00 00    	call	_abs_fastcall
2077  0834  7D          	ld	a,l
2078  0835  32 00 00    	ld	(_v0),a
2079  0838  D6 02       	sub	a,0x02
2080  083A  30 0D       	jr	NC,l_player_collision_00140
2081  083C  21 FF FF    	ld	hl,0xffff
2082  083F  22 00 00    	ld	(_player_kill_index),hl
2083  0842  01 08 00    	ld	bc,_state+8
2084  0845  0A          	ld	a,(bc)
2085  0846  F6 20       	or	a,0x20
2086  0848  02          	ld	(bc), a
2087  0849              l_player_collision_00140:
2088  0849  21 00 00    	ld	hl,_i
2089  084C  7E          	ld	a,(hl)
2090  084D  3C          	inc	a
2091  084E  77          	ld	(hl),a
2092  084F  D6 08       	sub	a,0x08
2093  0851  DA 14 07    	jp	C, l_player_collision_00139
2094  0854  C9          	ret
2095  0855              	SECTION code_compiler
2096  0855              ;	---------------------------------
2097  0855              ; Function player_pick
2098  0855              ; ---------------------------------
2099  0855              _player_pick:
2100  0855  01 00 00    	ld	bc,_scr_map
2101  0858  2A 00 00    	ld	hl,(_index1)
2102  085B  09          	add	hl,bc
2103  085C  7E          	ld	a,(hl)
2104  085D  32 00 00    	ld	(_v0),a
2105  0860  F5          	push	af
2106  0861  33          	inc	sp
2107  0862  CD 6F 0A    	call	_player_pick_deadly
2108  0865  33          	inc	sp
2109  0866  7D          	ld	a,l
2110  0867  32 00 00    	ld	(_v0),a
2111  086A  2A 00 00    	ld	hl,(_index1)
2112  086D  E5          	push	hl
2113  086E  F5          	push	af
2114  086F  33          	inc	sp
2115  0870  CD 27 0A    	call	_player_pick_item
2116  0873  F1          	pop	af
2117  0874  33          	inc	sp
2118  0875  7D          	ld	a,l
2119  0876  32 00 00    	ld	(_v0),a
2120  0879  F5          	push	af
2121  087A  33          	inc	sp
2122  087B  CD A6 0A    	call	_player_pick_extra
2123  087E  33          	inc	sp
2124  087F  7D          	ld	a,l
2125  0880  32 00 00    	ld	(_v0),a
2126  0883  C9          	ret
2127  0884              	SECTION code_compiler
2128  0884              ;	---------------------------------
2129  0884              ; Function player_check_input
2130  0884              ; ---------------------------------
2131  0884              _player_check_input:
2132  0884  21 00 00    	ld	hl,_dirs
2133  0887  CB 56       	bit	2,(hl)
2134  0889  28 06       	jr	Z,l_player_check_input_00102
2135  088B  CB 5E       	bit	3,(hl)
2136  088D  28 02       	jr	Z,l_player_check_input_00102
2137  088F  36 00       	ld	(hl),0x00
2138  0891              l_player_check_input_00102:
2139  0891  21 00 00    	ld	hl,_dirs
2140  0894  CB 56       	bit	2,(hl)
2141  0896  20 08       	jr	NZ,l_player_check_input_00104
2142  0898  CB 5E       	bit	3,(hl)
2143  089A  20 04       	jr	NZ,l_player_check_input_00104
2144  089C  CB 7E       	bit	7, (hl)
2145  089E  28 04       	jr	Z,l_player_check_input_00105
2146  08A0              l_player_check_input_00104:
2147  08A0  2E 01       	ld	l,0x01
2148  08A2  18 02       	jr	l_player_check_input_00108
2149  08A4              l_player_check_input_00105:
2150  08A4  2E 00       	ld	l,0x00
2151  08A6              l_player_check_input_00108:
2152  08A6  C9          	ret
2153  08A7              	SECTION code_compiler
2154  08A7              ;	---------------------------------
2155  08A7              ; Function player_tile
2156  08A7              ; ---------------------------------
2157  08A7              _player_tile:
2158  08A7  CD 00 00    	call	___sdcc_enter_ix
2159  08AA  21 05 00    	ld	hl,0x0005
2160  08AD  39          	add	hl, sp
2161  08AE  EB          	ex	de,hl
2162  08AF  21 04 00    	ld	hl,0x0004
2163  08B2  39          	add	hl, sp
2164  08B3  D5          	push	de
2165  08B4  E5          	push	hl
2166  08B5  CD 00 00    	call	_spr_get_tile_dir
2167  08B8  F1          	pop	af
2168  08B9  F1          	pop	af
2169  08BA  7D          	ld	a,l
2170  08BB  32 08 00    	ld	((_tile + 0x0008)),a
2171  08BE  DD E1       	pop	ix
2172  08C0  C9          	ret
2173  08C1              	SECTION code_compiler
2174  08C1              ;	---------------------------------
2175  08C1              ; Function player_score_add
2176  08C1              ; ---------------------------------
2177  08C1              _player_score_add:
2178  08C1  CD 00 00    	call	___sdcc_enter_ix
2179  08C4  F5          	push	af
2180  08C5  F5          	push	af
2181  08C6  F5          	push	af
2182  08C7  F5          	push	af
2183  08C8  DD 75 F8    	ld	(ix-8),l
2184  08CB  DD 74 F9    	ld	(ix-7),h
2185  08CE  3E 00       	ld	a,0x00
2186  08D0  DD 77 FA    	ld	(ix-6),a
2187  08D3  DD 77 FB    	ld	(ix-5),a
2188  08D6  DD 77 FC    	ld	(ix-4),a
2189  08D9  DD 77 FD    	ld	(ix-3),a
2190  08DC  DD 36 FE 00 	ld	(ix-2),0x00
2191  08E0  DD 36 FF 00 	ld	(ix-1),0x00
2192  08E4  2A 00 00    	ld	hl,(_player_score)
2193  08E7  DD 5E F8    	ld	e,(ix-8)
2194  08EA  DD 56 F9    	ld	d,(ix-7)
2195  08ED  19          	add	hl,de
2196  08EE  22 00 00    	ld	(_player_score),hl
2197  08F1  21 02 00    	ld	hl,_player_score + 2
2198  08F4  7E          	ld	a, (hl)
2199  08F5  DD 8E FA    	adc	a,(ix-6)
2200  08F8  77          	ld	(hl), a
2201  08F9  23          	inc	hl
2202  08FA  7E          	ld	a, (hl)
2203  08FB  DD 8E FB    	adc	a,(ix-5)
2204  08FE  77          	ld	(hl), a
2205  08FF  23          	inc	hl
2206  0900  7E          	ld	a, (hl)
2207  0901  DD 8E FC    	adc	a,(ix-4)
2208  0904  77          	ld	(hl), a
2209  0905  23          	inc	hl
2210  0906  7E          	ld	a, (hl)
2211  0907  DD 8E FD    	adc	a,(ix-3)
2212  090A  77          	ld	(hl), a
2213  090B  23          	inc	hl
2214  090C  7E          	ld	a, (hl)
2215  090D  DD 8E FE    	adc	a,(ix-2)
2216  0910  77          	ld	(hl), a
2217  0911  23          	inc	hl
2218  0912  7E          	ld	a, (hl)
2219  0913  DD 8E FF    	adc	a,(ix-1)
2220  0916  77          	ld	(hl), a
2221  0917  2A 00 00    	ld	hl,(_game_score_top)
2222  091A  ED 5B 00 00 	ld	de,(_player_score)
2223  091E  AF          	xor	a,a
2224  091F  ED 52       	sbc	hl,de
2225  0921  2A 02 00    	ld	hl,(_game_score_top + 2)
2226  0924  ED 5B 02 00 	ld	de,(_player_score + 2)
2227  0928  ED 52       	sbc	hl,de
2228  092A  3A 04 00    	ld	a,(_game_score_top + 4)
2229  092D  21 04 00    	ld	hl,_player_score + 4
2230  0930  9E          	sbc	a, (hl)
2231  0931  3A 05 00    	ld	a,(_game_score_top + 5)
2232  0934  21 05 00    	ld	hl,_player_score + 5
2233  0937  9E          	sbc	a, (hl)
2234  0938  3A 06 00    	ld	a,(_game_score_top + 6)
2235  093B  21 06 00    	ld	hl,_player_score + 6
2236  093E  9E          	sbc	a, (hl)
2237  093F  3A 07 00    	ld	a,(_game_score_top + 7)
2238  0942  21 07 00    	ld	hl,_player_score + 7
2239  0945  9E          	sbc	a, (hl)
2240  0946  30 24       	jr	NC,l_player_score_add_00102
2241  0948  2A 00 00    	ld	hl,(_player_score)
2242  094B  22 00 00    	ld	(_game_score_top),hl
2243  094E  2A 02 00    	ld	hl,(_player_score + 2)
2244  0951  22 02 00    	ld	(_game_score_top + 2),hl
2245  0954  3A 04 00    	ld	a,(_player_score + 4)
2246  0957  32 04 00    	ld	(_game_score_top + 4),a
2247  095A  3A 05 00    	ld	a,(_player_score + 5)
2248  095D  32 05 00    	ld	(_game_score_top + 5),a
2249  0960  3A 06 00    	ld	a,(_player_score + 6)
2250  0963  32 06 00    	ld	(_game_score_top + 6),a
2251  0966  3A 07 00    	ld	a,(_player_score + 7)
2252  0969  32 07 00    	ld	(_game_score_top + 7),a
2253  096C              l_player_score_add_00102:
2254  096C  2A 00 00    	ld	hl,(_player_next_extra)
2255  096F  ED 5B 00 00 	ld	de,(_player_score)
2256  0973  AF          	xor	a,a
2257  0974  ED 52       	sbc	hl,de
2258  0976  2A 02 00    	ld	hl,(_player_next_extra + 2)
2259  0979  ED 5B 02 00 	ld	de,(_player_score + 2)
2260  097D  ED 52       	sbc	hl,de
2261  097F  3A 04 00    	ld	a,(_player_next_extra + 4)
2262  0982  21 04 00    	ld	hl,_player_score + 4
2263  0985  9E          	sbc	a, (hl)
2264  0986  3A 05 00    	ld	a,(_player_next_extra + 5)
2265  0989  21 05 00    	ld	hl,_player_score + 5
2266  098C  9E          	sbc	a, (hl)
2267  098D  3A 06 00    	ld	a,(_player_next_extra + 6)
2268  0990  21 06 00    	ld	hl,_player_score + 6
2269  0993  9E          	sbc	a, (hl)
2270  0994  3A 07 00    	ld	a,(_player_next_extra + 7)
2271  0997  21 07 00    	ld	hl,_player_score + 7
2272  099A  9E          	sbc	a, (hl)
2273  099B  30 33       	jr	NC,l_player_score_add_00106
2274  099D  21 00 00    	ld	hl,_player_lives
2275  09A0  7E          	ld	a, (hl)
2276  09A1  D6 FF       	sub	a,0xff
2277  09A3  30 01       	jr	NC,l_player_score_add_00104
2278  09A5  34          	inc	(hl)
2279  09A6              l_player_score_add_00104:
2280  09A6  2A 00 00    	ld	hl,(_player_next_extra)
2281  09A9  11 10 27    	ld	de,0x2710
2282  09AC  19          	add	hl,de
2283  09AD  22 00 00    	ld	(_player_next_extra),hl
2284  09B0  21 02 00    	ld	hl,_player_next_extra + 2
2285  09B3  7E          	ld	a, (hl)
2286  09B4  CE 00       	adc	a,0x00
2287  09B6  77          	ld	(hl), a
2288  09B7  23          	inc	hl
2289  09B8  7E          	ld	a, (hl)
2290  09B9  CE 00       	adc	a,0x00
2291  09BB  77          	ld	(hl), a
2292  09BC  23          	inc	hl
2293  09BD  7E          	ld	a, (hl)
2294  09BE  CE 00       	adc	a,0x00
2295  09C0  77          	ld	(hl), a
2296  09C1  23          	inc	hl
2297  09C2  7E          	ld	a, (hl)
2298  09C3  CE 00       	adc	a,0x00
2299  09C5  77          	ld	(hl), a
2300  09C6  23          	inc	hl
2301  09C7  7E          	ld	a, (hl)
2302  09C8  CE 00       	adc	a,0x00
2303  09CA  77          	ld	(hl), a
2304  09CB  23          	inc	hl
2305  09CC  7E          	ld	a, (hl)
2306  09CD  CE 00       	adc	a,0x00
2307  09CF  77          	ld	(hl), a
2308  09D0              l_player_score_add_00106:
2309  09D0  3E 40       	ld	a,0x40
2310  09D2  21 00 00    	ld	hl,_player_score
2311  09D5  BE          	cp	a, (hl)
2312  09D6  3E 42       	ld	a,0x42
2313  09D8  23          	inc	hl
2314  09D9  9E          	sbc	a, (hl)
2315  09DA  3E 0F       	ld	a,0x0f
2316  09DC  23          	inc	hl
2317  09DD  9E          	sbc	a, (hl)
2318  09DE  3E 00       	ld	a,0x00
2319  09E0  23          	inc	hl
2320  09E1  9E          	sbc	a, (hl)
2321  09E2  3E 00       	ld	a,0x00
2322  09E4  23          	inc	hl
2323  09E5  9E          	sbc	a, (hl)
2324  09E6  3E 00       	ld	a,0x00
2325  09E8  23          	inc	hl
2326  09E9  9E          	sbc	a, (hl)
2327  09EA  3E 00       	ld	a,0x00
2328  09EC  23          	inc	hl
2329  09ED  9E          	sbc	a, (hl)
2330  09EE  3E 00       	ld	a,0x00
2331  09F0  23          	inc	hl
2332  09F1  9E          	sbc	a, (hl)
2333  09F2  30 2B       	jr	NC,l_player_score_add_00108
2334  09F4  21 00 00    	ld	hl,0x0000
2335  09F7  7D          	ld	a,l
2336  09F8  22 00 00    	ld	(_player_score),hl
2337  09FB  22 02 00    	ld	(_player_score + 2),hl
2338  09FE  21 04 00    	ld	hl,_player_score + 4
2339  0A01  77          	ld	(hl), a
2340  0A02  23          	inc	hl
2341  0A03  77          	ld	(hl), a
2342  0A04  23          	inc	hl
2343  0A05  77          	ld	(hl), a
2344  0A06  23          	inc	hl
2345  0A07  77          	ld	(hl), a
2346  0A08  21 10 27    	ld	hl,0x2710
2347  0A0B  22 00 00    	ld	(_player_next_extra),hl
2348  0A0E  AF          	xor	a,a
2349  0A0F  6F          	ld	l,a
2350  0A10  67          	ld	h,a
2351  0A11  22 02 00    	ld	(_player_next_extra + 2),hl
2352  0A14  21 04 00    	ld	hl,_player_next_extra + 4
2353  0A17  77          	ld	(hl), a
2354  0A18  23          	inc	hl
2355  0A19  77          	ld	(hl), a
2356  0A1A  23          	inc	hl
2357  0A1B  AF          	xor	a, a
2358  0A1C  77          	ld	(hl), a
2359  0A1D  23          	inc	hl
2360  0A1E  77          	ld	(hl), a
2361  0A1F              l_player_score_add_00108:
2362  0A1F  CD 00 00    	call	_game_print_score
2363  0A22  DD F9       	ld	sp, ix
2364  0A24  DD E1       	pop	ix
2365  0A26  C9          	ret
2366  0A27              	SECTION code_compiler
2367  0A27              ;	---------------------------------
2368  0A27              ; Function player_pick_item
2369  0A27              ; ---------------------------------
2370  0A27              _player_pick_item:
2371  0A27  CD 00 00    	call	___sdcc_enter_ix
2372  0A2A  DD 7E 04    	ld	a,(ix+4)
2373  0A2D  D6 08       	sub	a,0x08
2374  0A2F  20 38       	jr	NZ,l_player_pick_item_00104
2375  0A31  21 64 00    	ld	hl,0x0064
2376  0A34  CD C1 08    	call	_player_score_add
2377  0A37  3E 00       	ld	a, +((_scr_map) & 0xFF)
2378  0A39  DD 86 05    	add	a,(ix+5)
2379  0A3C  4F          	ld	c, a
2380  0A3D  3E 00       	ld	a, +((_scr_map) / 256)
2381  0A3F  DD 8E 06    	adc	a,(ix+6)
2382  0A42  47          	ld	b, a
2383  0A43  AF          	xor	a, a
2384  0A44  02          	ld	(bc), a
2385  0A45  21 00 00    	ld	hl,_player_coins
2386  0A48  34          	inc	(hl)
2387  0A49  CD 00 00    	call	_audio_coin
2388  0A4C  3A 00 00    	ld	a,(_obj_count)
2389  0A4F  21 00 00    	ld	hl,_player_coins
2390  0A52  96          	sub	a, (hl)
2391  0A53  20 10       	jr	NZ,l_player_pick_item_00102
2392  0A55  CD 00 00    	call	_audio_door_open
2393  0A58  3E 80       	ld	a,0x80
2394  0A5A  F5          	push	af
2395  0A5B  33          	inc	sp
2396  0A5C  CD 00 00    	call	_game_flash_exit
2397  0A5F  33          	inc	sp
2398  0A60  21 00 00    	ld	hl,_obj_count
2399  0A63  36 FF       	ld	(hl),0xff
2400  0A65              l_player_pick_item_00102:
2401  0A65  2E 00       	ld	l,0x00
2402  0A67  18 03       	jr	l_player_pick_item_00105
2403  0A69              l_player_pick_item_00104:
2404  0A69  DD 6E 04    	ld	l,(ix+4)
2405  0A6C              l_player_pick_item_00105:
2406  0A6C  DD E1       	pop	ix
2407  0A6E  C9          	ret
2408  0A6F              	SECTION code_compiler
2409  0A6F              ;	---------------------------------
2410  0A6F              ; Function player_pick_deadly
2411  0A6F              ; ---------------------------------
2412  0A6F              _player_pick_deadly:
2413  0A6F  CD 00 00    	call	___sdcc_enter_ix
2414  0A72  3E 00       	ld	a, +((_tile_class) & 0xFF)
2415  0A74  DD 86 04    	add	a,(ix+4)
2416  0A77  4F          	ld	c, a
2417  0A78  3E 00       	ld	a, +((_tile_class) / 256)
2418  0A7A  CE 00       	adc	a,0x00
2419  0A7C  47          	ld	b, a
2420  0A7D  0A          	ld	a, (bc)
2421  0A7E  DD 77 04    	ld	(ix+4),a
2422  0A81  D6 05       	sub	a,0x05
2423  0A83  20 1B       	jr	NZ,l_player_pick_deadly_00102
2424  0A85  01 08 00    	ld	bc,_state+8
2425  0A88  0A          	ld	a, (bc)
2426  0A89  F6 20       	or	a,0x20
2427  0A8B  02          	ld	(bc), a
2428  0A8C  2A 00 00    	ld	hl,(_index1)
2429  0A8F  22 00 00    	ld	(_player_kill_index),hl
2430  0A92  21 00 00    	ld	hl,_v0
2431  0A95  36 00       	ld	(hl),0x00
2432  0A97  21 00 00    	ld	hl,_v1
2433  0A9A  36 00       	ld	(hl),0x00
2434  0A9C  2E 00       	ld	l,0x00
2435  0A9E  18 03       	jr	l_player_pick_deadly_00103
2436  0AA0              l_player_pick_deadly_00102:
2437  0AA0  DD 6E 04    	ld	l,(ix+4)
2438  0AA3              l_player_pick_deadly_00103:
2439  0AA3  DD E1       	pop	ix
2440  0AA5  C9          	ret
2441  0AA6              	SECTION code_compiler
2442  0AA6              ;	---------------------------------
2443  0AA6              ; Function player_pick_extra
2444  0AA6              ; ---------------------------------
2445  0AA6              _player_pick_extra:
2446  0AA6  CD 00 00    	call	___sdcc_enter_ix
2447  0AA9  DD 7E 04    	ld	a,(ix+4)
2448  0AAC  D6 06       	sub	a,0x06
2449  0AAE  C2 38 0B    	jp	NZ,l_player_pick_extra_00110
2450  0AB1  3A 00 00    	ld	a,(_scr_curr)
2451  0AB4  FE 07       	cp	a,0x07
2452  0AB6  28 04       	jr	Z,l_player_pick_extra_00106
2453  0AB8  D6 0B       	sub	a,0x0b
2454  0ABA  20 78       	jr	NZ,l_player_pick_extra_00107
2455  0ABC              l_player_pick_extra_00106:
2456  0ABC  01 00 00    	ld	bc,_scr_map
2457  0ABF  2A 00 00    	ld	hl,(_index1)
2458  0AC2  09          	add	hl,bc
2459  0AC3  36 08       	ld	(hl),0x08
2460  0AC5  CD 00 00    	call	_game_cell_paint_index
2461  0AC8  21 00 00    	ld	hl,_index1
2462  0ACB  7E          	ld	a, (hl)
2463  0ACC  D6 05       	sub	a,0x05
2464  0ACE  23          	inc	hl
2465  0ACF  B6          	or	a, (hl)
2466  0AD0  28 0A       	jr	Z,l_player_pick_extra_00101
2467  0AD2  21 00 00    	ld	hl,_index1
2468  0AD5  7E          	ld	a, (hl)
2469  0AD6  D6 06       	sub	a,0x06
2470  0AD8  23          	inc	hl
2471  0AD9  B6          	or	a, (hl)
2472  0ADA  20 21       	jr	NZ,l_player_pick_extra_00102
2473  0ADC              l_player_pick_extra_00101:
2474  0ADC  21 71 01    	ld	hl,0x0171
2475  0ADF  22 00 00    	ld	(_index1),hl
2476  0AE2  21 71 01    	ld	hl, +(_scr_map + 0x0171)
2477  0AE5  36 00       	ld	(hl),0x00
2478  0AE7  CD 00 00    	call	_game_cell_paint_index
2479  0AEA  21 91 01    	ld	hl,0x0191
2480  0AED  22 00 00    	ld	(_index1),hl
2481  0AF0  21 91 01    	ld	hl, +(_scr_map + 0x0191)
2482  0AF3  36 00       	ld	(hl),0x00
2483  0AF5  CD 00 00    	call	_game_cell_paint_index
2484  0AF8  21 02 00    	ld	hl, +(_value_b + 0x0002)
2485  0AFB  36 12       	ld	(hl),0x12
2486  0AFD              l_player_pick_extra_00102:
2487  0AFD  21 00 00    	ld	hl,_index1
2488  0B00  7E          	ld	a, (hl)
2489  0B01  D6 12       	sub	a,0x12
2490  0B03  23          	inc	hl
2491  0B04  B6          	or	a, (hl)
2492  0B05  20 2D       	jr	NZ,l_player_pick_extra_00107
2493  0B07  01 00 00    	ld	bc,_tile+0
2494  0B0A  0A          	ld	a, (bc)
2495  0B0B  C6 02       	add	a,0x02
2496  0B0D  02          	ld	(bc), a
2497  0B0E  21 00 00    	ld	hl,_spr_kind
2498  0B11  36 07       	ld	(hl),0x07
2499  0B13  21 00 00    	ld	hl,_spr_speed
2500  0B16  36 04       	ld	(hl),0x04
2501  0B18  21 4F 00    	ld	hl,0x004f
2502  0B1B  22 00 00    	ld	(_index1),hl
2503  0B1E  21 4F 00    	ld	hl, +(_scr_map + 0x004f)
2504  0B21  36 00       	ld	(hl),0x00
2505  0B23  CD 00 00    	call	_game_cell_paint_index
2506  0B26  21 50 00    	ld	hl,0x0050
2507  0B29  22 00 00    	ld	(_index1),hl
2508  0B2C  21 50 00    	ld	hl, +(_scr_map + 0x0050)
2509  0B2F  36 00       	ld	(hl),0x00
2510  0B31  CD 00 00    	call	_game_cell_paint_index
2511  0B34              l_player_pick_extra_00107:
2512  0B34  2E 00       	ld	l,0x00
2513  0B36  18 03       	jr	l_player_pick_extra_00111
2514  0B38              l_player_pick_extra_00110:
2515  0B38  DD 6E 04    	ld	l,(ix+4)
2516  0B3B              l_player_pick_extra_00111:
2517  0B3B  DD E1       	pop	ix
2518  0B3D  C9          	ret
2519  0B3E              	SECTION code_compiler
2520  0B3E              ;	---------------------------------
2521  0B3E              ; Function player_check_ceil
2522  0B3E              ; ---------------------------------
2523  0B3E              _player_check_ceil:
2524  0B3E  CD 00 00    	call	___sdcc_enter_ix
2525  0B41  DD 66 05    	ld	h,(ix+5)
2526  0B44  DD 6E 04    	ld	l,(ix+4)
2527  0B47  E5          	push	hl
2528  0B48  CD 00 00    	call	_spr_calc_index
2529  0B4B  F1          	pop	af
2530  0B4C  22 00 00    	ld	(_index1),hl
2531  0B4F  01 00 00    	ld	bc,_scr_map
2532  0B52  09          	add	hl,bc
2533  0B53  7E          	ld	a,(hl)
2534  0B54  32 00 00    	ld	(_v0),a
2535  0B57  DD 46 05    	ld	b,(ix+5)
2536  0B5A  04          	inc	b
2537  0B5B  DD 4E 04    	ld	c,(ix+4)
2538  0B5E  C5          	push	bc
2539  0B5F  CD 00 00    	call	_spr_calc_index
2540  0B62  F1          	pop	af
2541  0B63  22 00 00    	ld	(_index1),hl
2542  0B66  01 00 00    	ld	bc,_scr_map
2543  0B69  09          	add	hl,bc
2544  0B6A  7E          	ld	a,(hl)
2545  0B6B  32 00 00    	ld	(_v1),a
2546  0B6E  3E 1F       	ld	a,0x1f
2547  0B70  21 00 00    	ld	hl,_v0
2548  0B73  96          	sub	a, (hl)
2549  0B74  30 02       	jr	NC,l_player_check_ceil_00102
2550  0B76  36 00       	ld	(hl),0x00
2551  0B78              l_player_check_ceil_00102:
2552  0B78  3E 1F       	ld	a,0x1f
2553  0B7A  21 00 00    	ld	hl,_v1
2554  0B7D  96          	sub	a, (hl)
2555  0B7E  30 02       	jr	NC,l_player_check_ceil_00104
2556  0B80  36 00       	ld	(hl),0x00
2557  0B82              l_player_check_ceil_00104:
2558  0B82  01 00 00    	ld	bc,_tile_class+0
2559  0B85  79          	ld	a, c
2560  0B86  21 00 00    	ld	hl,_v0
2561  0B89  86          	add	a, (hl)
2562  0B8A  5F          	ld	e, a
2563  0B8B  78          	ld	a, b
2564  0B8C  CE 00       	adc	a,0x00
2565  0B8E  57          	ld	d, a
2566  0B8F  1A          	ld	a, (de)
2567  0B90  77          	ld	(hl), a
2568  0B91  79          	ld	a, c
2569  0B92  21 00 00    	ld	hl,_v1
2570  0B95  86          	add	a, (hl)
2571  0B96  4F          	ld	c, a
2572  0B97  78          	ld	a, b
2573  0B98  CE 00       	adc	a,0x00
2574  0B9A  47          	ld	b, a
2575  0B9B  0A          	ld	a, (bc)
2576  0B9C  77          	ld	(hl), a
2577  0B9D  3A 00 00    	ld	a,(_v0)
2578  0BA0  D6 03       	sub	a,0x03
2579  0BA2  28 0B       	jr	Z,l_player_check_ceil_00106
2580  0BA4  3A 00 00    	ld	a,(_v1)
2581  0BA7  D6 03       	sub	a,0x03
2582  0BA9  28 04       	jr	Z,l_player_check_ceil_00106
2583  0BAB  2E 01       	ld	l,0x01
2584  0BAD  18 02       	jr	l_player_check_ceil_00108
2585  0BAF              l_player_check_ceil_00106:
2586  0BAF  2E 00       	ld	l,0x00
2587  0BB1              l_player_check_ceil_00108:
2588  0BB1  DD E1       	pop	ix
2589  0BB3  C9          	ret
2590  0BB4              	SECTION code_compiler
2591  0BB4              ;	---------------------------------
2592  0BB4              ; Function player_crumble
2593  0BB4              ; ---------------------------------
2594  0BB4              _player_crumble:
2595  0BB4  CD 00 00    	call	___sdcc_enter_ix
2596  0BB7  F5          	push	af
2597  0BB8  3B          	dec	sp
2598  0BB9  01 00 00    	ld	bc,_tile_class+0
2599  0BBC  3E 00       	ld	a, +((_scr_map) & 0xFF)
2600  0BBE  21 00 00    	ld	hl,_index1
2601  0BC1  86          	add	a, (hl)
2602  0BC2  DD 77 FE    	ld	(ix-2),a
2603  0BC5  3E 00       	ld	a, +((_scr_map) / 256)
2604  0BC7  23          	inc	hl
2605  0BC8  8E          	adc	a, (hl)
2606  0BC9  DD 6E FE    	ld	l,(ix-2)
2607  0BCC  DD 77 FF    	ld	(ix-1),a
2608  0BCF  67          	ld	h,a
2609  0BD0  7E          	ld	a, (hl)
2610  0BD1  DD 77 FD    	ld	(ix-3),a
2611  0BD4  6F          	ld	l, a
2612  0BD5  26 00       	ld	h,0x00
2613  0BD7  09          	add	hl, bc
2614  0BD8  7E          	ld	a, (hl)
2615  0BD9  32 00 00    	ld	(_v0),a
2616  0BDC  D6 02       	sub	a,0x02
2617  0BDE  C2 5D 0C    	jp	NZ,l_player_crumble_00107
2618  0BE1  DD 7E FD    	ld	a,(ix-3)
2619  0BE4  D6 02       	sub	a,0x02
2620  0BE6  20 10       	jr	NZ,l_player_crumble_00104
2621  0BE8  CD 00 00    	call	_audio_crumble
2622  0BEB  01 00 00    	ld	bc,_scr_map
2623  0BEE  2A 00 00    	ld	hl,(_index1)
2624  0BF1  09          	add	hl,bc
2625  0BF2  3A 00 00    	ld	a,(_game_crumb_start)
2626  0BF5  77          	ld	(hl),a
2627  0BF6  18 1B       	jr	l_player_crumble_00105
2628  0BF8              l_player_crumble_00104:
2629  0BF8  DD 4E FD    	ld	c,(ix-3)
2630  0BFB  0C          	inc	c
2631  0BFC  DD 6E FE    	ld	l,(ix-2)
2632  0BFF  DD 66 FF    	ld	h,(ix-1)
2633  0C02  71          	ld	(hl), c
2634  0C03  01 00 00    	ld	bc,_scr_map
2635  0C06  2A 00 00    	ld	hl,(_index1)
2636  0C09  09          	add	hl,bc
2637  0C0A  5E          	ld	e,(hl)
2638  0C0B  3A 00 00    	ld	a,(_game_crumb_end)
2639  0C0E  93          	sub	a,e
2640  0C0F  30 02       	jr	NC,l_player_crumble_00105
2641  0C11  AF          	xor	a,a
2642  0C12  77          	ld	(hl),a
2643  0C13              l_player_crumble_00105:
2644  0C13  2A 08 00    	ld	hl,(_lin + 0x0008)
2645  0C16  26 00       	ld	h,0x00
2646  0C18  01 10 00    	ld	bc,0x0010
2647  0C1B  09          	add	hl,bc
2648  0C1C  06 03       	ld	b,0x03
2649  0C1E              l_player_crumble_00127:
2650  0C1E  CB 2C       	sra	h
2651  0C20  CB 1D       	rr	l
2652  0C22  10 FA       	djnz	l_player_crumble_00127
2653  0C24  2C          	inc	l
2654  0C25  7D          	ld	a, l
2655  0C26  07          	rlca
2656  0C27  07          	rlca
2657  0C28  07          	rlca
2658  0C29  E6 F8       	and	a,0xf8
2659  0C2B  32 00 00    	ld	(_s_row1),a
2660  0C2E  01 00 00    	ld	bc,_scr_map
2661  0C31  2A 00 00    	ld	hl,(_index1)
2662  0C34  09          	add	hl,bc
2663  0C35  46          	ld	b, (hl)
2664  0C36  3A 00 00    	ld	a,(_s_col1)
2665  0C39  F5          	push	af
2666  0C3A  33          	inc	sp
2667  0C3B  3A 00 00    	ld	a,(_s_row1)
2668  0C3E  48          	ld	c,b
2669  0C3F  47          	ld	b,a
2670  0C40  C5          	push	bc
2671  0C41  CD 00 00    	call	_spr_draw8
2672  0C44  F1          	pop	af
2673  0C45  33          	inc	sp
2674  0C46  2A 00 00    	ld	hl,(_curr_time)
2675  0C49  DD 74 FF    	ld	(ix-1),h
2676  0C4C  DD 75 FE    	ld	(ix-2),l
2677  0C4F  21 10 00    	ld	hl, +(_last_time_b + 0x0010)
2678  0C52  DD 7E FE    	ld	a,(ix-2)
2679  0C55  77          	ld	(hl), a
2680  0C56  23          	inc	hl
2681  0C57  DD 7E FF    	ld	a,(ix-1)
2682  0C5A  77          	ld	(hl), a
2683  0C5B  18 06       	jr	l_player_crumble_00109
2684  0C5D              l_player_crumble_00107:
2685  0C5D  21 00 00    	ld	hl,0x0000
2686  0C60  22 10 00    	ld	(_last_time_b + 0x0010),hl
2687  0C63              l_player_crumble_00109:
2688  0C63  DD F9       	ld	sp, ix
2689  0C65  DD E1       	pop	ix
2690  0C67  C9          	ret
2691  0C68              	SECTION code_compiler
2692  0C68              ;	---------------------------------
2693  0C68              ; Function player_check_floor
2694  0C68              ; ---------------------------------
2695  0C68              _player_check_floor:
2696  0C68  CD 00 00    	call	___sdcc_enter_ix
2697  0C6B  3A 08 00    	ld	a,(_col + 0x0008)
2698  0C6E  DD 86 04    	add	a,(ix+4)
2699  0C71  57          	ld	d, a
2700  0C72  3A 08 00    	ld	a,(_lin + 0x0008)
2701  0C75  C6 10       	add	a,0x10
2702  0C77  5F          	ld	e, a
2703  0C78  D5          	push	de
2704  0C79  CD 00 00    	call	_spr_calc_index
2705  0C7C  F1          	pop	af
2706  0C7D  22 00 00    	ld	(_index1),hl
2707  0C80  21 01 00    	ld	hl,_index1 + 1
2708  0C83  7E          	ld	a, (hl)
2709  0C84  D6 02       	sub	a,0x02
2710  0C86  30 25       	jr	NC,l_player_check_floor_00107
2711  0C88  3E 00       	ld	a, +((_scr_map) & 0xFF)
2712  0C8A  2B          	dec	hl
2713  0C8B  86          	add	a, (hl)
2714  0C8C  4F          	ld	c, a
2715  0C8D  3E 00       	ld	a, +((_scr_map) / 256)
2716  0C8F  23          	inc	hl
2717  0C90  8E          	adc	a, (hl)
2718  0C91  47          	ld	b, a
2719  0C92  0A          	ld	a, (bc)
2720  0C93  21 00 00    	ld	hl,_v0
2721  0C96  77          	ld	(hl), a
2722  0C97  3E 1F       	ld	a,0x1f
2723  0C99  96          	sub	a, (hl)
2724  0C9A  30 02       	jr	NC,l_player_check_floor_00102
2725  0C9C  36 00       	ld	(hl),0x00
2726  0C9E              l_player_check_floor_00102:
2727  0C9E  2A 00 00    	ld	hl,(_v0)
2728  0CA1  26 00       	ld	h,0x00
2729  0CA3  01 00 00    	ld	bc,_tile_class
2730  0CA6  09          	add	hl,bc
2731  0CA7  7E          	ld	a,(hl)
2732  0CA8  32 00 00    	ld	(_v0),a
2733  0CAB  18 15       	jr	l_player_check_floor_00108
2734  0CAD              l_player_check_floor_00107:
2735  0CAD  21 08 00    	ld	hl,+(_lin + 0x0008)
2736  0CB0  4E          	ld	c, (hl)
2737  0CB1  3E C8       	ld	a,0xc8
2738  0CB3  91          	sub	a, c
2739  0CB4  30 07       	jr	NC,l_player_check_floor_00104
2740  0CB6  21 00 00    	ld	hl,_v0
2741  0CB9  36 00       	ld	(hl),0x00
2742  0CBB  18 05       	jr	l_player_check_floor_00108
2743  0CBD              l_player_check_floor_00104:
2744  0CBD  21 00 00    	ld	hl,_v0
2745  0CC0  36 03       	ld	(hl),0x03
2746  0CC2              l_player_check_floor_00108:
2747  0CC2  3A 00 00    	ld	a,(_v0)
2748  0CC5  B7          	or	a, a
2749  0CC6  28 0F       	jr	Z,l_player_check_floor_00109
2750  0CC8  D6 08       	sub	a,0x08
2751  0CCA  28 0B       	jr	Z,l_player_check_floor_00109
2752  0CCC  3A 00 00    	ld	a,(_v0)
2753  0CCF  FE 05       	cp	a,0x05
2754  0CD1  28 04       	jr	Z,l_player_check_floor_00109
2755  0CD3  D6 06       	sub	a,0x06
2756  0CD5  20 04       	jr	NZ,l_player_check_floor_00110
2757  0CD7              l_player_check_floor_00109:
2758  0CD7  2E 01       	ld	l,0x01
2759  0CD9  18 02       	jr	l_player_check_floor_00114
2760  0CDB              l_player_check_floor_00110:
2761  0CDB  2E 00       	ld	l,0x00
2762  0CDD              l_player_check_floor_00114:
2763  0CDD  DD E1       	pop	ix
2764  0CDF  C9          	ret
2765  0CE0              	SECTION code_compiler
2766  0CE0              ;	---------------------------------
2767  0CE0              ; Function player_get_floor
2768  0CE0              ; ---------------------------------
2769  0CE0              _player_get_floor:
2770  0CE0  21 08 00    	ld	hl,+(_lin + 0x0008)
2771  0CE3  4E          	ld	c, (hl)
2772  0CE4  59          	ld	e, c
2773  0CE5  16 00       	ld	d,0x00
2774  0CE7  21 10 00    	ld	hl,0x0010
2775  0CEA  19          	add	hl, de
2776  0CEB  3E 80       	ld	a,0x80
2777  0CED  BD          	cp	a, l
2778  0CEE  3E 00       	ld	a,0x00
2779  0CF0  9C          	sbc	a, h
2780  0CF1  E2 F6 0C    	jp	PO, l_player_get_floor_00195
2781  0CF4  EE 80       	xor	a,0x80
2782  0CF6              l_player_get_floor_00195:
2783  0CF6  F2 00 0D    	jp	P, l_player_get_floor_00102
2784  0CF9  21 00 00    	ld	hl,_v0
2785  0CFC  36 80       	ld	(hl),0x80
2786  0CFE  18 06       	jr	l_player_get_floor_00103
2787  0D00              l_player_get_floor_00102:
2788  0D00  79          	ld	a, c
2789  0D01  C6 18       	add	a,0x18
2790  0D03  32 00 00    	ld	(_v0),a
2791  0D06              l_player_get_floor_00103:
2792  0D06  21 08 00    	ld	hl,+(_col + 0x0008)
2793  0D09  46          	ld	b, (hl)
2794  0D0A  3A 00 00    	ld	a,(_v0)
2795  0D0D  4F          	ld	c,a
2796  0D0E  C5          	push	bc
2797  0D0F  CD 00 00    	call	_spr_calc_index
2798  0D12  F1          	pop	af
2799  0D13  22 00 00    	ld	(_index1),hl
2800  0D16  21 00 00    	ld	hl,_i
2801  0D19  36 00       	ld	(hl),0x00
2802  0D1B              l_player_get_floor_00112:
2803  0D1B  3A 00 00    	ld	a,(_i)
2804  0D1E  D6 10       	sub	a,0x10
2805  0D20  D2 DB 0D    	jp	NC, l_player_get_floor_00114
2806  0D23  01 00 00    	ld	bc,_scr_map
2807  0D26  2A 00 00    	ld	hl,(_index1)
2808  0D29  09          	add	hl,bc
2809  0D2A  7E          	ld	a,(hl)
2810  0D2B  32 00 00    	ld	(_v0),a
2811  0D2E  ED 4B 00 00 	ld	bc,(_index1)
2812  0D32  03          	inc	bc
2813  0D33  21 00 00    	ld	hl,_scr_map
2814  0D36  09          	add	hl, bc
2815  0D37  7E          	ld	a, (hl)
2816  0D38  32 00 00    	ld	(_v1),a
2817  0D3B  3E 1F       	ld	a,0x1f
2818  0D3D  21 00 00    	ld	hl,_v0
2819  0D40  96          	sub	a, (hl)
2820  0D41  30 02       	jr	NC,l_player_get_floor_00105
2821  0D43  36 00       	ld	(hl),0x00
2822  0D45              l_player_get_floor_00105:
2823  0D45  3E 1F       	ld	a,0x1f
2824  0D47  21 00 00    	ld	hl,_v1
2825  0D4A  96          	sub	a, (hl)
2826  0D4B  30 02       	jr	NC,l_player_get_floor_00107
2827  0D4D  36 00       	ld	(hl),0x00
2828  0D4F              l_player_get_floor_00107:
2829  0D4F  2A 00 00    	ld	hl,(_v0)
2830  0D52  26 00       	ld	h,0x00
2831  0D54  01 00 00    	ld	bc,_tile_class
2832  0D57  09          	add	hl,bc
2833  0D58  7E          	ld	a,(hl)
2834  0D59  32 00 00    	ld	(_v0),a
2835  0D5C  2A 00 00    	ld	hl,(_v1)
2836  0D5F  26 00       	ld	h,0x00
2837  0D61  01 00 00    	ld	bc,_tile_class
2838  0D64  09          	add	hl,bc
2839  0D65  7E          	ld	a,(hl)
2840  0D66  32 00 00    	ld	(_v1),a
2841  0D69  3A 00 00    	ld	a,(_v0)
2842  0D6C  B7          	or	a,a
2843  0D6D  28 13       	jr	Z,l_player_get_floor_00118
2844  0D6F  D6 08       	sub	a,0x08
2845  0D71  28 0F       	jr	Z,l_player_get_floor_00118
2846  0D73  3A 00 00    	ld	a,(_v0)
2847  0D76  FE 05       	cp	a,0x05
2848  0D78  28 08       	jr	Z,l_player_get_floor_00118
2849  0D7A  D6 06       	sub	a,0x06
2850  0D7C  28 04       	jr	Z,l_player_get_floor_00118
2851  0D7E  0E 00       	ld	c,0x00
2852  0D80  18 02       	jr	l_player_get_floor_00119
2853  0D82              l_player_get_floor_00118:
2854  0D82  0E 01       	ld	c,0x01
2855  0D84              l_player_get_floor_00119:
2856  0D84  21 00 00    	ld	hl,_v0
2857  0D87  71          	ld	(hl), c
2858  0D88  3A 00 00    	ld	a,(_v1)
2859  0D8B  B7          	or	a, a
2860  0D8C  28 13       	jr	Z,l_player_get_floor_00127
2861  0D8E  D6 08       	sub	a,0x08
2862  0D90  28 0F       	jr	Z,l_player_get_floor_00127
2863  0D92  3A 00 00    	ld	a,(_v1)
2864  0D95  FE 05       	cp	a,0x05
2865  0D97  28 08       	jr	Z,l_player_get_floor_00127
2866  0D99  D6 06       	sub	a,0x06
2867  0D9B  28 04       	jr	Z,l_player_get_floor_00127
2868  0D9D  0E 00       	ld	c,0x00
2869  0D9F  18 02       	jr	l_player_get_floor_00128
2870  0DA1              l_player_get_floor_00127:
2871  0DA1  0E 01       	ld	c,0x01
2872  0DA3              l_player_get_floor_00128:
2873  0DA3  21 00 00    	ld	hl,_v1
2874  0DA6  71          	ld	(hl), c
2875  0DA7  3A 00 00    	ld	a,(_v0)
2876  0DAA  B7          	or	a, a
2877  0DAB  28 17       	jr	Z,l_player_get_floor_00109
2878  0DAD  3A 00 00    	ld	a,(_v1)
2879  0DB0  B7          	or	a, a
2880  0DB1  28 11       	jr	Z,l_player_get_floor_00109
2881  0DB3  2A 00 00    	ld	hl,(_index1)
2882  0DB6  11 20 00    	ld	de,0x0020
2883  0DB9  19          	add	hl,de
2884  0DBA  22 00 00    	ld	(_index1),hl
2885  0DBD  21 00 00    	ld	hl,_i
2886  0DC0  34          	inc	(hl)
2887  0DC1  C3 1B 0D    	jp	l_player_get_floor_00112
2888  0DC4              l_player_get_floor_00109:
2889  0DC4  2A 00 00    	ld	hl,(_index1)
2890  0DC7  4D          	ld	c,l
2891  0DC8  5C          	ld	e,h
2892  0DC9  06 05       	ld	b,0x05
2893  0DCB  79          	ld	a,c
2894  0DCC              l_player_get_floor_00202:
2895  0DCC  CB 3B       	srl	e
2896  0DCE  1F          	rra
2897  0DCF  10 FB       	djnz	l_player_get_floor_00202
2898  0DD1  07          	rlca
2899  0DD2  07          	rlca
2900  0DD3  07          	rlca
2901  0DD4  E6 F8       	and	a,0xf8
2902  0DD6  C6 F0       	add	a,0xf0
2903  0DD8  6F          	ld	l, a
2904  0DD9  18 02       	jr	l_player_get_floor_00115
2905  0DDB              l_player_get_floor_00114:
2906  0DDB  2E 70       	ld	l,0x70
2907  0DDD              l_player_get_floor_00115:
2908  0DDD  C9          	ret
2909  0DDE              	SECTION code_compiler
2910  0DDE              ;	---------------------------------
2911  0DDE              ; Function player_lost_life
2912  0DDE              ; ---------------------------------
2913  0DDE              _player_lost_life:
2914  0DDE  CD 00 00    	call	___sdcc_enter_ix
2915  0DE1  F5          	push	af
2916  0DE2  CD 00 00    	call	_ay_reset
2917  0DE5  CD 00 00    	call	_audio_dead
2918  0DE8  4F          	ld	c, a
2919  0DE9              l_player_lost_life_00104:
2920  0DE9  79          	ld	a, c
2921  0DEA  D6 20       	sub	a,0x20
2922  0DEC  30 79       	jr	NC,l_player_lost_life_00106
2923  0DEE  21 00 00    	ld	hl,_player_kill_index
2924  0DF1  7E          	ld	a, (hl)
2925  0DF2  3C          	inc	a
2926  0DF3  20 05       	jr	NZ,l_player_lost_life_00135
2927  0DF5  23          	inc	hl
2928  0DF6  7E          	ld	a, (hl)
2929  0DF7  3C          	inc	a
2930  0DF8  28 3D       	jr	Z,l_player_lost_life_00102
2931  0DFA              l_player_lost_life_00135:
2932  0DFA  2A 00 00    	ld	hl,(_player_kill_index)
2933  0DFD  22 00 00    	ld	(_index1),hl
2934  0E00  21 08 00    	ld	hl,+(_col + 0x0008)
2935  0E03  56          	ld	d, (hl)
2936  0E04  3A 08 00    	ld	a,(_lin + 0x0008)
2937  0E07  C6 10       	add	a,0x10
2938  0E09  5F          	ld	e, a
2939  0E0A  3A 08 00    	ld	a,(_tile + 0x0008)
2940  0E0D  DD 77 FF    	ld	(ix-1),a
2941  0E10  2A 08 00    	ld	hl,(_colint + 0x0008)
2942  0E13  DD 7E FF    	ld	a,(ix-1)
2943  0E16  85          	add	a, l
2944  0E17  47          	ld	b, a
2945  0E18  C5          	push	bc
2946  0E19  D5          	push	de
2947  0E1A  0E 05       	ld	c,0x05
2948  0E1C  C5          	push	bc
2949  0E1D  CD 00 00    	call	_NIRVANAP_spriteT_callee
2950  0E20  C1          	pop	bc
2951  0E21  76          	halt
2952  0E22  C5          	push	bc
2953  0E23  21 00 00    	ld	hl,0x0000
2954  0E26  E5          	push	hl
2955  0E27  2E 05       	ld	l,0x05
2956  0E29  E5          	push	hl
2957  0E2A  CD 00 00    	call	_NIRVANAP_spriteT_callee
2958  0E2D  C1          	pop	bc
2959  0E2E  76          	halt
2960  0E2F  C5          	push	bc
2961  0E30  CD 00 00    	call	_game_cell_paint_index
2962  0E33  C1          	pop	bc
2963  0E34  76          	halt
2964  0E35  18 2C       	jr	l_player_lost_life_00103
2965  0E37              l_player_lost_life_00102:
2966  0E37  21 08 00    	ld	hl,+(_col + 0x0008)
2967  0E3A  46          	ld	b, (hl)
2968  0E3B  3A 08 00    	ld	a,(_lin + 0x0008)
2969  0E3E  C6 10       	add	a,0x10
2970  0E40  57          	ld	d, a
2971  0E41  21 08 00    	ld	hl,+(_tile + 0x0008)
2972  0E44  5E          	ld	e, (hl)
2973  0E45  2A 08 00    	ld	hl,(_colint + 0x0008)
2974  0E48  7B          	ld	a, e
2975  0E49  85          	add	a, l
2976  0E4A  C5          	push	bc
2977  0E4B  4A          	ld	c, d
2978  0E4C  C5          	push	bc
2979  0E4D  57          	ld	d,a
2980  0E4E  1E 05       	ld	e,0x05
2981  0E50  D5          	push	de
2982  0E51  CD 00 00    	call	_NIRVANAP_spriteT_callee
2983  0E54  C1          	pop	bc
2984  0E55  76          	halt
2985  0E56  C5          	push	bc
2986  0E57  21 00 00    	ld	hl,0x0000
2987  0E5A  E5          	push	hl
2988  0E5B  2E 05       	ld	l,0x05
2989  0E5D  E5          	push	hl
2990  0E5E  CD 00 00    	call	_NIRVANAP_spriteT_callee
2991  0E61  C1          	pop	bc
2992  0E62  76          	halt
2993  0E63              l_player_lost_life_00103:
2994  0E63  0C          	inc	c
2995  0E64  C3 E9 0D    	jp	l_player_lost_life_00104
2996  0E67              l_player_lost_life_00106:
2997  0E67  3A 08 00    	ld	a,(_lin + 0x0008)
2998  0E6A  32 00 00    	ld	(_s_lin0),a
2999  0E6D  3A 08 00    	ld	a,(_col + 0x0008)
3000  0E70  32 00 00    	ld	(_s_col0),a
3001  0E73  3A 00 00    	ld	a,(_game_inf_lives)
3002  0E76  B7          	or	a, a
3003  0E77  20 04       	jr	NZ,l_player_lost_life_00108
3004  0E79  21 00 00    	ld	hl,_player_lives
3005  0E7C  35          	dec	(hl)
3006  0E7D              l_player_lost_life_00108:
3007  0E7D  3A 00 00    	ld	a,(_player_lives)
3008  0E80  B7          	or	a, a
3009  0E81  28 05       	jr	Z,l_player_lost_life_00110
3010  0E83  CD 00 00    	call	_game_round_init
3011  0E86  18 0A       	jr	l_player_lost_life_00112
3012  0E88              l_player_lost_life_00110:
3013  0E88  21 00 00    	ld	hl,_player_lives
3014  0E8B  36 00       	ld	(hl),0x00
3015  0E8D  21 00 00    	ld	hl,_game_over
3016  0E90  36 01       	ld	(hl),0x01
3017  0E92              l_player_lost_life_00112:
3018  0E92  F1          	pop	af
3019  0E93  DD E1       	pop	ix
3020  0E95  C9          	ret
3021  0E96              	SECTION IGNORE
3022  0000              
