1     0000              MODULE game_sprite_c
2     0000              LINE 0, "game_sprite.c"
0     0000              
1     0000              ;--------------------------------------------------------
2     0000              ; File Created by SDCC : free open source ANSI-C Compiler
3     0000              ; Version 3.6.9 #9958 (Mac OS X i386)
4     0000              ;--------------------------------------------------------
5     0000              ; Processed by Z88DK
6     0000              ;--------------------------------------------------------
7     0000              
8     0000              	EXTERN __divschar
9     0000              	EXTERN __divschar_callee
10    0000              	EXTERN __divsint
11    0000              	EXTERN __divsint_callee
12    0000              	EXTERN __divslong
13    0000              	EXTERN __divslong_callee
14    0000              	EXTERN __divslonglong
15    0000              	EXTERN __divslonglong_callee
16    0000              	EXTERN __divsuchar
17    0000              	EXTERN __divsuchar_callee
18    0000              	EXTERN __divuchar
19    0000              	EXTERN __divuchar_callee
20    0000              	EXTERN __divuint
21    0000              	EXTERN __divuint_callee
22    0000              	EXTERN __divulong
23    0000              	EXTERN __divulong_callee
24    0000              	EXTERN __divulonglong
25    0000              	EXTERN __divulonglong_callee
26    0000              	EXTERN __divuschar
27    0000              	EXTERN __divuschar_callee
28    0000              	EXTERN __modschar
29    0000              	EXTERN __modschar_callee
30    0000              	EXTERN __modsint
31    0000              	EXTERN __modsint_callee
32    0000              	EXTERN __modslong
33    0000              	EXTERN __modslong_callee
34    0000              	EXTERN __modslonglong
35    0000              	EXTERN __modslonglong_callee
36    0000              	EXTERN __modsuchar
37    0000              	EXTERN __modsuchar_callee
38    0000              	EXTERN __moduchar
39    0000              	EXTERN __moduchar_callee
40    0000              	EXTERN __moduint
41    0000              	EXTERN __moduint_callee
42    0000              	EXTERN __modulong
43    0000              	EXTERN __modulong_callee
44    0000              	EXTERN __modulonglong
45    0000              	EXTERN __modulonglong_callee
46    0000              	EXTERN __moduschar
47    0000              	EXTERN __moduschar_callee
48    0000              	EXTERN __mulint
49    0000              	EXTERN __mulint_callee
50    0000              	EXTERN __mullong
51    0000              	EXTERN __mullong_callee
52    0000              	EXTERN __mullonglong
53    0000              	EXTERN __mullonglong_callee
54    0000              	EXTERN __mulschar
55    0000              	EXTERN __mulschar_callee
56    0000              	EXTERN __mulsuchar
57    0000              	EXTERN __mulsuchar_callee
58    0000              	EXTERN __muluschar
59    0000              	EXTERN __muluschar_callee
60    0000              	EXTERN __rlslonglong
61    0000              	EXTERN __rlslonglong_callee
62    0000              	EXTERN __rlulonglong
63    0000              	EXTERN __rlulonglong_callee
64    0000              	EXTERN __rrslonglong
65    0000              	EXTERN __rrslonglong_callee
66    0000              	EXTERN __rrulonglong
67    0000              	EXTERN __rrulonglong_callee
68    0000              	EXTERN ___sdcc_call_hl
69    0000              	EXTERN ___sdcc_call_iy
70    0000              	EXTERN ___sdcc_enter_ix
71    0000              	EXTERN _banked_call
72    0000              	EXTERN _banked_ret
73    0000              	EXTERN ___fs2schar
74    0000              	EXTERN ___fs2schar_callee
75    0000              	EXTERN ___fs2sint
76    0000              	EXTERN ___fs2sint_callee
77    0000              	EXTERN ___fs2slong
78    0000              	EXTERN ___fs2slong_callee
79    0000              	EXTERN ___fs2slonglong
80    0000              	EXTERN ___fs2slonglong_callee
81    0000              	EXTERN ___fs2uchar
82    0000              	EXTERN ___fs2uchar_callee
83    0000              	EXTERN ___fs2uint
84    0000              	EXTERN ___fs2uint_callee
85    0000              	EXTERN ___fs2ulong
86    0000              	EXTERN ___fs2ulong_callee
87    0000              	EXTERN ___fs2ulonglong
88    0000              	EXTERN ___fs2ulonglong_callee
89    0000              	EXTERN ___fsadd
90    0000              	EXTERN ___fsadd_callee
91    0000              	EXTERN ___fsdiv
92    0000              	EXTERN ___fsdiv_callee
93    0000              	EXTERN ___fseq
94    0000              	EXTERN ___fseq_callee
95    0000              	EXTERN ___fsgt
96    0000              	EXTERN ___fsgt_callee
97    0000              	EXTERN ___fslt
98    0000              	EXTERN ___fslt_callee
99    0000              	EXTERN ___fsmul
100   0000              	EXTERN ___fsmul_callee
101   0000              	EXTERN ___fsneq
102   0000              	EXTERN ___fsneq_callee
103   0000              	EXTERN ___fssub
104   0000              	EXTERN ___fssub_callee
105   0000              	EXTERN ___schar2fs
106   0000              	EXTERN ___schar2fs_callee
107   0000              	EXTERN ___sint2fs
108   0000              	EXTERN ___sint2fs_callee
109   0000              	EXTERN ___slong2fs
110   0000              	EXTERN ___slong2fs_callee
111   0000              	EXTERN ___slonglong2fs
112   0000              	EXTERN ___slonglong2fs_callee
113   0000              	EXTERN ___uchar2fs
114   0000              	EXTERN ___uchar2fs_callee
115   0000              	EXTERN ___uint2fs
116   0000              	EXTERN ___uint2fs_callee
117   0000              	EXTERN ___ulong2fs
118   0000              	EXTERN ___ulong2fs_callee
119   0000              	EXTERN ___ulonglong2fs
120   0000              	EXTERN ___ulonglong2fs_callee
121   0000              	EXTERN ____sdcc_2_copy_src_mhl_dst_deix
122   0000              	EXTERN ____sdcc_2_copy_src_mhl_dst_bcix
123   0000              	EXTERN ____sdcc_4_copy_src_mhl_dst_deix
124   0000              	EXTERN ____sdcc_4_copy_src_mhl_dst_bcix
125   0000              	EXTERN ____sdcc_4_copy_src_mhl_dst_mbc
126   0000              	EXTERN ____sdcc_4_ldi_nosave_bc
127   0000              	EXTERN ____sdcc_4_ldi_save_bc
128   0000              	EXTERN ____sdcc_4_push_hlix
129   0000              	EXTERN ____sdcc_4_push_mhl
130   0000              	EXTERN ____sdcc_lib_setmem_hl
131   0000              	EXTERN ____sdcc_ll_add_de_bc_hl
132   0000              	EXTERN ____sdcc_ll_add_de_bc_hlix
133   0000              	EXTERN ____sdcc_ll_add_de_hlix_bc
134   0000              	EXTERN ____sdcc_ll_add_de_hlix_bcix
135   0000              	EXTERN ____sdcc_ll_add_deix_bc_hl
136   0000              	EXTERN ____sdcc_ll_add_deix_hlix
137   0000              	EXTERN ____sdcc_ll_add_hlix_bc_deix
138   0000              	EXTERN ____sdcc_ll_add_hlix_deix_bc
139   0000              	EXTERN ____sdcc_ll_add_hlix_deix_bcix
140   0000              	EXTERN ____sdcc_ll_asr_hlix_a
141   0000              	EXTERN ____sdcc_ll_asr_mbc_a
142   0000              	EXTERN ____sdcc_ll_copy_src_de_dst_hlix
143   0000              	EXTERN ____sdcc_ll_copy_src_de_dst_hlsp
144   0000              	EXTERN ____sdcc_ll_copy_src_deix_dst_hl
145   0000              	EXTERN ____sdcc_ll_copy_src_deix_dst_hlix
146   0000              	EXTERN ____sdcc_ll_copy_src_deixm_dst_hlsp
147   0000              	EXTERN ____sdcc_ll_copy_src_desp_dst_hlsp
148   0000              	EXTERN ____sdcc_ll_copy_src_hl_dst_de
149   0000              	EXTERN ____sdcc_ll_copy_src_hlsp_dst_de
150   0000              	EXTERN ____sdcc_ll_copy_src_hlsp_dst_deixm
151   0000              	EXTERN ____sdcc_ll_lsl_hlix_a
152   0000              	EXTERN ____sdcc_ll_lsl_mbc_a
153   0000              	EXTERN ____sdcc_ll_lsr_hlix_a
154   0000              	EXTERN ____sdcc_ll_lsr_mbc_a
155   0000              	EXTERN ____sdcc_ll_push_hlix
156   0000              	EXTERN ____sdcc_ll_push_mhl
157   0000              	EXTERN ____sdcc_ll_sub_de_bc_hl
158   0000              	EXTERN ____sdcc_ll_sub_de_bc_hlix
159   0000              	EXTERN ____sdcc_ll_sub_de_hlix_bc
160   0000              	EXTERN ____sdcc_ll_sub_de_hlix_bcix
161   0000              	EXTERN ____sdcc_ll_sub_deix_bc_hl
162   0000              	EXTERN ____sdcc_ll_sub_deix_hlix
163   0000              	EXTERN ____sdcc_ll_sub_hlix_bc_deix
164   0000              	EXTERN ____sdcc_ll_sub_hlix_deix_bc
165   0000              	EXTERN ____sdcc_ll_sub_hlix_deix_bcix
166   0000              	EXTERN ____sdcc_load_debc_deix
167   0000              	EXTERN ____sdcc_load_dehl_deix
168   0000              	EXTERN ____sdcc_load_debc_mhl
169   0000              	EXTERN ____sdcc_load_hlde_mhl
170   0000              	EXTERN ____sdcc_store_dehl_bcix
171   0000              	EXTERN ____sdcc_store_debc_hlix
172   0000              	EXTERN ____sdcc_store_debc_mhl
173   0000              	EXTERN ____sdcc_cpu_pop_ei
174   0000              	EXTERN ____sdcc_cpu_pop_ei_jp
175   0000              	EXTERN ____sdcc_cpu_push_di
176   0000              	EXTERN ____sdcc_outi
177   0000              	EXTERN ____sdcc_outi_128
178   0000              	EXTERN ____sdcc_outi_256
179   0000              	EXTERN ____sdcc_ldi
180   0000              	EXTERN ____sdcc_ldi_128
181   0000              	EXTERN ____sdcc_ldi_256
182   0000              	EXTERN ____sdcc_4_copy_srcd_hlix_dst_deix
183   0000              	EXTERN ____sdcc_4_and_src_mbc_mhl_dst_deix
184   0000              	EXTERN ____sdcc_4_or_src_mbc_mhl_dst_deix
185   0000              	EXTERN ____sdcc_4_xor_src_mbc_mhl_dst_deix
186   0000              	EXTERN ____sdcc_4_or_src_dehl_dst_bcix
187   0000              	EXTERN ____sdcc_4_xor_src_dehl_dst_bcix
188   0000              	EXTERN ____sdcc_4_and_src_dehl_dst_bcix
189   0000              	EXTERN ____sdcc_4_xor_src_mbc_mhl_dst_debc
190   0000              	EXTERN ____sdcc_4_or_src_mbc_mhl_dst_debc
191   0000              	EXTERN ____sdcc_4_and_src_mbc_mhl_dst_debc
192   0000              	EXTERN ____sdcc_4_cpl_src_mhl_dst_debc
193   0000              	EXTERN ____sdcc_4_xor_src_debc_mhl_dst_debc
194   0000              	EXTERN ____sdcc_4_or_src_debc_mhl_dst_debc
195   0000              	EXTERN ____sdcc_4_and_src_debc_mhl_dst_debc
196   0000              	EXTERN ____sdcc_4_and_src_debc_hlix_dst_debc
197   0000              	EXTERN ____sdcc_4_or_src_debc_hlix_dst_debc
198   0000              	EXTERN ____sdcc_4_xor_src_debc_hlix_dst_debc
199   0000              
200   0000              ;--------------------------------------------------------
201   0000              ; Public variables in this module
202   0000              ;--------------------------------------------------------
203   0000              	GLOBAL _spr_calc_index
204   0000              	GLOBAL _spr_chktime
205   0000              	GLOBAL _spr_set_up
206   0000              	GLOBAL _spr_set_down
207   0000              	GLOBAL _spr_set_left
208   0000              	GLOBAL _spr_set_right
209   0000              	GLOBAL _spr_move_up_f
210   0000              	GLOBAL _spr_move_down_f
211   0000              	GLOBAL _spr_move_up
212   0000              	GLOBAL _spr_draw8
213   0000              	GLOBAL _spr_move_down
214   0000              	GLOBAL _spr_move_horizontal
215   0000              	GLOBAL _spr_move_right_f
216   0000              	GLOBAL _spr_move_right
217   0000              	GLOBAL _spr_move_left
218   0000              	GLOBAL _spr_move_left_f
219   0000              	GLOBAL _spr_clear_scr
220   0000              	GLOBAL _spr_paint_player
221   0000              	GLOBAL _spr_paint
222   0000              	GLOBAL _spr_destroy
223   0000              	GLOBAL _spr_get_tile
224   0000              	GLOBAL _spr_get_tile_dir
225   0000              	GLOBAL _spr_back_repaint
226   0000              	GLOBAL _spr_add_anim
227   0000              	GLOBAL _spr_play_anim
228   0000              	GLOBAL _spr_turn_horizontal
229   0000              	GLOBAL _spr_btile_paint_back
230   0000              	GLOBAL _spr_flatten
231   0000              	GLOBAL _spr_unflattenP1
232   0000              ;--------------------------------------------------------
233   0000              ; Externals used
234   0000              ;--------------------------------------------------------
235   0000              	GLOBAL _ulltoa_callee
236   0000              	GLOBAL _ulltoa
237   0000              	GLOBAL _strtoull_callee
238   0000              	GLOBAL _strtoull
239   0000              	GLOBAL _strtoll_callee
240   0000              	GLOBAL _strtoll
241   0000              	GLOBAL _lltoa_callee
242   0000              	GLOBAL _lltoa
243   0000              	GLOBAL _llabs_callee
244   0000              	GLOBAL _llabs
245   0000              	GLOBAL __lldivu__callee
246   0000              	GLOBAL __lldivu_
247   0000              	GLOBAL __lldiv__callee
248   0000              	GLOBAL __lldiv_
249   0000              	GLOBAL _atoll_callee
250   0000              	GLOBAL _atoll
251   0000              	GLOBAL _realloc_unlocked_callee
252   0000              	GLOBAL _realloc_unlocked
253   0000              	GLOBAL _malloc_unlocked_fastcall
254   0000              	GLOBAL _malloc_unlocked
255   0000              	GLOBAL _free_unlocked_fastcall
256   0000              	GLOBAL _free_unlocked
257   0000              	GLOBAL _calloc_unlocked_callee
258   0000              	GLOBAL _calloc_unlocked
259   0000              	GLOBAL _aligned_alloc_unlocked_callee
260   0000              	GLOBAL _aligned_alloc_unlocked
261   0000              	GLOBAL _realloc_callee
262   0000              	GLOBAL _realloc
263   0000              	GLOBAL _malloc_fastcall
264   0000              	GLOBAL _malloc
265   0000              	GLOBAL _free_fastcall
266   0000              	GLOBAL _free
267   0000              	GLOBAL _calloc_callee
268   0000              	GLOBAL _calloc
269   0000              	GLOBAL _aligned_alloc_callee
270   0000              	GLOBAL _aligned_alloc
271   0000              	GLOBAL _utoa_callee
272   0000              	GLOBAL _utoa
273   0000              	GLOBAL _ultoa_callee
274   0000              	GLOBAL _ultoa
275   0000              	GLOBAL _system_fastcall
276   0000              	GLOBAL _system
277   0000              	GLOBAL _strtoul_callee
278   0000              	GLOBAL _strtoul
279   0000              	GLOBAL _strtol_callee
280   0000              	GLOBAL _strtol
281   0000              	GLOBAL _strtof_callee
282   0000              	GLOBAL _strtof
283   0000              	GLOBAL _strtod_callee
284   0000              	GLOBAL _strtod
285   0000              	GLOBAL _srand_fastcall
286   0000              	GLOBAL _srand
287   0000              	GLOBAL _rand
288   0000              	GLOBAL _quick_exit_fastcall
289   0000              	GLOBAL _quick_exit
290   0000              	GLOBAL _qsort_callee
291   0000              	GLOBAL _qsort
292   0000              	GLOBAL _ltoa_callee
293   0000              	GLOBAL _ltoa
294   0000              	GLOBAL _labs_fastcall
295   0000              	GLOBAL _labs
296   0000              	GLOBAL _itoa_callee
297   0000              	GLOBAL _itoa
298   0000              	GLOBAL _ftoh_callee
299   0000              	GLOBAL _ftoh
300   0000              	GLOBAL _ftog_callee
301   0000              	GLOBAL _ftog
302   0000              	GLOBAL _ftoe_callee
303   0000              	GLOBAL _ftoe
304   0000              	GLOBAL _ftoa_callee
305   0000              	GLOBAL _ftoa
306   0000              	GLOBAL _exit_fastcall
307   0000              	GLOBAL _exit
308   0000              	GLOBAL _dtoh_callee
309   0000              	GLOBAL _dtoh
310   0000              	GLOBAL _dtog_callee
311   0000              	GLOBAL _dtog
312   0000              	GLOBAL _dtoe_callee
313   0000              	GLOBAL _dtoe
314   0000              	GLOBAL _dtoa_callee
315   0000              	GLOBAL _dtoa
316   0000              	GLOBAL _bsearch_callee
317   0000              	GLOBAL _bsearch
318   0000              	GLOBAL _atol_fastcall
319   0000              	GLOBAL _atol
320   0000              	GLOBAL _atoi_fastcall
321   0000              	GLOBAL _atoi
322   0000              	GLOBAL _atof_fastcall
323   0000              	GLOBAL _atof
324   0000              	GLOBAL _atexit_fastcall
325   0000              	GLOBAL _atexit
326   0000              	GLOBAL _at_quick_exit_fastcall
327   0000              	GLOBAL _at_quick_exit
328   0000              	GLOBAL _abs_fastcall
329   0000              	GLOBAL _abs
330   0000              	GLOBAL _abort
331   0000              	GLOBAL __strtou__callee
332   0000              	GLOBAL __strtou_
333   0000              	GLOBAL __strtoi__callee
334   0000              	GLOBAL __strtoi_
335   0000              	GLOBAL __random_uniform_xor_8__fastcall
336   0000              	GLOBAL __random_uniform_xor_8_
337   0000              	GLOBAL __random_uniform_xor_32__fastcall
338   0000              	GLOBAL __random_uniform_xor_32_
339   0000              	GLOBAL __random_uniform_cmwc_8__fastcall
340   0000              	GLOBAL __random_uniform_cmwc_8_
341   0000              	GLOBAL __shellsort__callee
342   0000              	GLOBAL __shellsort_
343   0000              	GLOBAL __quicksort__callee
344   0000              	GLOBAL __quicksort_
345   0000              	GLOBAL __insertion_sort__callee
346   0000              	GLOBAL __insertion_sort_
347   0000              	GLOBAL __ldivu__callee
348   0000              	GLOBAL __ldivu_
349   0000              	GLOBAL __ldiv__callee
350   0000              	GLOBAL __ldiv_
351   0000              	GLOBAL __divu__callee
352   0000              	GLOBAL __divu_
353   0000              	GLOBAL __div__callee
354   0000              	GLOBAL __div_
355   0000              	GLOBAL _NIRVANAP_drawTW_raw_callee
356   0000              	GLOBAL _NIRVANAP_drawTW_raw
357   0000              	GLOBAL _NIRVANAP_drawTW_callee
358   0000              	GLOBAL _NIRVANAP_drawTW
359   0000              	GLOBAL _NIRVANAP_drawW_raw_callee
360   0000              	GLOBAL _NIRVANAP_drawW_raw
361   0000              	GLOBAL _NIRVANAP_drawW_callee
362   0000              	GLOBAL _NIRVANAP_drawW
363   0000              	GLOBAL _NIRVANAP_spriteT_callee
364   0000              	GLOBAL _NIRVANAP_spriteT
365   0000              	GLOBAL _NIRVANAP_fillC_callee
366   0000              	GLOBAL _NIRVANAP_fillC
367   0000              	GLOBAL _NIRVANAP_readC_callee
368   0000              	GLOBAL _NIRVANAP_readC
369   0000              	GLOBAL _NIRVANAP_paintC_callee
370   0000              	GLOBAL _NIRVANAP_paintC
371   0000              	GLOBAL _NIRVANAP_printC_callee
372   0000              	GLOBAL _NIRVANAP_printC
373   0000              	GLOBAL _NIRVANAP_fillT_raw_callee
374   0000              	GLOBAL _NIRVANAP_fillT_raw
375   0000              	GLOBAL _NIRVANAP_fillT_callee
376   0000              	GLOBAL _NIRVANAP_fillT
377   0000              	GLOBAL _NIRVANAP_drawT_raw_callee
378   0000              	GLOBAL _NIRVANAP_drawT_raw
379   0000              	GLOBAL _NIRVANAP_drawT_callee
380   0000              	GLOBAL _NIRVANAP_drawT
381   0000              	GLOBAL _NIRVANAP_stop
382   0000              	GLOBAL _NIRVANAP_start
383   0000              	GLOBAL _zx_print_str
384   0000              	GLOBAL _zx_print_int
385   0000              	GLOBAL _zx_print_chr
386   0000              	GLOBAL _zx_isr
387   0000              	GLOBAL _z80_otdr_callee
388   0000              	GLOBAL _z80_otdr
389   0000              	GLOBAL _z80_otir_callee
390   0000              	GLOBAL _z80_otir
391   0000              	GLOBAL _z80_outp_callee
392   0000              	GLOBAL _z80_outp
393   0000              	GLOBAL _z80_indr_callee
394   0000              	GLOBAL _z80_indr
395   0000              	GLOBAL _z80_inir_callee
396   0000              	GLOBAL _z80_inir
397   0000              	GLOBAL _z80_inp_fastcall
398   0000              	GLOBAL _z80_inp
399   0000              	GLOBAL _z80_set_int_state_fastcall
400   0000              	GLOBAL _z80_set_int_state
401   0000              	GLOBAL _z80_get_int_state
402   0000              	GLOBAL _z80_delay_tstate_fastcall
403   0000              	GLOBAL _z80_delay_tstate
404   0000              	GLOBAL _z80_delay_ms_fastcall
405   0000              	GLOBAL _z80_delay_ms
406   0000              	GLOBAL _im2_remove_generic_callback_callee
407   0000              	GLOBAL _im2_remove_generic_callback
408   0000              	GLOBAL _im2_prepend_generic_callback_callee
409   0000              	GLOBAL _im2_prepend_generic_callback
410   0000              	GLOBAL _im2_append_generic_callback_callee
411   0000              	GLOBAL _im2_append_generic_callback
412   0000              	GLOBAL _im2_create_generic_isr_8080_callee
413   0000              	GLOBAL _im2_create_generic_isr_8080
414   0000              	GLOBAL _im2_create_generic_isr_callee
415   0000              	GLOBAL _im2_create_generic_isr
416   0000              	GLOBAL _im2_install_isr_callee
417   0000              	GLOBAL _im2_install_isr
418   0000              	GLOBAL _im2_init_fastcall
419   0000              	GLOBAL _im2_init
420   0000              	GLOBAL _intrinsic_swap_word_32_fastcall
421   0000              	GLOBAL _intrinsic_swap_word_32
422   0000              	GLOBAL _intrinsic_swap_endian_32_fastcall
423   0000              	GLOBAL _intrinsic_swap_endian_32
424   0000              	GLOBAL _intrinsic_swap_endian_16_fastcall
425   0000              	GLOBAL _intrinsic_swap_endian_16
426   0000              	GLOBAL _intrinsic_return_de
427   0000              	GLOBAL _intrinsic_return_bc
428   0000              	GLOBAL _intrinsic_exx
429   0000              	GLOBAL _intrinsic_ex_de_hl
430   0000              	GLOBAL _intrinsic_nop
431   0000              	GLOBAL _intrinsic_im_2
432   0000              	GLOBAL _intrinsic_im_1
433   0000              	GLOBAL _intrinsic_im_0
434   0000              	GLOBAL _intrinsic_retn
435   0000              	GLOBAL _intrinsic_reti
436   0000              	GLOBAL _intrinsic_halt
437   0000              	GLOBAL _intrinsic_ei
438   0000              	GLOBAL _intrinsic_di
439   0000              	GLOBAL _intrinsic_stub
440   0000              	GLOBAL _intrinsic_ini
441   0000              	GLOBAL _intrinsic_outi
442   0000              	GLOBAL _intrinsic_ldi
443   0000              	GLOBAL _zx_pattern_fill_callee
444   0000              	GLOBAL _zx_pattern_fill
445   0000              	GLOBAL _zx_saddrpup_fastcall
446   0000              	GLOBAL _zx_saddrpup
447   0000              	GLOBAL _zx_saddrpright_callee
448   0000              	GLOBAL _zx_saddrpright
449   0000              	GLOBAL _zx_saddrpleft_callee
450   0000              	GLOBAL _zx_saddrpleft
451   0000              	GLOBAL _zx_saddrpdown_fastcall
452   0000              	GLOBAL _zx_saddrpdown
453   0000              	GLOBAL _zx_saddrcup_fastcall
454   0000              	GLOBAL _zx_saddrcup
455   0000              	GLOBAL _zx_saddrcright_fastcall
456   0000              	GLOBAL _zx_saddrcright
457   0000              	GLOBAL _zx_saddrcleft_fastcall
458   0000              	GLOBAL _zx_saddrcleft
459   0000              	GLOBAL _zx_saddrcdown_fastcall
460   0000              	GLOBAL _zx_saddrcdown
461   0000              	GLOBAL _zx_saddr2py_fastcall
462   0000              	GLOBAL _zx_saddr2py
463   0000              	GLOBAL _zx_saddr2px_fastcall
464   0000              	GLOBAL _zx_saddr2px
465   0000              	GLOBAL _zx_saddr2cy_fastcall
466   0000              	GLOBAL _zx_saddr2cy
467   0000              	GLOBAL _zx_saddr2cx_fastcall
468   0000              	GLOBAL _zx_saddr2cx
469   0000              	GLOBAL _zx_saddr2aaddr_fastcall
470   0000              	GLOBAL _zx_saddr2aaddr
471   0000              	GLOBAL _zx_py2saddr_fastcall
472   0000              	GLOBAL _zx_py2saddr
473   0000              	GLOBAL _zx_py2aaddr_fastcall
474   0000              	GLOBAL _zx_py2aaddr
475   0000              	GLOBAL _zx_pxy2saddr_callee
476   0000              	GLOBAL _zx_pxy2saddr
477   0000              	GLOBAL _zx_pxy2aaddr_callee
478   0000              	GLOBAL _zx_pxy2aaddr
479   0000              	GLOBAL _zx_px2bitmask_fastcall
480   0000              	GLOBAL _zx_px2bitmask
481   0000              	GLOBAL _zx_cy2saddr_fastcall
482   0000              	GLOBAL _zx_cy2saddr
483   0000              	GLOBAL _zx_cy2aaddr_fastcall
484   0000              	GLOBAL _zx_cy2aaddr
485   0000              	GLOBAL _zx_cxy2saddr_callee
486   0000              	GLOBAL _zx_cxy2saddr
487   0000              	GLOBAL _zx_cxy2aaddr_callee
488   0000              	GLOBAL _zx_cxy2aaddr
489   0000              	GLOBAL _zx_bitmask2px_fastcall
490   0000              	GLOBAL _zx_bitmask2px
491   0000              	GLOBAL _zx_aaddrcup_fastcall
492   0000              	GLOBAL _zx_aaddrcup
493   0000              	GLOBAL _zx_aaddrcright_fastcall
494   0000              	GLOBAL _zx_aaddrcright
495   0000              	GLOBAL _zx_aaddrcleft_fastcall
496   0000              	GLOBAL _zx_aaddrcleft
497   0000              	GLOBAL _zx_aaddrcdown_fastcall
498   0000              	GLOBAL _zx_aaddrcdown
499   0000              	GLOBAL _zx_aaddr2saddr_fastcall
500   0000              	GLOBAL _zx_aaddr2saddr
501   0000              	GLOBAL _zx_aaddr2py_fastcall
502   0000              	GLOBAL _zx_aaddr2py
503   0000              	GLOBAL _zx_aaddr2px_fastcall
504   0000              	GLOBAL _zx_aaddr2px
505   0000              	GLOBAL _zx_aaddr2cy_fastcall
506   0000              	GLOBAL _zx_aaddr2cy
507   0000              	GLOBAL _zx_aaddr2cx_fastcall
508   0000              	GLOBAL _zx_aaddr2cx
509   0000              	GLOBAL _zx_visit_wc_pix_callee
510   0000              	GLOBAL _zx_visit_wc_pix
511   0000              	GLOBAL _zx_visit_wc_attr_callee
512   0000              	GLOBAL _zx_visit_wc_attr
513   0000              	GLOBAL _zx_scroll_wc_up_pix_callee
514   0000              	GLOBAL _zx_scroll_wc_up_pix
515   0000              	GLOBAL _zx_scroll_wc_up_attr_callee
516   0000              	GLOBAL _zx_scroll_wc_up_attr
517   0000              	GLOBAL _zx_scroll_wc_up_callee
518   0000              	GLOBAL _zx_scroll_wc_up
519   0000              	GLOBAL _zx_scroll_up_pix_callee
520   0000              	GLOBAL _zx_scroll_up_pix
521   0000              	GLOBAL _zx_scroll_up_attr_callee
522   0000              	GLOBAL _zx_scroll_up_attr
523   0000              	GLOBAL _zx_scroll_up_callee
524   0000              	GLOBAL _zx_scroll_up
525   0000              	GLOBAL _zx_cls_wc_pix_callee
526   0000              	GLOBAL _zx_cls_wc_pix
527   0000              	GLOBAL _zx_cls_wc_attr_callee
528   0000              	GLOBAL _zx_cls_wc_attr
529   0000              	GLOBAL _zx_cls_wc_callee
530   0000              	GLOBAL _zx_cls_wc
531   0000              	GLOBAL _zx_cls_pix_fastcall
532   0000              	GLOBAL _zx_cls_pix
533   0000              	GLOBAL _zx_cls_attr_fastcall
534   0000              	GLOBAL _zx_cls_attr
535   0000              	GLOBAL _zx_cls_fastcall
536   0000              	GLOBAL _zx_cls
537   0000              	GLOBAL _zx_border_fastcall
538   0000              	GLOBAL _zx_border
539   0000              	GLOBAL _zx_tape_verify_block_callee
540   0000              	GLOBAL _zx_tape_verify_block
541   0000              	GLOBAL _zx_tape_save_block_callee
542   0000              	GLOBAL _zx_tape_save_block
543   0000              	GLOBAL _zx_tape_load_block_callee
544   0000              	GLOBAL _zx_tape_load_block
545   0000              	GLOBAL _player_use_floor
546   0000              	GLOBAL _player_lost_life
547   0000              	GLOBAL _player_move_jump
548   0000              	GLOBAL _player_tile
549   0000              	GLOBAL _player_pick_exit
550   0000              	GLOBAL _player_pick_deadly
551   0000              	GLOBAL _player_pick_item
552   0000              	GLOBAL _player_check_ceil
553   0000              	GLOBAL _player_check_floor
554   0000              	GLOBAL _player_score_add
555   0000              	GLOBAL _player_move_walk
556   0000              	GLOBAL _player_turn
557   0000              	GLOBAL _player_move
558   0000              	GLOBAL _player_check_input
559   0000              	GLOBAL _player_init
560   0000              	GLOBAL _reverse
561   0000              	GLOBAL _game_copy_tile
562   0000              	GLOBAL _game_copy_tile_std
563   0000              	GLOBAL _game_flash_exit
564   0000              	GLOBAL _game_page_map
565   0000              	GLOBAL _game_attribs
566   0000              	GLOBAL _game_print_header
567   0000              	GLOBAL _game_check_time
568   0000              	GLOBAL _game_rotate_attrib_osd
569   0000              	GLOBAL _game_key_paint
570   0000              	GLOBAL _game_colour_message
571   0000              	GLOBAL _game_paint_attrib
572   0000              	GLOBAL _game_print_score
573   0000              	GLOBAL _game_cell_paint_index
574   0000              	GLOBAL _game_cell_paint
575   0000              	GLOBAL _game_check_cell
576   0000              	GLOBAL _game_check_map
577   0000              	GLOBAL _game_loop
578   0000              	GLOBAL _game_round_init
579   0000              	GLOBAL _game_start_timer
580   0000              	GLOBAL _game_update_stats
581   0000              	GLOBAL _game_print_footer
582   0000              	GLOBAL _game_fill_row
583   0000              	GLOBAL _game_cls
584   0000              	GLOBAL _game_fps
585   0000              	GLOBAL _game_draw_map
586   0000              	GLOBAL _enemy_kill
587   0000              	GLOBAL _enemy_init
588   0000              	GLOBAL _enemy_move
589   0000              	GLOBAL _enemy_turn
590   0000              	GLOBAL _enemy_static
591   0000              	GLOBAL _enemy_walk
592   0000              	GLOBAL _enemy_horizontal
593   0000              	GLOBAL _enemy_vertical
594   0000              	GLOBAL _ay_reset
595   0000              	GLOBAL _ay_song_stop
596   0000              	GLOBAL _ay_song_play
597   0000              	GLOBAL _ay_fx_stop
598   0000              	GLOBAL _ay_fx_play
599   0000              	GLOBAL _ay_is_playing
600   0000              	GLOBAL _audio_levelup
601   0000              	GLOBAL _audio_menu
602   0000              	GLOBAL _audio_game_end
603   0000              	GLOBAL _audio_level_complete
604   0000              	GLOBAL _audio_level_start
605   0000              	GLOBAL _audio_lotr_lose_a_life
606   0000              	GLOBAL _audio_puerta
607   0000              	GLOBAL _audio_sin_mana
608   0000              	GLOBAL _audio_magic1
609   0000              	GLOBAL _audio_coin
610   0000              	GLOBAL _audio_golpe
611   0000              	GLOBAL _audio_salto
612   0000              	GLOBAL _audio_efecto
613   0000              	GLOBAL _audio_disparo_fire
614   0000              	GLOBAL _audio_disparo_axe
615   0000              	GLOBAL _audio_disparo2
616   0000              	GLOBAL _audio_disparo1
617   0000              	GLOBAL _audio_explosion1
618   0000              	GLOBAL _audio_explosion
619   0000              	GLOBAL _audio_ingame
620   0000              	GLOBAL _test_func
621   0000              	GLOBAL _test_proc
622   0000              	GLOBAL _in_mouse_kempston_wheel_delta
623   0000              	GLOBAL _in_mouse_kempston_wheel
624   0000              	GLOBAL _in_mouse_kempston_callee
625   0000              	GLOBAL _in_mouse_kempston
626   0000              	GLOBAL _in_mouse_kempston_setpos_callee
627   0000              	GLOBAL _in_mouse_kempston_setpos
628   0000              	GLOBAL _in_mouse_kempston_reset
629   0000              	GLOBAL _in_mouse_kempston_init
630   0000              	GLOBAL _in_mouse_amx_wheel_delta
631   0000              	GLOBAL _in_mouse_amx_wheel
632   0000              	GLOBAL _in_mouse_amx_callee
633   0000              	GLOBAL _in_mouse_amx
634   0000              	GLOBAL _in_mouse_amx_setpos_callee
635   0000              	GLOBAL _in_mouse_amx_setpos
636   0000              	GLOBAL _in_mouse_amx_reset
637   0000              	GLOBAL _in_mouse_amx_init_callee
638   0000              	GLOBAL _in_mouse_amx_init
639   0000              	GLOBAL _in_stick_sinclair2
640   0000              	GLOBAL _in_stick_sinclair1
641   0000              	GLOBAL _in_stick_kempston
642   0000              	GLOBAL _in_stick_fuller
643   0000              	GLOBAL _in_stick_cursor
644   0000              	GLOBAL _in_stick_keyboard_fastcall
645   0000              	GLOBAL _in_stick_keyboard
646   0000              	GLOBAL _in_wait_nokey
647   0000              	GLOBAL _in_wait_key
648   0000              	GLOBAL _in_test_key
649   0000              	GLOBAL _in_pause_fastcall
650   0000              	GLOBAL _in_pause
651   0000              	GLOBAL _in_key_scancode_fastcall
652   0000              	GLOBAL _in_key_scancode
653   0000              	GLOBAL _in_key_pressed_fastcall
654   0000              	GLOBAL _in_key_pressed
655   0000              	GLOBAL _in_inkey
656   0000              	GLOBAL _NIRVANAP_CHAR_TABLE
657   0000              	GLOBAL _NIRVANAP_WIDE_IMAGES
658   0000              	GLOBAL _NIRVANAP_TILE_IMAGES
659   0000              	GLOBAL _NIRVANAP_HOLE
660   0000              	GLOBAL _NIRVANAP_ISR_HOOK
661   0000              	GLOBAL _spr_init_cout
662   0000              	GLOBAL _spr_init_cin
663   0000              	GLOBAL _scan_map
664   0000              	GLOBAL _map_paper_last
665   0000              	GLOBAL _map_paper_clr
666   0000              	GLOBAL _map_paper
667   0000              	GLOBAL _map_border
668   0000              	GLOBAL _anim_count
669   0000              	GLOBAL _anim_loop
670   0000              	GLOBAL _anim_end
671   0000              	GLOBAL _anim_int
672   0000              	GLOBAL _anim_tile
673   0000              	GLOBAL _anim_col
674   0000              	GLOBAL _anim_lin
675   0000              	GLOBAL _map_heigth
676   0000              	GLOBAL _map_width
677   0000              	GLOBAL _scr_curr
678   0000              	GLOBAL _scr_map
679   0000              	GLOBAL _spr_kind
680   0000              	GLOBAL _spr_frames
681   0000              	GLOBAL _spr_speed
682   0000              	GLOBAL _spr_tile
683   0000              	GLOBAL _screen_ink
684   0000              	GLOBAL _screen_paper
685   0000              	GLOBAL _game_start_scr
686   0000              	GLOBAL _game_score_top
687   0000              	GLOBAL _player_coins
688   0000              	GLOBAL _player_lives
689   0000              	GLOBAL _game_over
690   0000              	GLOBAL _game_tile_cnt
691   0000              	GLOBAL _game_sound
692   0000              	GLOBAL _game_inf_lives
693   0000              	GLOBAL _game_inmune
694   0000              	GLOBAL _sprite_curr_index
695   0000              	GLOBAL _spr_count
696   0000              	GLOBAL _key_ink
697   0000              	GLOBAL _key_last
698   0000              	GLOBAL _anim_time
699   0000              	GLOBAL _frame_time
700   0000              	GLOBAL _curr_time
701   0000              	GLOBAL _p_state_a
702   0000              	GLOBAL _p_state
703   0000              	GLOBAL _key_attrib
704   0000              	GLOBAL _game_attrib_osd
705   0000              	GLOBAL _attrib_osd
706   0000              	GLOBAL _attrib_hl
707   0000              	GLOBAL _attrib
708   0000              	GLOBAL _zx_val_asm
709   0000              	GLOBAL _enemies
710   0000              	GLOBAL _tmp_ui
711   0000              	GLOBAL _index1
712   0000              	GLOBAL _index0
713   0000              	GLOBAL _index_tmp
714   0000              	GLOBAL _loop_count
715   0000              	GLOBAL _s_class
716   0000              	GLOBAL _s_row1
717   0000              	GLOBAL _s_col1
718   0000              	GLOBAL _s_col0
719   0000              	GLOBAL _s_lin1
720   0000              	GLOBAL _s_lin0
721   0000              	GLOBAL _s_tile1
722   0000              	GLOBAL _s_tile0
723   0000              	GLOBAL _nirv_sprite_index
724   0000              	GLOBAL _player_kill_index
725   0000              	GLOBAL _player_killed
726   0000              	GLOBAL _player_jump_top
727   0000              	GLOBAL _game_fps_show
728   0000              	GLOBAL _game_debug
729   0000              	GLOBAL _sprite
730   0000              	GLOBAL _fps
731   0000              	GLOBAL _game_tileset
732   0000              	GLOBAL _menu_curr_sel
733   0000              	GLOBAL _game_round_up
734   0000              	GLOBAL _game_playing
735   0000              	GLOBAL _game_exit_lin
736   0000              	GLOBAL _game_exit_col
737   0000              	GLOBAL _game_conveyor_col1
738   0000              	GLOBAL _game_conveyor_col0
739   0000              	GLOBAL _game_conveyor_lin
740   0000              	GLOBAL _game_conveyor_dir
741   0000              	GLOBAL _game_song_play_start
742   0000              	GLOBAL _game_song_play
743   0000              	GLOBAL _game_world
744   0000              	GLOBAL _game_gravity
745   0000              	GLOBAL _player_jumpcount
746   0000              	GLOBAL _player_hit
747   0000              	GLOBAL _player_hit_time
748   0000              	GLOBAL _player_lin_scr
749   0000              	GLOBAL _player_col_scr
750   0000              	GLOBAL _player_jump_count
751   0000              	GLOBAL _player_jump_hack
752   0000              	GLOBAL _player_vel_inc
753   0000              	GLOBAL _player_vel_y0
754   0000              	GLOBAL _player_vel_y
755   0000              	GLOBAL _player_score
756   0000              	GLOBAL _tbuffer
757   0000              	GLOBAL _obj_count
758   0000              	GLOBAL _obj_col
759   0000              	GLOBAL _obj_lin
760   0000              	GLOBAL _spr_timer
761   0000              	GLOBAL _last_time
762   0000              	GLOBAL _colint
763   0000              	GLOBAL _col
764   0000              	GLOBAL _lin
765   0000              	GLOBAL _tile
766   0000              	GLOBAL _value_b
767   0000              	GLOBAL _value_a
768   0000              	GLOBAL _state_a
769   0000              	GLOBAL _state
770   0000              	GLOBAL _class
771   0000              	GLOBAL _dirs
772   0000              	GLOBAL _k1
773   0000              	GLOBAL _joyfunc2
774   0000              	GLOBAL _joyfunc1
775   0000              	GLOBAL _btiles
776   0000              	GLOBAL _v3
777   0000              	GLOBAL _v2
778   0000              	GLOBAL _v1
779   0000              	GLOBAL _v0
780   0000              	GLOBAL _i
781   0000              	GLOBAL _spec128
782   0000              	GLOBAL _GLOBAL_ZX_PORT_7FFD
783   0000              	GLOBAL _GLOBAL_ZX_PORT_1FFD
784   0000              	GLOBAL _GLOBAL_ZX_PORT_FE
785   0000              	GLOBAL _ay_fx_06_disparo_fire
786   0000              	GLOBAL _ay_fx_06_disparo_axe
787   0000              	GLOBAL _ay_fx_06_explosion1
788   0000              	GLOBAL _ay_fx_06_efecto
789   0000              	GLOBAL _ay_fx_06_disparo2
790   0000              	GLOBAL _ay_fx_06_disparo1
791   0000              	GLOBAL _ay_fx_06_levelup
792   0000              	GLOBAL _ay_fx_06_magic
793   0000              	GLOBAL _ay_fx_06_sin_mana
794   0000              	GLOBAL _ay_fx_06_salto
795   0000              	GLOBAL _ay_fx_06_puerta
796   0000              	GLOBAL _ay_fx_06_magic1
797   0000              	GLOBAL _ay_fx_06_golpe
798   0000              	GLOBAL _ay_fx_06_explosion
799   0000              	GLOBAL _ay_fx_06_dano_por_toque
800   0000              	GLOBAL _ay_fx_06_coin
801   0000              	GLOBAL _ay_song_06_lotr_level_start
802   0000              	GLOBAL _ay_song_06_lotr_level_complete
803   0000              	GLOBAL _ay_song_06_lotr_lose_a_life
804   0000              	GLOBAL _ay_song_04_ingame0
805   0000              	GLOBAL _ay_song_04_ingame
806   0000              	GLOBAL _hibtiles
807   0000              	GLOBAL _key_map
808   0000              	GLOBAL _paper0
809   0000              	GLOBAL _lenght0
810   0000              	GLOBAL _world0
811   0000              	GLOBAL _spr_init_len
812   0000              	GLOBAL _spr_init
813   0000              ;--------------------------------------------------------
814   0000              ; special function registers
815   0000              ;--------------------------------------------------------
816   0000              defc _IO_FE	=	0x00fe
817   0000              defc _IO_1FFD	=	0x1ffd
818   0000              defc _IO_7FFD	=	0x7ffd
819   0000              ;--------------------------------------------------------
820   0000              ; ram data
821   0000              ;--------------------------------------------------------
822   0000              	SECTION bss_compiler
823   0000              ;--------------------------------------------------------
824   0000              ; ram data
825   0000              ;--------------------------------------------------------
826   0000              
827   0000              IF 0
828   0000              
829   0000              ; .area _INITIALIZED removed by z88dk
830   0000              
831   0000              
832   0000              ENDIF
833   0000              
834   0000              ;--------------------------------------------------------
835   0000              ; absolute external ram data
836   0000              ;--------------------------------------------------------
837   0000              	SECTION IGNORE
838   0000              ;--------------------------------------------------------
839   0000              ; global & static initialisations
840   0000              ;--------------------------------------------------------
841   0000              	SECTION code_crt_init
842   0000              ;--------------------------------------------------------
843   0000              ; Home
844   0000              ;--------------------------------------------------------
845   0000              	SECTION IGNORE
846   0000              ;--------------------------------------------------------
847   0000              ; code
848   0000              ;--------------------------------------------------------
849   0000              	SECTION code_compiler
850   0000              ;	---------------------------------
851   0000              ; Function spr_calc_index
852   0000              ; ---------------------------------
853   0000              _spr_calc_index:
854   0000  CD 00 00    	call	___sdcc_enter_ix
855   0003  DD 4E 05    	ld	c,(ix+5)
856   0006  06 00       	ld	b,0x00
857   0008  DD 7E 04    	ld	a,(ix+4)
858   000B  0F          	rrca
859   000C  0F          	rrca
860   000D  0F          	rrca
861   000E  E6 1F       	and	a,0x1f
862   0010  6F          	ld	l, a
863   0011  26 00       	ld	h,0x00
864   0013  29          	add	hl, hl
865   0014  29          	add	hl, hl
866   0015  29          	add	hl, hl
867   0016  29          	add	hl, hl
868   0017  29          	add	hl, hl
869   0018  09          	add	hl, bc
870   0019  DD E1       	pop	ix
871   001B  C9          	ret
872   001C              	SECTION code_compiler
873   001C              ;	---------------------------------
874   001C              ; Function spr_chktime
875   001C              ; ---------------------------------
876   001C              _spr_chktime:
877   001C  CD 00 00    	call	___sdcc_enter_ix
878   001F  F5          	push	af
879   0020  EB          	ex	de,hl
880   0021  ED 4B 00 00 	ld	bc,(_curr_time)
881   0025  1A          	ld	a, (de)
882   0026  5F          	ld	e,a
883   0027  6F          	ld	l,a
884   0028  26 00       	ld	h,0x00
885   002A  29          	add	hl, hl
886   002B  3E 00       	ld	a, +((_last_time) & 0xFF)
887   002D  85          	add	a, l
888   002E  DD 77 FE    	ld	(ix-2),a
889   0031  3E 00       	ld	a, +((_last_time) / 256)
890   0033  8C          	adc	a, h
891   0034  DD 77 FF    	ld	(ix-1),a
892   0037  E1          	pop	hl
893   0038  7E          	ld	a,(hl)
894   0039  E5          	push	hl
895   003A  23          	inc	hl
896   003B  66          	ld	h, (hl)
897   003C  6F          	ld	l, a
898   003D  79          	ld	a, c
899   003E  95          	sub	a, l
900   003F  4F          	ld	c, a
901   0040  78          	ld	a, b
902   0041  9C          	sbc	a, h
903   0042  47          	ld	b, a
904   0043  16 00       	ld	d,0x00
905   0045  21 00 00    	ld	hl,_spr_speed
906   0048  19          	add	hl, de
907   0049  5E          	ld	e, (hl)
908   004A  16 00       	ld	d,0x00
909   004C  79          	ld	a, c
910   004D  93          	sub	a, e
911   004E  78          	ld	a, b
912   004F  9A          	sbc	a, d
913   0050  38 0D       	jr	C,l_spr_chktime_00102
914   0052  E1          	pop	hl
915   0053  ED 4B 00 00 	ld	bc,(_curr_time)
916   0057  E5          	push	hl
917   0058  71          	ld	(hl), c
918   0059  23          	inc	hl
919   005A  70          	ld	(hl), b
920   005B  2E 01       	ld	l,0x01
921   005D  18 02       	jr	l_spr_chktime_00103
922   005F              l_spr_chktime_00102:
923   005F  2E 00       	ld	l,0x00
924   0061              l_spr_chktime_00103:
925   0061  F1          	pop	af
926   0062  DD E1       	pop	ix
927   0064  C9          	ret
928   0065              	SECTION code_compiler
929   0065              ;	---------------------------------
930   0065              ; Function spr_set_up
931   0065              ; ---------------------------------
932   0065              _spr_set_up:
933   0065  ED 4B 00 00 	ld	bc,(_p_state)
934   0069  0A          	ld	a,(bc)
935   006A  F6 01       	or	a,0x01
936   006C  02          	ld	(bc),a
937   006D  ED 4B 00 00 	ld	bc,(_p_state)
938   0071  0A          	ld	a,(bc)
939   0072  E6 FD       	and	a,0xfd
940   0074  02          	ld	(bc), a
941   0075  C9          	ret
942   0076              	SECTION code_compiler
943   0076              ;	---------------------------------
944   0076              ; Function spr_set_down
945   0076              ; ---------------------------------
946   0076              _spr_set_down:
947   0076  ED 4B 00 00 	ld	bc,(_p_state)
948   007A  0A          	ld	a,(bc)
949   007B  F6 02       	or	a,0x02
950   007D  02          	ld	(bc),a
951   007E  ED 4B 00 00 	ld	bc,(_p_state)
952   0082  0A          	ld	a,(bc)
953   0083  E6 FE       	and	a,0xfe
954   0085  02          	ld	(bc), a
955   0086  C9          	ret
956   0087              	SECTION code_compiler
957   0087              ;	---------------------------------
958   0087              ; Function spr_set_left
959   0087              ; ---------------------------------
960   0087              _spr_set_left:
961   0087  ED 4B 00 00 	ld	bc,(_p_state_a)
962   008B  0A          	ld	a,(bc)
963   008C  E6 EF       	and	a,0xef
964   008E  02          	ld	(bc),a
965   008F  ED 4B 00 00 	ld	bc,(_p_state_a)
966   0093  0A          	ld	a,(bc)
967   0094  F6 08       	or	a,0x08
968   0096  02          	ld	(bc), a
969   0097  ED 4B 00 00 	ld	bc,(_p_state)
970   009B  0A          	ld	a,(bc)
971   009C  E6 FB       	and	a,0xfb
972   009E  02          	ld	(bc),a
973   009F  ED 4B 00 00 	ld	bc,(_p_state)
974   00A3  0A          	ld	a,(bc)
975   00A4  F6 08       	or	a,0x08
976   00A6  02          	ld	(bc), a
977   00A7  C9          	ret
978   00A8              	SECTION code_compiler
979   00A8              ;	---------------------------------
980   00A8              ; Function spr_set_right
981   00A8              ; ---------------------------------
982   00A8              _spr_set_right:
983   00A8  ED 4B 00 00 	ld	bc,(_p_state_a)
984   00AC  0A          	ld	a,(bc)
985   00AD  E6 F7       	and	a,0xf7
986   00AF  02          	ld	(bc),a
987   00B0  ED 4B 00 00 	ld	bc,(_p_state_a)
988   00B4  0A          	ld	a,(bc)
989   00B5  F6 10       	or	a,0x10
990   00B7  02          	ld	(bc), a
991   00B8  ED 4B 00 00 	ld	bc,(_p_state)
992   00BC  0A          	ld	a,(bc)
993   00BD  E6 F7       	and	a,0xf7
994   00BF  02          	ld	(bc),a
995   00C0  ED 4B 00 00 	ld	bc,(_p_state)
996   00C4  0A          	ld	a,(bc)
997   00C5  F6 04       	or	a,0x04
998   00C7  02          	ld	(bc), a
999   00C8  C9          	ret
1000  00C9              	SECTION code_compiler
1001  00C9              ;	---------------------------------
1002  00C9              ; Function spr_move_up_f
1003  00C9              ; ---------------------------------
1004  00C9              _spr_move_up_f:
1005  00C9  2A 00 00    	ld	hl,(_sprite)
1006  00CC  26 00       	ld	h,0x00
1007  00CE  01 00 00    	ld	bc,_lin
1008  00D1  09          	add	hl,bc
1009  00D2  7E          	ld	a,(hl)
1010  00D3  B7          	or	a,a
1011  00D4  28 03       	jr	Z,l_spr_move_up_f_00102
1012  00D6  C6 FE       	add	a,0xfe
1013  00D8  77          	ld	(hl),a
1014  00D9              l_spr_move_up_f_00102:
1015  00D9  2E 00       	ld	l,0x00
1016  00DB  C9          	ret
1017  00DC              	SECTION code_compiler
1018  00DC              ;	---------------------------------
1019  00DC              ; Function spr_move_down_f
1020  00DC              ; ---------------------------------
1021  00DC              _spr_move_down_f:
1022  00DC  2A 00 00    	ld	hl,(_sprite)
1023  00DF  26 00       	ld	h,0x00
1024  00E1  01 00 00    	ld	bc,_lin
1025  00E4  09          	add	hl,bc
1026  00E5  5E          	ld	e,(hl)
1027  00E6  3E 80       	ld	a,0x80
1028  00E8  93          	sub	a,e
1029  00E9  38 03       	jr	C,l_spr_move_down_f_00102
1030  00EB  1C          	inc	e
1031  00EC  1C          	inc	e
1032  00ED  73          	ld	(hl), e
1033  00EE              l_spr_move_down_f_00102:
1034  00EE  2E 00       	ld	l,0x00
1035  00F0  C9          	ret
1036  00F1              	SECTION code_compiler
1037  00F1              ;	---------------------------------
1038  00F1              ; Function spr_move_up
1039  00F1              ; ---------------------------------
1040  00F1              _spr_move_up:
1041  00F1  2A 00 00    	ld	hl,(_sprite)
1042  00F4  26 00       	ld	h,0x00
1043  00F6  01 00 00    	ld	bc,_lin
1044  00F9  09          	add	hl,bc
1045  00FA  4E          	ld	c,(hl)
1046  00FB  3E 10       	ld	a,0x10
1047  00FD  91          	sub	a, c
1048  00FE  38 05       	jr	C,l_spr_move_up_00115
1049  0100  2E 01       	ld	l,0x01
1050  0102  C3 CC 01    	jp	l_spr_move_up_00117
1051  0105              l_spr_move_up_00115:
1052  0105  79          	ld	a, c
1053  0106  C6 FE       	add	a,0xfe
1054  0108  32 00 00    	ld	(_s_lin1),a
1055  010B  4F          	ld	c,a
1056  010C  CB 39       	srl	c
1057  010E  CB 39       	srl	c
1058  0110  CB 39       	srl	c
1059  0112  3A 00 00    	ld	a,(_s_lin0)
1060  0115  CB 3F       	srl	a
1061  0117  CB 3F       	srl	a
1062  0119  CB 3F       	srl	a
1063  011B  91          	sub	a, c
1064  011C  20 04       	jr	NZ,l_spr_move_up_00147
1065  011E  3E 01       	ld	a,0x01
1066  0120  18 01       	jr	l_spr_move_up_00148
1067  0122              l_spr_move_up_00147:
1068  0122  AF          	xor	a,a
1069  0123              l_spr_move_up_00148:
1070  0123  EE 01       	xor	a,0x01
1071  0125  CA BD 01    	jp	Z, l_spr_move_up_00113
1072  0128  2A 00 00    	ld	hl,(_sprite)
1073  012B  26 00       	ld	h,0x00
1074  012D  01 00 00    	ld	bc,_colint
1075  0130  09          	add	hl,bc
1076  0131  7E          	ld	a,(hl)
1077  0132  B7          	or	a,a
1078  0133  20 1A       	jr	NZ,l_spr_move_up_00104
1079  0135  2A 00 00    	ld	hl,(_sprite)
1080  0138  26 00       	ld	h,0x00
1081  013A  01 00 00    	ld	bc,_col
1082  013D  09          	add	hl,bc
1083  013E  2A 00 00    	ld	hl, (_s_lin1)
1084  0141  E5          	push	hl
1085  0142  CD 00 00    	call	_game_check_map
1086  0145  F1          	pop	af
1087  0146  7D          	ld	a, l
1088  0147  B7          	or	a, a
1089  0148  28 05       	jr	Z,l_spr_move_up_00104
1090  014A  2E 01       	ld	l,0x01
1091  014C  C3 CC 01    	jp	l_spr_move_up_00117
1092  014F              l_spr_move_up_00104:
1093  014F  2A 00 00    	ld	hl,(_sprite)
1094  0152  26 00       	ld	h,0x00
1095  0154  01 00 00    	ld	bc,_colint
1096  0157  09          	add	hl,bc
1097  0158  5E          	ld	e, (hl)
1098  0159  2A 00 00    	ld	hl,(_sprite)
1099  015C  26 00       	ld	h,0x00
1100  015E  01 00 00    	ld	bc,_spr_frames
1101  0161  09          	add	hl,bc
1102  0162  4E          	ld	c, (hl)
1103  0163  06 00       	ld	b,0x00
1104  0165  0B          	dec	bc
1105  0166  16 00       	ld	d,0x00
1106  0168  7B          	ld	a,e
1107  0169  91          	sub	a,c
1108  016A  20 20       	jr	NZ,l_spr_move_up_00108
1109  016C  7A          	ld	a,d
1110  016D  90          	sub	a,b
1111  016E  20 1C       	jr	NZ,l_spr_move_up_00108
1112  0170  2A 00 00    	ld	hl,(_sprite)
1113  0173  26 00       	ld	h,0x00
1114  0175  01 00 00    	ld	bc,_col
1115  0178  09          	add	hl,bc
1116  0179  46          	ld	b, (hl)
1117  017A  04          	inc	b
1118  017B  3A 00 00    	ld	a,(_s_lin1)
1119  017E  4F          	ld	c,a
1120  017F  C5          	push	bc
1121  0180  CD 00 00    	call	_game_check_map
1122  0183  F1          	pop	af
1123  0184  7D          	ld	a, l
1124  0185  B7          	or	a, a
1125  0186  28 04       	jr	Z,l_spr_move_up_00108
1126  0188  2E 01       	ld	l,0x01
1127  018A  18 40       	jr	l_spr_move_up_00117
1128  018C              l_spr_move_up_00108:
1129  018C  2A 00 00    	ld	hl,(_sprite)
1130  018F  26 00       	ld	h,0x00
1131  0191  01 00 00    	ld	bc,_col
1132  0194  09          	add	hl,bc
1133  0195  2A 00 00    	ld	hl, (_s_lin1)
1134  0198  E5          	push	hl
1135  0199  CD 00 00    	call	_game_check_map
1136  019C  F1          	pop	af
1137  019D  7D          	ld	a, l
1138  019E  B7          	or	a, a
1139  019F  20 18       	jr	NZ,l_spr_move_up_00109
1140  01A1  2A 00 00    	ld	hl,(_sprite)
1141  01A4  26 00       	ld	h,0x00
1142  01A6  01 00 00    	ld	bc,_col
1143  01A9  09          	add	hl,bc
1144  01AA  46          	ld	b,(hl)
1145  01AB  04          	inc	b
1146  01AC  3A 00 00    	ld	a,(_s_lin1)
1147  01AF  4F          	ld	c,a
1148  01B0  C5          	push	bc
1149  01B1  CD 00 00    	call	_game_check_map
1150  01B4  F1          	pop	af
1151  01B5  7D          	ld	a, l
1152  01B6  B7          	or	a, a
1153  01B7  28 04       	jr	Z,l_spr_move_up_00113
1154  01B9              l_spr_move_up_00109:
1155  01B9  2E 01       	ld	l,0x01
1156  01BB  18 0F       	jr	l_spr_move_up_00117
1157  01BD              l_spr_move_up_00113:
1158  01BD  2A 00 00    	ld	hl,(_sprite)
1159  01C0  26 00       	ld	h,0x00
1160  01C2  01 00 00    	ld	bc,_lin
1161  01C5  09          	add	hl,bc
1162  01C6  3A 00 00    	ld	a,(_s_lin1)
1163  01C9  77          	ld	(hl),a
1164  01CA  2E 00       	ld	l,0x00
1165  01CC              l_spr_move_up_00117:
1166  01CC  C9          	ret
1167  01CD              	SECTION code_compiler
1168  01CD              ;	---------------------------------
1169  01CD              ; Function spr_draw8
1170  01CD              ; ---------------------------------
1171  01CD              _spr_draw8:
1172  01CD  CD 00 00    	call	___sdcc_enter_ix
1173  01D0  F5          	push	af
1174  01D1  F5          	push	af
1175  01D2  DD 7E 04    	ld	a,(ix+4)
1176  01D5  D6 10       	sub	a,0x10
1177  01D7  30 0F       	jr	NC,l_spr_draw8_00102
1178  01D9  DD 4E 04    	ld	c,(ix+4)
1179  01DC  CB 39       	srl	c
1180  01DE  DD 7E 04    	ld	a,(ix+4)
1181  01E1  E6 01       	and	a,0x01
1182  01E3  DD 77 04    	ld	(ix+4),a
1183  01E6  18 15       	jr	l_spr_draw8_00103
1184  01E8              l_spr_draw8_00102:
1185  01E8  DD 7E 04    	ld	a,(ix+4)
1186  01EB  C6 F0       	add	a,0xf0
1187  01ED  DD 77 04    	ld	(ix+4),a
1188  01F0  4F          	ld	c, a
1189  01F1  CB 39       	srl	c
1190  01F3  DD 7E 04    	ld	a,(ix+4)
1191  01F6  E6 01       	and	a,0x01
1192  01F8  C6 02       	add	a,0x02
1193  01FA  DD 77 04    	ld	(ix+4),a
1194  01FD              l_spr_draw8_00103:
1195  01FD  06 00       	ld	b,0x00
1196  01FF  69          	ld	l, c
1197  0200  60          	ld	h, b
1198  0201  29          	add	hl, hl
1199  0202  09          	add	hl, bc
1200  0203  29          	add	hl, hl
1201  0204  29          	add	hl, hl
1202  0205  29          	add	hl, hl
1203  0206  29          	add	hl, hl
1204  0207  01 00 00    	ld	bc,_btiles
1205  020A  09          	add	hl,bc
1206  020B  DD 7E 04    	ld	a,(ix+4)
1207  020E  B7          	or	a,a
1208  020F  4D          	ld	c,l
1209  0210  44          	ld	b,h
1210  0211  28 16       	jr	Z,l_spr_draw8_00104
1211  0213  DD 7E 04    	ld	a,(ix+4)
1212  0216  3D          	dec	a
1213  0217  28 1A       	jr	Z,l_spr_draw8_00105
1214  0219  DD 7E 04    	ld	a,(ix+4)
1215  021C  D6 02       	sub	a,0x02
1216  021E  28 1E       	jr	Z,l_spr_draw8_00106
1217  0220  DD 7E 04    	ld	a,(ix+4)
1218  0223  D6 03       	sub	a,0x03
1219  0225  28 24       	jr	Z,l_spr_draw8_00107
1220  0227  18 2D       	jr	l_spr_draw8_00108
1221  0229              l_spr_draw8_00104:
1222  0229  59          	ld	e, c
1223  022A  50          	ld	d, b
1224  022B  21 20 00    	ld	hl,0x0020
1225  022E  09          	add	hl,bc
1226  022F  4D          	ld	c, l
1227  0230  44          	ld	b, h
1228  0231  18 23       	jr	l_spr_draw8_00108
1229  0233              l_spr_draw8_00105:
1230  0233  59          	ld	e, c
1231  0234  50          	ld	d, b
1232  0235  13          	inc	de
1233  0236  21 28 00    	ld	hl,0x0028
1234  0239  09          	add	hl,bc
1235  023A  4D          	ld	c, l
1236  023B  44          	ld	b, h
1237  023C  18 18       	jr	l_spr_draw8_00108
1238  023E              l_spr_draw8_00106:
1239  023E  21 10 00    	ld	hl,0x0010
1240  0241  09          	add	hl,bc
1241  0242  EB          	ex	de,hl
1242  0243  21 24 00    	ld	hl,0x0024
1243  0246  09          	add	hl,bc
1244  0247  4D          	ld	c, l
1245  0248  44          	ld	b, h
1246  0249  18 0B       	jr	l_spr_draw8_00108
1247  024B              l_spr_draw8_00107:
1248  024B  21 11 00    	ld	hl,0x0011
1249  024E  09          	add	hl,bc
1250  024F  EB          	ex	de,hl
1251  0250  21 2C 00    	ld	hl,0x002c
1252  0253  09          	add	hl,bc
1253  0254  4D          	ld	c, l
1254  0255  44          	ld	b, h
1255  0256              l_spr_draw8_00108:
1256  0256  0A          	ld	a, (bc)
1257  0257  32 00 00    	ld	(_attrib),a
1258  025A  03          	inc	bc
1259  025B  0A          	ld	a, (bc)
1260  025C  32 01 00    	ld	((_attrib + 0x0001)),a
1261  025F  03          	inc	bc
1262  0260  0A          	ld	a, (bc)
1263  0261  32 02 00    	ld	((_attrib + 0x0002)),a
1264  0264  03          	inc	bc
1265  0265  0A          	ld	a, (bc)
1266  0266  32 03 00    	ld	((_attrib + 0x0003)),a
1267  0269  DD 7E 05    	ld	a,(ix+5)
1268  026C  C6 08       	add	a,0x08
1269  026E  47          	ld	b, a
1270  026F  C5          	push	bc
1271  0270  D5          	push	de
1272  0271  DD 7E 06    	ld	a,(ix+6)
1273  0274  48          	ld	c,b
1274  0275  47          	ld	b,a
1275  0276  C5          	push	bc
1276  0277  21 00 00    	ld	hl,_attrib
1277  027A  E5          	push	hl
1278  027B  CD 00 00    	call	_NIRVANAP_paintC_callee
1279  027E  D1          	pop	de
1280  027F  C1          	pop	bc
1281  0280  DD 70 FC    	ld	(ix-4),b
1282  0283  DD 7E 05    	ld	a,(ix+5)
1283  0286  DD 77 FF    	ld	(ix-1),a
1284  0289              l_spr_draw8_00109:
1285  0289  DD 7E FF    	ld	a,(ix-1)
1286  028C  DD 96 FC    	sub	a,(ix-4)
1287  028F  30 18       	jr	NC,l_spr_draw8_00112
1288  0291  DD 6E FF    	ld	l,(ix-1)
1289  0294  CD 00 00    	call	_zx_py2saddr_fastcall
1290  0297  7D          	ld	a,l
1291  0298  DD 86 06    	add	a,(ix+6)
1292  029B  4F          	ld	c,a
1293  029C  7C          	ld	a,h
1294  029D  CE 00       	adc	a,0x00
1295  029F  47          	ld	b, a
1296  02A0  1A          	ld	a, (de)
1297  02A1  02          	ld	(bc), a
1298  02A2  13          	inc	de
1299  02A3  13          	inc	de
1300  02A4  DD 34 FF    	inc	(ix-1)
1301  02A7  18 E0       	jr	l_spr_draw8_00109
1302  02A9              l_spr_draw8_00112:
1303  02A9  DD F9       	ld	sp, ix
1304  02AB  DD E1       	pop	ix
1305  02AD  C9          	ret
1306  02AE              	SECTION code_compiler
1307  02AE              ;	---------------------------------
1308  02AE              ; Function spr_move_down
1309  02AE              ; ---------------------------------
1310  02AE              _spr_move_down:
1311  02AE  2A 00 00    	ld	hl,(_sprite)
1312  02B1  26 00       	ld	h,0x00
1313  02B3  01 00 00    	ld	bc,_lin
1314  02B6  09          	add	hl,bc
1315  02B7  7E          	ld	a,(hl)
1316  02B8  FE 80       	cp	a,0x80
1317  02BA  38 07       	jr	C,l_spr_move_down_00115
1318  02BC  36 80       	ld	(hl),0x80
1319  02BE  2E 01       	ld	l,0x01
1320  02C0  C3 8D 03    	jp	l_spr_move_down_00117
1321  02C3              l_spr_move_down_00115:
1322  02C3  C6 10       	add	a,0x10
1323  02C5  32 00 00    	ld	(_s_lin1),a
1324  02C8  4F          	ld	c,a
1325  02C9  CB 39       	srl	c
1326  02CB  CB 39       	srl	c
1327  02CD  CB 39       	srl	c
1328  02CF  21 00 00    	ld	hl,_s_lin0
1329  02D2  5E          	ld	e, (hl)
1330  02D3  CB 3B       	srl	e
1331  02D5  CB 3B       	srl	e
1332  02D7  CB 3B       	srl	e
1333  02D9  79          	ld	a, c
1334  02DA  93          	sub	a, e
1335  02DB  20 04       	jr	NZ,l_spr_move_down_00147
1336  02DD  3E 01       	ld	a,0x01
1337  02DF  18 01       	jr	l_spr_move_down_00148
1338  02E1              l_spr_move_down_00147:
1339  02E1  AF          	xor	a,a
1340  02E2              l_spr_move_down_00148:
1341  02E2  EE 01       	xor	a,0x01
1342  02E4  CA 7C 03    	jp	Z, l_spr_move_down_00113
1343  02E7  2A 00 00    	ld	hl,(_sprite)
1344  02EA  26 00       	ld	h,0x00
1345  02EC  01 00 00    	ld	bc,_colint
1346  02EF  09          	add	hl,bc
1347  02F0  7E          	ld	a,(hl)
1348  02F1  B7          	or	a,a
1349  02F2  20 1A       	jr	NZ,l_spr_move_down_00104
1350  02F4  2A 00 00    	ld	hl,(_sprite)
1351  02F7  26 00       	ld	h,0x00
1352  02F9  01 00 00    	ld	bc,_col
1353  02FC  09          	add	hl,bc
1354  02FD  2A 00 00    	ld	hl, (_s_lin1)
1355  0300  E5          	push	hl
1356  0301  CD 00 00    	call	_game_check_map
1357  0304  F1          	pop	af
1358  0305  7D          	ld	a, l
1359  0306  B7          	or	a, a
1360  0307  28 05       	jr	Z,l_spr_move_down_00104
1361  0309  2E 01       	ld	l,0x01
1362  030B  C3 8D 03    	jp	l_spr_move_down_00117
1363  030E              l_spr_move_down_00104:
1364  030E  2A 00 00    	ld	hl,(_sprite)
1365  0311  26 00       	ld	h,0x00
1366  0313  01 00 00    	ld	bc,_colint
1367  0316  09          	add	hl,bc
1368  0317  5E          	ld	e, (hl)
1369  0318  2A 00 00    	ld	hl,(_sprite)
1370  031B  26 00       	ld	h,0x00
1371  031D  01 00 00    	ld	bc,_spr_frames
1372  0320  09          	add	hl,bc
1373  0321  4E          	ld	c, (hl)
1374  0322  06 00       	ld	b,0x00
1375  0324  0B          	dec	bc
1376  0325  16 00       	ld	d,0x00
1377  0327  7B          	ld	a,e
1378  0328  91          	sub	a,c
1379  0329  20 20       	jr	NZ,l_spr_move_down_00108
1380  032B  7A          	ld	a,d
1381  032C  90          	sub	a,b
1382  032D  20 1C       	jr	NZ,l_spr_move_down_00108
1383  032F  2A 00 00    	ld	hl,(_sprite)
1384  0332  26 00       	ld	h,0x00
1385  0334  01 00 00    	ld	bc,_col
1386  0337  09          	add	hl,bc
1387  0338  46          	ld	b, (hl)
1388  0339  04          	inc	b
1389  033A  3A 00 00    	ld	a,(_s_lin1)
1390  033D  4F          	ld	c,a
1391  033E  C5          	push	bc
1392  033F  CD 00 00    	call	_game_check_map
1393  0342  F1          	pop	af
1394  0343  7D          	ld	a, l
1395  0344  B7          	or	a, a
1396  0345  28 04       	jr	Z,l_spr_move_down_00108
1397  0347  2E 01       	ld	l,0x01
1398  0349  18 42       	jr	l_spr_move_down_00117
1399  034B              l_spr_move_down_00108:
1400  034B  2A 00 00    	ld	hl,(_sprite)
1401  034E  26 00       	ld	h,0x00
1402  0350  01 00 00    	ld	bc,_col
1403  0353  09          	add	hl,bc
1404  0354  2A 00 00    	ld	hl, (_s_lin1)
1405  0357  E5          	push	hl
1406  0358  CD 00 00    	call	_game_check_map
1407  035B  F1          	pop	af
1408  035C  7D          	ld	a, l
1409  035D  B7          	or	a, a
1410  035E  20 18       	jr	NZ,l_spr_move_down_00109
1411  0360  2A 00 00    	ld	hl,(_sprite)
1412  0363  26 00       	ld	h,0x00
1413  0365  01 00 00    	ld	bc,_col
1414  0368  09          	add	hl,bc
1415  0369  46          	ld	b,(hl)
1416  036A  04          	inc	b
1417  036B  3A 00 00    	ld	a,(_s_lin1)
1418  036E  4F          	ld	c,a
1419  036F  C5          	push	bc
1420  0370  CD 00 00    	call	_game_check_map
1421  0373  F1          	pop	af
1422  0374  7D          	ld	a, l
1423  0375  B7          	or	a, a
1424  0376  28 04       	jr	Z,l_spr_move_down_00113
1425  0378              l_spr_move_down_00109:
1426  0378  2E 01       	ld	l,0x01
1427  037A  18 11       	jr	l_spr_move_down_00117
1428  037C              l_spr_move_down_00113:
1429  037C  2A 00 00    	ld	hl,(_sprite)
1430  037F  26 00       	ld	h,0x00
1431  0381  01 00 00    	ld	bc,_lin
1432  0384  09          	add	hl,bc
1433  0385  3A 00 00    	ld	a,(_s_lin1)
1434  0388  C6 F2       	add	a,0xf2
1435  038A  77          	ld	(hl),a
1436  038B  2E 00       	ld	l,0x00
1437  038D              l_spr_move_down_00117:
1438  038D  C9          	ret
1439  038E              	SECTION code_compiler
1440  038E              ;	---------------------------------
1441  038E              ; Function spr_move_horizontal
1442  038E              ; ---------------------------------
1443  038E              _spr_move_horizontal:
1444  038E  CD 00 00    	call	___sdcc_enter_ix
1445  0391  3B          	dec	sp
1446  0392  ED 4B 00 00 	ld	bc,(_p_state)
1447  0396  0A          	ld	a,(bc)
1448  0397  CB 57       	bit	2, a
1449  0399  28 04       	jr	Z,l_spr_move_horizontal_00102
1450  039B  CD 11 04    	call	_spr_move_right
1451  039E  4D          	ld	c, l
1452  039F              l_spr_move_horizontal_00102:
1453  039F  2A 00 00    	ld	hl,(_p_state)
1454  03A2  CB 5E       	bit	3,(hl)
1455  03A4  28 04       	jr	Z,l_spr_move_horizontal_00104
1456  03A6  CD 0C 05    	call	_spr_move_left
1457  03A9  4D          	ld	c, l
1458  03AA              l_spr_move_horizontal_00104:
1459  03AA  69          	ld	l, c
1460  03AB  33          	inc	sp
1461  03AC  DD E1       	pop	ix
1462  03AE  C9          	ret
1463  03AF              	SECTION code_compiler
1464  03AF              ;	---------------------------------
1465  03AF              ; Function spr_move_right_f
1466  03AF              ; ---------------------------------
1467  03AF              _spr_move_right_f:
1468  03AF  CD 00 00    	call	___sdcc_enter_ix
1469  03B2  F5          	push	af
1470  03B3  3B          	dec	sp
1471  03B4  2A 00 00    	ld	hl,(_sprite)
1472  03B7  26 00       	ld	h,0x00
1473  03B9  01 00 00    	ld	bc,_colint
1474  03BC  09          	add	hl,bc
1475  03BD  4D          	ld	c,l
1476  03BE  44          	ld	b,h
1477  03BF  2A 00 00    	ld	hl,(_sprite)
1478  03C2  26 00       	ld	h,0x00
1479  03C4  11 00 00    	ld	de,_col
1480  03C7  19          	add	hl,de
1481  03C8  D1          	pop	de
1482  03C9  0A          	ld	a,(bc)
1483  03CA  E5          	push	hl
1484  03CB  3C          	inc	a
1485  03CC  21 00 00    	ld	hl,_sprite
1486  03CF  DD 77 FF    	ld	(ix-1),a
1487  03D2  02          	ld	(bc),a
1488  03D3  3E 00       	ld	a, +((_spr_frames) & 0xFF)
1489  03D5  86          	add	a, (hl)
1490  03D6  5F          	ld	e, a
1491  03D7  3E 00       	ld	a, +((_spr_frames) / 256)
1492  03D9  CE 00       	adc	a,0x00
1493  03DB  57          	ld	d, a
1494  03DC  1A          	ld	a, (de)
1495  03DD  5F          	ld	e, a
1496  03DE  DD 7E FF    	ld	a,(ix-1)
1497  03E1  93          	sub	a, e
1498  03E2  38 26       	jr	C,l_spr_move_right_f_00106
1499  03E4  5E          	ld	e,(hl)
1500  03E5  16 00       	ld	d,0x00
1501  03E7  21 00 00    	ld	hl,_lin
1502  03EA  19          	add	hl,de
1503  03EB  7E          	ld	a,(hl)
1504  03EC  E1          	pop	hl
1505  03ED  32 00 00    	ld	(_s_lin1),a
1506  03F0  7E          	ld	a,(hl)
1507  03F1  E5          	push	hl
1508  03F2  5F          	ld	e,a
1509  03F3  D6 1F       	sub	a,0x1f
1510  03F5  30 13       	jr	NC,l_spr_move_right_f_00106
1511  03F7  1C          	inc	e
1512  03F8  E1          	pop	hl
1513  03F9  E5          	push	hl
1514  03FA  73          	ld	(hl), e
1515  03FB  AF          	xor	a, a
1516  03FC  02          	ld	(bc), a
1517  03FD  3E 1F       	ld	a,0x1f
1518  03FF  93          	sub	a, e
1519  0400  30 08       	jr	NC,l_spr_move_right_f_00106
1520  0402  E1          	pop	hl
1521  0403  E5          	push	hl
1522  0404  36 1F       	ld	(hl),0x1f
1523  0406  2E 01       	ld	l,0x01
1524  0408  18 02       	jr	l_spr_move_right_f_00107
1525  040A              l_spr_move_right_f_00106:
1526  040A  2E 00       	ld	l,0x00
1527  040C              l_spr_move_right_f_00107:
1528  040C  DD F9       	ld	sp, ix
1529  040E  DD E1       	pop	ix
1530  0410  C9          	ret
1531  0411              	SECTION code_compiler
1532  0411              ;	---------------------------------
1533  0411              ; Function spr_move_right
1534  0411              ; ---------------------------------
1535  0411              _spr_move_right:
1536  0411  CD 00 00    	call	___sdcc_enter_ix
1537  0414  F5          	push	af
1538  0415  F5          	push	af
1539  0416  3E 00       	ld	a, +((_colint) & 0xFF)
1540  0418  21 00 00    	ld	hl,_sprite
1541  041B  86          	add	a, (hl)
1542  041C  4F          	ld	c, a
1543  041D  3E 00       	ld	a, +((_colint) / 256)
1544  041F  CE 00       	adc	a,0x00
1545  0421  DD 71 FE    	ld	(ix-2),c
1546  0424  DD 77 FF    	ld	(ix-1),a
1547  0427  3E 00       	ld	a, +((_col) & 0xFF)
1548  0429  86          	add	a, (hl)
1549  042A  4F          	ld	c, a
1550  042B  3E 00       	ld	a, +((_col) / 256)
1551  042D  CE 00       	adc	a,0x00
1552  042F  D1          	pop	de
1553  0430  47          	ld	b,a
1554  0431  C5          	push	bc
1555  0432  DD 6E FE    	ld	l,(ix-2)
1556  0435  DD 66 FF    	ld	h,(ix-1)
1557  0438  4E          	ld	c,(hl)
1558  0439  0C          	inc	c
1559  043A  71          	ld	(hl), c
1560  043B  2A 00 00    	ld	hl,(_sprite)
1561  043E  26 00       	ld	h,0x00
1562  0440  11 00 00    	ld	de,_spr_frames
1563  0443  19          	add	hl,de
1564  0444  46          	ld	b, (hl)
1565  0445  79          	ld	a,c
1566  0446  90          	sub	a,b
1567  0447  DA 05 05    	jp	C,l_spr_move_right_00112
1568  044A  2A 00 00    	ld	hl,(_sprite)
1569  044D  26 00       	ld	h,0x00
1570  044F  01 00 00    	ld	bc,_lin
1571  0452  09          	add	hl,bc
1572  0453  7E          	ld	a,(hl)
1573  0454  E1          	pop	hl
1574  0455  32 00 00    	ld	(_s_lin1),a
1575  0458  7E          	ld	a,(hl)
1576  0459  E5          	push	hl
1577  045A  FE 1F       	cp	a,0x1f
1578  045C  D2 05 05    	jp	NC, l_spr_move_right_00112
1579  045F  C6 02       	add	a,0x02
1580  0461  32 00 00    	ld	(_s_col1),a
1581  0464  21 00 00    	ld	hl,_s_lin1
1582  0467  CB 4E       	bit	1, (hl)
1583  0469  20 2E       	jr	NZ,l_spr_move_right_00102
1584  046B  2A FF FF    	ld	hl,(_s_col1 - 1)
1585  046E  3A 00 00    	ld	a,(_s_lin1)
1586  0471  6F          	ld	l,a
1587  0472  E5          	push	hl
1588  0473  CD 00 00    	call	_game_check_map
1589  0476  F1          	pop	af
1590  0477  7D          	ld	a, l
1591  0478  B7          	or	a, a
1592  0479  20 16       	jr	NZ,l_spr_move_right_00116
1593  047B  3A 00 00    	ld	a,(_s_lin1)
1594  047E  C6 08       	add	a,0x08
1595  0480  4F          	ld	c, a
1596  0481  3A 00 00    	ld	a, (_s_col1)
1597  0484  47          	ld	b,a
1598  0485  C5          	push	bc
1599  0486  CD 00 00    	call	_game_check_map
1600  0489  F1          	pop	af
1601  048A  7D          	ld	a, l
1602  048B  B7          	or	a,a
1603  048C  20 03       	jr	NZ,l_spr_move_right_00116
1604  048E  4F          	ld	c,a
1605  048F  18 02       	jr	l_spr_move_right_00117
1606  0491              l_spr_move_right_00116:
1607  0491  0E 01       	ld	c,0x01
1608  0493              l_spr_move_right_00117:
1609  0493  21 00 00    	ld	hl,_v0
1610  0496  71          	ld	(hl), c
1611  0497  18 3F       	jr	l_spr_move_right_00103
1612  0499              l_spr_move_right_00102:
1613  0499  2A FF FF    	ld	hl,(_s_col1 - 1)
1614  049C  3A 00 00    	ld	a,(_s_lin1)
1615  049F  6F          	ld	l,a
1616  04A0  E5          	push	hl
1617  04A1  CD 00 00    	call	_game_check_map
1618  04A4  F1          	pop	af
1619  04A5  7D          	ld	a, l
1620  04A6  B7          	or	a, a
1621  04A7  20 29       	jr	NZ,l_spr_move_right_00119
1622  04A9  3A 00 00    	ld	a,(_s_lin1)
1623  04AC  C6 08       	add	a,0x08
1624  04AE  4F          	ld	c, a
1625  04AF  3A 00 00    	ld	a, (_s_col1)
1626  04B2  47          	ld	b,a
1627  04B3  C5          	push	bc
1628  04B4  CD 00 00    	call	_game_check_map
1629  04B7  F1          	pop	af
1630  04B8  7D          	ld	a, l
1631  04B9  B7          	or	a, a
1632  04BA  20 16       	jr	NZ,l_spr_move_right_00119
1633  04BC  3A 00 00    	ld	a,(_s_lin1)
1634  04BF  C6 10       	add	a,0x10
1635  04C1  4F          	ld	c, a
1636  04C2  3A 00 00    	ld	a, (_s_col1)
1637  04C5  47          	ld	b,a
1638  04C6  C5          	push	bc
1639  04C7  CD 00 00    	call	_game_check_map
1640  04CA  F1          	pop	af
1641  04CB  7D          	ld	a, l
1642  04CC  B7          	or	a,a
1643  04CD  20 03       	jr	NZ,l_spr_move_right_00119
1644  04CF  4F          	ld	c,a
1645  04D0  18 02       	jr	l_spr_move_right_00120
1646  04D2              l_spr_move_right_00119:
1647  04D2  0E 01       	ld	c,0x01
1648  04D4              l_spr_move_right_00120:
1649  04D4  21 00 00    	ld	hl,_v0
1650  04D7  71          	ld	(hl), c
1651  04D8              l_spr_move_right_00103:
1652  04D8  3A 00 00    	ld	a,(_v0)
1653  04DB  B7          	or	a, a
1654  04DC  28 0D       	jr	Z,l_spr_move_right_00107
1655  04DE  DD 6E FE    	ld	l,(ix-2)
1656  04E1  DD 66 FF    	ld	h,(ix-1)
1657  04E4  4E          	ld	c,(hl)
1658  04E5  0D          	dec	c
1659  04E6  71          	ld	(hl), c
1660  04E7  2E 01       	ld	l,0x01
1661  04E9  18 1C       	jr	l_spr_move_right_00113
1662  04EB              l_spr_move_right_00107:
1663  04EB  E1          	pop	hl
1664  04EC  4E          	ld	c,(hl)
1665  04ED  0C          	inc	c
1666  04EE  E5          	push	hl
1667  04EF  71          	ld	(hl), c
1668  04F0  DD 6E FE    	ld	l,(ix-2)
1669  04F3  DD 66 FF    	ld	h,(ix-1)
1670  04F6  36 00       	ld	(hl),0x00
1671  04F8  3E 1F       	ld	a,0x1f
1672  04FA  91          	sub	a, c
1673  04FB  30 08       	jr	NC,l_spr_move_right_00112
1674  04FD  E1          	pop	hl
1675  04FE  E5          	push	hl
1676  04FF  36 1F       	ld	(hl),0x1f
1677  0501  2E 01       	ld	l,0x01
1678  0503  18 02       	jr	l_spr_move_right_00113
1679  0505              l_spr_move_right_00112:
1680  0505  2E 00       	ld	l,0x00
1681  0507              l_spr_move_right_00113:
1682  0507  DD F9       	ld	sp, ix
1683  0509  DD E1       	pop	ix
1684  050B  C9          	ret
1685  050C              	SECTION code_compiler
1686  050C              ;	---------------------------------
1687  050C              ; Function spr_move_left
1688  050C              ; ---------------------------------
1689  050C              _spr_move_left:
1690  050C  CD 00 00    	call	___sdcc_enter_ix
1691  050F  F5          	push	af
1692  0510  F5          	push	af
1693  0511  3E 00       	ld	a, +((_colint) & 0xFF)
1694  0513  21 00 00    	ld	hl,_sprite
1695  0516  86          	add	a, (hl)
1696  0517  4F          	ld	c, a
1697  0518  3E 00       	ld	a, +((_colint) / 256)
1698  051A  CE 00       	adc	a,0x00
1699  051C  DD 71 FE    	ld	(ix-2),c
1700  051F  DD 77 FF    	ld	(ix-1),a
1701  0522  3E 00       	ld	a, +((_col) & 0xFF)
1702  0524  86          	add	a, (hl)
1703  0525  4F          	ld	c, a
1704  0526  3E 00       	ld	a, +((_col) / 256)
1705  0528  CE 00       	adc	a,0x00
1706  052A  D1          	pop	de
1707  052B  47          	ld	b,a
1708  052C  C5          	push	bc
1709  052D  DD 6E FE    	ld	l,(ix-2)
1710  0530  DD 66 FF    	ld	h,(ix-1)
1711  0533  4E          	ld	c,(hl)
1712  0534  0D          	dec	c
1713  0535  71          	ld	(hl), c
1714  0536  2A 00 00    	ld	hl,(_sprite)
1715  0539  26 00       	ld	h,0x00
1716  053B  11 00 00    	ld	de,_spr_frames
1717  053E  19          	add	hl,de
1718  053F  46          	ld	b, (hl)
1719  0540  79          	ld	a,c
1720  0541  90          	sub	a,b
1721  0542  DA 0B 06    	jp	C,l_spr_move_left_00112
1722  0545  2A 00 00    	ld	hl,(_sprite)
1723  0548  26 00       	ld	h,0x00
1724  054A  01 00 00    	ld	bc,_lin
1725  054D  09          	add	hl,bc
1726  054E  7E          	ld	a,(hl)
1727  054F  E1          	pop	hl
1728  0550  32 00 00    	ld	(_s_lin1),a
1729  0553  7E          	ld	a,(hl)
1730  0554  E5          	push	hl
1731  0555  FE 1F       	cp	a,0x1f
1732  0557  D2 0B 06    	jp	NC, l_spr_move_left_00112
1733  055A  C6 FF       	add	a,0xff
1734  055C  32 00 00    	ld	(_s_col1),a
1735  055F  21 00 00    	ld	hl,_s_lin1
1736  0562  CB 4E       	bit	1, (hl)
1737  0564  20 31       	jr	NZ,l_spr_move_left_00102
1738  0566  2A FF FF    	ld	hl,(_s_col1 - 1)
1739  0569  3A 00 00    	ld	a,(_s_lin1)
1740  056C  6F          	ld	l,a
1741  056D  E5          	push	hl
1742  056E  CD 00 00    	call	_game_check_map
1743  0571  F1          	pop	af
1744  0572  7D          	ld	a, l
1745  0573  B7          	or	a, a
1746  0574  20 19       	jr	NZ,l_spr_move_left_00116
1747  0576  3A 00 00    	ld	a,(_s_lin1)
1748  0579  C6 08       	add	a,0x08
1749  057B  4F          	ld	c, a
1750  057C  3A 00 00    	ld	a,(_s_col1)
1751  057F  F5          	push	af
1752  0580  33          	inc	sp
1753  0581  79          	ld	a, c
1754  0582  F5          	push	af
1755  0583  33          	inc	sp
1756  0584  CD 00 00    	call	_game_check_map
1757  0587  F1          	pop	af
1758  0588  7D          	ld	a, l
1759  0589  B7          	or	a,a
1760  058A  20 03       	jr	NZ,l_spr_move_left_00116
1761  058C  4F          	ld	c,a
1762  058D  18 02       	jr	l_spr_move_left_00117
1763  058F              l_spr_move_left_00116:
1764  058F  0E 01       	ld	c,0x01
1765  0591              l_spr_move_left_00117:
1766  0591  21 00 00    	ld	hl,_v0
1767  0594  71          	ld	(hl), c
1768  0595  18 3F       	jr	l_spr_move_left_00103
1769  0597              l_spr_move_left_00102:
1770  0597  2A FF FF    	ld	hl,(_s_col1 - 1)
1771  059A  3A 00 00    	ld	a,(_s_lin1)
1772  059D  6F          	ld	l,a
1773  059E  E5          	push	hl
1774  059F  CD 00 00    	call	_game_check_map
1775  05A2  F1          	pop	af
1776  05A3  7D          	ld	a, l
1777  05A4  B7          	or	a, a
1778  05A5  20 29       	jr	NZ,l_spr_move_left_00119
1779  05A7  3A 00 00    	ld	a,(_s_lin1)
1780  05AA  C6 08       	add	a,0x08
1781  05AC  4F          	ld	c, a
1782  05AD  3A 00 00    	ld	a, (_s_col1)
1783  05B0  47          	ld	b,a
1784  05B1  C5          	push	bc
1785  05B2  CD 00 00    	call	_game_check_map
1786  05B5  F1          	pop	af
1787  05B6  7D          	ld	a, l
1788  05B7  B7          	or	a, a
1789  05B8  20 16       	jr	NZ,l_spr_move_left_00119
1790  05BA  3A 00 00    	ld	a,(_s_lin1)
1791  05BD  C6 10       	add	a,0x10
1792  05BF  4F          	ld	c, a
1793  05C0  3A 00 00    	ld	a, (_s_col1)
1794  05C3  47          	ld	b,a
1795  05C4  C5          	push	bc
1796  05C5  CD 00 00    	call	_game_check_map
1797  05C8  F1          	pop	af
1798  05C9  7D          	ld	a, l
1799  05CA  B7          	or	a,a
1800  05CB  20 03       	jr	NZ,l_spr_move_left_00119
1801  05CD  4F          	ld	c,a
1802  05CE  18 02       	jr	l_spr_move_left_00120
1803  05D0              l_spr_move_left_00119:
1804  05D0  0E 01       	ld	c,0x01
1805  05D2              l_spr_move_left_00120:
1806  05D2  21 00 00    	ld	hl,_v0
1807  05D5  71          	ld	(hl), c
1808  05D6              l_spr_move_left_00103:
1809  05D6  3A 00 00    	ld	a,(_v0)
1810  05D9  B7          	or	a, a
1811  05DA  28 0D       	jr	Z,l_spr_move_left_00107
1812  05DC  DD 6E FE    	ld	l,(ix-2)
1813  05DF  DD 66 FF    	ld	h,(ix-1)
1814  05E2  4E          	ld	c,(hl)
1815  05E3  0C          	inc	c
1816  05E4  71          	ld	(hl), c
1817  05E5  2E 01       	ld	l,0x01
1818  05E7  18 24       	jr	l_spr_move_left_00113
1819  05E9              l_spr_move_left_00107:
1820  05E9  E1          	pop	hl
1821  05EA  4E          	ld	c,(hl)
1822  05EB  0D          	dec	c
1823  05EC  E5          	push	hl
1824  05ED  71          	ld	(hl), c
1825  05EE  2A 00 00    	ld	hl,(_sprite)
1826  05F1  26 00       	ld	h,0x00
1827  05F3  11 00 00    	ld	de,_spr_frames
1828  05F6  19          	add	hl,de
1829  05F7  5E          	ld	e, (hl)
1830  05F8  1D          	dec	e
1831  05F9  DD 6E FE    	ld	l,(ix-2)
1832  05FC  DD 66 FF    	ld	h,(ix-1)
1833  05FF  73          	ld	(hl), e
1834  0600  0C          	inc	c
1835  0601  20 08       	jr	NZ,l_spr_move_left_00112
1836  0603  E1          	pop	hl
1837  0604  E5          	push	hl
1838  0605  36 00       	ld	(hl),0x00
1839  0607  2E 01       	ld	l,0x01
1840  0609  18 02       	jr	l_spr_move_left_00113
1841  060B              l_spr_move_left_00112:
1842  060B  2E 00       	ld	l,0x00
1843  060D              l_spr_move_left_00113:
1844  060D  DD F9       	ld	sp, ix
1845  060F  DD E1       	pop	ix
1846  0611  C9          	ret
1847  0612              	SECTION code_compiler
1848  0612              ;	---------------------------------
1849  0612              ; Function spr_move_left_f
1850  0612              ; ---------------------------------
1851  0612              _spr_move_left_f:
1852  0612  2A 00 00    	ld	hl,(_sprite)
1853  0615  26 00       	ld	h,0x00
1854  0617  01 00 00    	ld	bc,_colint
1855  061A  09          	add	hl,bc
1856  061B  7E          	ld	a,(hl)
1857  061C  C6 FF       	add	a,0xff
1858  061E  77          	ld	(hl),a
1859  061F  2A 00 00    	ld	hl,(_sprite)
1860  0622  26 00       	ld	h,0x00
1861  0624  01 00 00    	ld	bc,_colint
1862  0627  09          	add	hl,bc
1863  0628  4E          	ld	c, (hl)
1864  0629  2A 00 00    	ld	hl,(_sprite)
1865  062C  26 00       	ld	h,0x00
1866  062E  11 00 00    	ld	de,_spr_frames
1867  0631  19          	add	hl,de
1868  0632  46          	ld	b, (hl)
1869  0633  79          	ld	a,c
1870  0634  90          	sub	a,b
1871  0635  38 48       	jr	C,l_spr_move_left_f_00106
1872  0637  2A 00 00    	ld	hl,(_sprite)
1873  063A  26 00       	ld	h,0x00
1874  063C  01 00 00    	ld	bc,_lin
1875  063F  09          	add	hl,bc
1876  0640  7E          	ld	a,(hl)
1877  0641  32 00 00    	ld	(_s_lin1),a
1878  0644  2A 00 00    	ld	hl,(_sprite)
1879  0647  26 00       	ld	h,0x00
1880  0649  01 00 00    	ld	bc,_col
1881  064C  09          	add	hl,bc
1882  064D  7E          	ld	a,(hl)
1883  064E  B7          	or	a,a
1884  064F  28 2E       	jr	Z,l_spr_move_left_f_00106
1885  0651  C6 FF       	add	a,0xff
1886  0653  77          	ld	(hl),a
1887  0654  2A 00 00    	ld	hl,(_sprite)
1888  0657  26 00       	ld	h,0x00
1889  0659  01 00 00    	ld	bc,_colint
1890  065C  09          	add	hl,bc
1891  065D  4D          	ld	c,l
1892  065E  44          	ld	b,h
1893  065F  2A 00 00    	ld	hl,(_sprite)
1894  0662  26 00       	ld	h,0x00
1895  0664  11 00 00    	ld	de,_spr_frames
1896  0667  19          	add	hl,de
1897  0668  7E          	ld	a,(hl)
1898  0669  C6 FF       	add	a,0xff
1899  066B  02          	ld	(bc),a
1900  066C  2A 00 00    	ld	hl,(_sprite)
1901  066F  26 00       	ld	h,0x00
1902  0671  01 00 00    	ld	bc,_col
1903  0674  09          	add	hl,bc
1904  0675  7E          	ld	a,(hl)
1905  0676  3C          	inc	a
1906  0677  20 06       	jr	NZ,l_spr_move_left_f_00106
1907  0679  AF          	xor	a,a
1908  067A  77          	ld	(hl),a
1909  067B  2E 01       	ld	l,0x01
1910  067D  18 02       	jr	l_spr_move_left_f_00107
1911  067F              l_spr_move_left_f_00106:
1912  067F  2E 00       	ld	l,0x00
1913  0681              l_spr_move_left_f_00107:
1914  0681  C9          	ret
1915  0682              	SECTION code_compiler
1916  0682              ;	---------------------------------
1917  0682              ; Function spr_clear_scr
1918  0682              ; ---------------------------------
1919  0682              _spr_clear_scr:
1920  0682  CD 00 00    	call	___sdcc_enter_ix
1921  0685  3B          	dec	sp
1922  0686  06 00       	ld	b,0x00
1923  0688              l_spr_clear_scr_00105:
1924  0688  C5          	push	bc
1925  0689  21 00 00    	ld	hl,0x0000
1926  068C  E5          	push	hl
1927  068D  AF          	xor	a, a
1928  068E  48          	ld	c,b
1929  068F  47          	ld	b,a
1930  0690  C5          	push	bc
1931  0691  CD 00 00    	call	_NIRVANAP_spriteT_callee
1932  0694  C1          	pop	bc
1933  0695  04          	inc	b
1934  0696  78          	ld	a, b
1935  0697  D6 08       	sub	a,0x08
1936  0699  38 ED       	jr	C,l_spr_clear_scr_00105
1937  069B  76          	halt
1938  069C  F3          	di
1939  069D  0E 00       	ld	c,0x00
1940  069F              l_spr_clear_scr_00117:
1941  069F  79          	ld	a, c
1942  06A0  87          	add	a, a
1943  06A1  DD 77 FF    	ld	(ix-1),a
1944  06A4  5F          	ld	e,a
1945  06A5  06 01       	ld	b,0x01
1946  06A7              l_spr_clear_scr_00107:
1947  06A7  78          	ld	a, b
1948  06A8  07          	rlca
1949  06A9  07          	rlca
1950  06AA  07          	rlca
1951  06AB  07          	rlca
1952  06AC  E6 F0       	and	a,0xf0
1953  06AE  57          	ld	d, a
1954  06AF  C5          	push	bc
1955  06B0  D5          	push	de
1956  06B1  DD 7E FF    	ld	a,(ix-1)
1957  06B4  5A          	ld	e,d
1958  06B5  57          	ld	d,a
1959  06B6  D5          	push	de
1960  06B7  AF          	xor	a, a
1961  06B8  F5          	push	af
1962  06B9  33          	inc	sp
1963  06BA  CD 00 00    	call	_NIRVANAP_fillT_raw_callee
1964  06BD  D1          	pop	de
1965  06BE  C1          	pop	bc
1966  06BF  04          	inc	b
1967  06C0  78          	ld	a, b
1968  06C1  D6 0A       	sub	a,0x0a
1969  06C3  38 E2       	jr	C,l_spr_clear_scr_00107
1970  06C5  3E 1E       	ld	a,0x1e
1971  06C7  93          	sub	a, e
1972  06C8  57          	ld	d, a
1973  06C9  1E 01       	ld	e,0x01
1974  06CB              l_spr_clear_scr_00109:
1975  06CB  7B          	ld	a, e
1976  06CC  07          	rlca
1977  06CD  07          	rlca
1978  06CE  07          	rlca
1979  06CF  07          	rlca
1980  06D0  E6 F0       	and	a,0xf0
1981  06D2  47          	ld	b, a
1982  06D3  C5          	push	bc
1983  06D4  D5          	push	de
1984  06D5  58          	ld	e,b
1985  06D6  D5          	push	de
1986  06D7  AF          	xor	a, a
1987  06D8  F5          	push	af
1988  06D9  33          	inc	sp
1989  06DA  CD 00 00    	call	_NIRVANAP_fillT_raw_callee
1990  06DD  D1          	pop	de
1991  06DE  C1          	pop	bc
1992  06DF  1C          	inc	e
1993  06E0  7B          	ld	a, e
1994  06E1  D6 0A       	sub	a,0x0a
1995  06E3  38 E6       	jr	C,l_spr_clear_scr_00109
1996  06E5  FB          	ei
1997  06E6  76          	halt
1998  06E7  F3          	di
1999  06E8  0C          	inc	c
2000  06E9  79          	ld	a, c
2001  06EA  D6 08       	sub	a,0x08
2002  06EC  38 B1       	jr	C,l_spr_clear_scr_00117
2003  06EE  FB          	ei
2004  06EF  33          	inc	sp
2005  06F0  DD E1       	pop	ix
2006  06F2  C9          	ret
2007  06F3              	SECTION code_compiler
2008  06F3              ;	---------------------------------
2009  06F3              ; Function spr_paint_player
2010  06F3              ; ---------------------------------
2011  06F3              _spr_paint_player:
2012  06F3  3A 0F 00    	ld	a,(_col + 0x000f)
2013  06F6  32 00 00    	ld	(_s_col1),a
2014  06F9  3A 0F 00    	ld	a,(_lin + 0x000f)
2015  06FC  32 00 00    	ld	(_s_lin1),a
2016  06FF  21 00 00    	ld	hl,_s_lin1
2017  0702  7E          	ld	a, (hl)
2018  0703  C6 10       	add	a,0x10
2019  0705  47          	ld	b, a
2020  0706  7E          	ld	a, (hl)
2021  0707  21 00 00    	ld	hl,_s_lin0
2022  070A  96          	sub	a, (hl)
2023  070B  20 09       	jr	NZ,l_spr_paint_player_00101
2024  070D  3A 00 00    	ld	a,(_s_col1)
2025  0710  21 00 00    	ld	hl,_s_col0
2026  0713  96          	sub	a, (hl)
2027  0714  28 24       	jr	Z,l_spr_paint_player_00102
2028  0716              l_spr_paint_player_00101:
2029  0716  21 0F 00    	ld	hl,+(_tile + 0x000f)
2030  0719  4E          	ld	c, (hl)
2031  071A  21 0F 00    	ld	hl,+(_colint + 0x000f)
2032  071D  5E          	ld	e, (hl)
2033  071E  79          	ld	a, c
2034  071F  83          	add	a, e
2035  0720  32 00 00    	ld	(_s_tile1),a
2036  0723  3A 00 00    	ld	a,(_s_col1)
2037  0726  48          	ld	c,b
2038  0727  47          	ld	b,a
2039  0728  3A 00 00    	ld	a,(_s_tile1)
2040  072B  C5          	push	bc
2041  072C  57          	ld	d,a
2042  072D  1E 07       	ld	e,0x07
2043  072F  D5          	push	de
2044  0730  CD 00 00    	call	_NIRVANAP_spriteT_callee
2045  0733  CD EA 08    	call	_spr_back_repaint
2046  0736  2E 01       	ld	l,0x01
2047  0738  18 1F       	jr	l_spr_paint_player_00105
2048  073A              l_spr_paint_player_00102:
2049  073A  21 0F 00    	ld	hl,+(_tile + 0x000f)
2050  073D  4E          	ld	c, (hl)
2051  073E  21 0F 00    	ld	hl,+(_colint + 0x000f)
2052  0741  5E          	ld	e, (hl)
2053  0742  79          	ld	a, c
2054  0743  83          	add	a, e
2055  0744  32 00 00    	ld	(_s_tile1),a
2056  0747  3A 00 00    	ld	a,(_s_col1)
2057  074A  48          	ld	c,b
2058  074B  47          	ld	b,a
2059  074C  3A 00 00    	ld	a,(_s_tile1)
2060  074F  C5          	push	bc
2061  0750  57          	ld	d,a
2062  0751  1E 07       	ld	e,0x07
2063  0753  D5          	push	de
2064  0754  CD 00 00    	call	_NIRVANAP_spriteT_callee
2065  0757  2E 00       	ld	l,0x00
2066  0759              l_spr_paint_player_00105:
2067  0759  C9          	ret
2068  075A              	SECTION code_compiler
2069  075A              ;	---------------------------------
2070  075A              ; Function spr_paint
2071  075A              ; ---------------------------------
2072  075A              _spr_paint:
2073  075A  2A 00 00    	ld	hl,(_sprite)
2074  075D  26 00       	ld	h,0x00
2075  075F  01 00 00    	ld	bc,_col
2076  0762  09          	add	hl,bc
2077  0763  7E          	ld	a,(hl)
2078  0764  32 00 00    	ld	(_s_col1),a
2079  0767  2A 00 00    	ld	hl,(_sprite)
2080  076A  26 00       	ld	h,0x00
2081  076C  01 00 00    	ld	bc,_lin
2082  076F  09          	add	hl,bc
2083  0770  7E          	ld	a,(hl)
2084  0771  32 00 00    	ld	(_s_lin1),a
2085  0774  21 00 00    	ld	hl,_s_lin0
2086  0777  96          	sub	a, (hl)
2087  0778  20 09       	jr	NZ,l_spr_paint_00101
2088  077A  3A 00 00    	ld	a,(_s_col1)
2089  077D  21 00 00    	ld	hl,_s_col0
2090  0780  96          	sub	a, (hl)
2091  0781  28 46       	jr	Z,l_spr_paint_00102
2092  0783              l_spr_paint_00101:
2093  0783  2A 00 00    	ld	hl,(_sprite)
2094  0786  26 00       	ld	h,0x00
2095  0788  01 00 00    	ld	bc,_tile
2096  078B  09          	add	hl,bc
2097  078C  4E          	ld	c, (hl)
2098  078D  3A 00 00    	ld	a,(_sprite)
2099  0790  5F          	ld	e,a
2100  0791  16 00       	ld	d,0x00
2101  0793  21 00 00    	ld	hl,_colint
2102  0796  19          	add	hl,de
2103  0797  7E          	ld	a,(hl)
2104  0798  81          	add	a,c
2105  0799  32 00 00    	ld	(_s_tile1),a
2106  079C  3A 00 00    	ld	a,(_s_lin0)
2107  079F  C6 10       	add	a,0x10
2108  07A1  4F          	ld	c, a
2109  07A2  3A 00 00    	ld	a, (_s_col0)
2110  07A5  47          	ld	b,a
2111  07A6  3A 00 00    	ld	a,(_map_paper_clr)
2112  07A9  C5          	push	bc
2113  07AA  F5          	push	af
2114  07AB  33          	inc	sp
2115  07AC  CD 00 00    	call	_NIRVANAP_fillT_callee
2116  07AF  3A 00 00    	ld	a,(_s_lin1)
2117  07B2  C6 10       	add	a,0x10
2118  07B4  4F          	ld	c, a
2119  07B5  3A 00 00    	ld	a, (_s_col1)
2120  07B8  47          	ld	b,a
2121  07B9  C5          	push	bc
2122  07BA  2A FF FF    	ld	hl,(_s_tile1 - 1)
2123  07BD  3A 00 00    	ld	a,(_nirv_sprite_index)
2124  07C0  6F          	ld	l,a
2125  07C1  E5          	push	hl
2126  07C2  CD 00 00    	call	_NIRVANAP_spriteT_callee
2127  07C5  2E 01       	ld	l,0x01
2128  07C7  18 31       	jr	l_spr_paint_00105
2129  07C9              l_spr_paint_00102:
2130  07C9  2A 00 00    	ld	hl,(_sprite)
2131  07CC  26 00       	ld	h,0x00
2132  07CE  01 00 00    	ld	bc,_tile
2133  07D1  09          	add	hl,bc
2134  07D2  4E          	ld	c, (hl)
2135  07D3  3A 00 00    	ld	a,(_sprite)
2136  07D6  5F          	ld	e,a
2137  07D7  16 00       	ld	d,0x00
2138  07D9  21 00 00    	ld	hl,_colint
2139  07DC  19          	add	hl,de
2140  07DD  7E          	ld	a,(hl)
2141  07DE  81          	add	a,c
2142  07DF  32 00 00    	ld	(_s_tile1),a
2143  07E2  3A 00 00    	ld	a,(_s_lin1)
2144  07E5  C6 10       	add	a,0x10
2145  07E7  4F          	ld	c, a
2146  07E8  3A 00 00    	ld	a, (_s_col1)
2147  07EB  47          	ld	b,a
2148  07EC  C5          	push	bc
2149  07ED  2A FF FF    	ld	hl,(_s_tile1 - 1)
2150  07F0  3A 00 00    	ld	a,(_nirv_sprite_index)
2151  07F3  6F          	ld	l,a
2152  07F4  E5          	push	hl
2153  07F5  CD 00 00    	call	_NIRVANAP_spriteT_callee
2154  07F8  2E 00       	ld	l,0x00
2155  07FA              l_spr_paint_00105:
2156  07FA  C9          	ret
2157  07FB              	SECTION code_compiler
2158  07FB              ;	---------------------------------
2159  07FB              ; Function spr_destroy
2160  07FB              ; ---------------------------------
2161  07FB              _spr_destroy:
2162  07FB  CD 00 00    	call	___sdcc_enter_ix
2163  07FE  F5          	push	af
2164  07FF  F5          	push	af
2165  0800  45          	ld	b, l
2166  0801  21 00 00    	ld	hl,_spr_count
2167  0804  35          	dec	(hl)
2168  0805  3E 00       	ld	a, +((_lin) & 0xFF)
2169  0807  80          	add	a, b
2170  0808  DD 77 FE    	ld	(ix-2),a
2171  080B  6F          	ld	l,a
2172  080C  3E 00       	ld	a,+((_lin) / 256)
2173  080E  CE 00       	adc	a,0x00
2174  0810  DD 77 FF    	ld	(ix-1),a
2175  0813  67          	ld	h,a
2176  0814  7E          	ld	a, (hl)
2177  0815  32 00 00    	ld	(_s_lin0),a
2178  0818  3E 00       	ld	a, +((_col) & 0xFF)
2179  081A  80          	add	a, b
2180  081B  DD 77 FC    	ld	(ix-4),a
2181  081E  3E 00       	ld	a, +((_col) / 256)
2182  0820  CE 00       	adc	a,0x00
2183  0822  DD 77 FD    	ld	(ix-3),a
2184  0825  E1          	pop	hl
2185  0826  7E          	ld	a,(hl)
2186  0827  E5          	push	hl
2187  0828  32 00 00    	ld	(_s_col0),a
2188  082B  2A 00 00    	ld	hl,(_s_lin0)
2189  082E  C5          	push	bc
2190  082F  67          	ld	h,a
2191  0830  E5          	push	hl
2192  0831  CD 00 00    	call	_spr_calc_index
2193  0834  F1          	pop	af
2194  0835  EB          	ex	de,hl
2195  0836  C1          	pop	bc
2196  0837  ED 53 00 00 	ld	(_index0),de
2197  083B  21 00 00    	ld	hl,_s_tile0
2198  083E  36 00       	ld	(hl),0x00
2199  0840  C5          	push	bc
2200  0841  21 00 00    	ld	hl,0x0000
2201  0844  E5          	push	hl
2202  0845  AF          	xor	a, a
2203  0846  48          	ld	c,b
2204  0847  47          	ld	b,a
2205  0848  C5          	push	bc
2206  0849  CD 00 00    	call	_NIRVANAP_spriteT_callee
2207  084C  CD EA 08    	call	_spr_back_repaint
2208  084F  C1          	pop	bc
2209  0850  3E 00       	ld	a, +((_tile) & 0xFF)
2210  0852  80          	add	a, b
2211  0853  5F          	ld	e, a
2212  0854  3E 00       	ld	a, +((_tile) / 256)
2213  0856  CE 00       	adc	a,0x00
2214  0858  E1          	pop	hl
2215  0859  57          	ld	d,a
2216  085A  3A 00 00    	ld	a,(_s_tile0)
2217  085D  12          	ld	(de),a
2218  085E  E5          	push	hl
2219  085F  36 00       	ld	(hl),0x00
2220  0861  DD 6E FE    	ld	l,(ix-2)
2221  0864  DD 66 FF    	ld	h,(ix-1)
2222  0867  36 00       	ld	(hl),0x00
2223  0869  11 00 00    	ld	de,_class+0
2224  086C  68          	ld	l,b
2225  086D  26 00       	ld	h,0x00
2226  086F  19          	add	hl, de
2227  0870  36 00       	ld	(hl),0x00
2228  0872  11 00 00    	ld	de,_state+0
2229  0875  68          	ld	l,b
2230  0876  26 00       	ld	h,0x00
2231  0878  19          	add	hl, de
2232  0879  36 00       	ld	(hl),0x00
2233  087B  11 00 00    	ld	de,_state_a+0
2234  087E  68          	ld	l,b
2235  087F  26 00       	ld	h,0x00
2236  0881  19          	add	hl, de
2237  0882  36 00       	ld	(hl),0x00
2238  0884  DD F9       	ld	sp, ix
2239  0886  DD E1       	pop	ix
2240  0888  C9          	ret
2241  0889              	SECTION code_compiler
2242  0889              ;	---------------------------------
2243  0889              ; Function spr_get_tile
2244  0889              ; ---------------------------------
2245  0889              _spr_get_tile:
2246  0889  4E          	ld	c, (hl)
2247  088A  06 00       	ld	b,0x00
2248  088C  21 00 00    	ld	hl,_spr_frames
2249  088F  09          	add	hl, bc
2250  0890  EB          	ex	de,hl
2251  0891  06 00       	ld	b,0x00
2252  0893  21 00 00    	ld	hl,_spr_tile
2253  0896  09          	add	hl, bc
2254  0897  D5          	push	de
2255  0898  E5          	push	hl
2256  0899  CD 9F 08    	call	_spr_get_tile_dir
2257  089C  F1          	pop	af
2258  089D  F1          	pop	af
2259  089E  C9          	ret
2260  089F              	SECTION code_compiler
2261  089F              ;	---------------------------------
2262  089F              ; Function spr_get_tile_dir
2263  089F              ; ---------------------------------
2264  089F              _spr_get_tile_dir:
2265  089F  CD 00 00    	call	___sdcc_enter_ix
2266  08A2  2A 00 00    	ld	hl,(_p_state)
2267  08A5  4E          	ld	c,(hl)
2268  08A6  F5          	push	af
2269  08A7  DD 5E 04    	ld	e,(ix+4)
2270  08AA  DD 56 05    	ld	d,(ix+5)
2271  08AD  1A          	ld	a, (de)
2272  08AE  47          	ld	b, a
2273  08AF  CB 51       	bit	2, c
2274  08B1  28 03       	jr	Z,l_spr_get_tile_dir_00102
2275  08B3  68          	ld	l, b
2276  08B4  18 30       	jr	l_spr_get_tile_dir_00109
2277  08B6              l_spr_get_tile_dir_00102:
2278  08B6  DD 7E 06    	ld	a,(ix+6)
2279  08B9  DD 77 FE    	ld	(ix-2),a
2280  08BC  DD 7E 07    	ld	a,(ix+7)
2281  08BF  DD 77 FF    	ld	(ix-1),a
2282  08C2  CB 59       	bit	3, c
2283  08C4  28 08       	jr	Z,l_spr_get_tile_dir_00104
2284  08C6  E1          	pop	hl
2285  08C7  4E          	ld	c,(hl)
2286  08C8  E5          	push	hl
2287  08C9  78          	ld	a, b
2288  08CA  81          	add	a, c
2289  08CB  6F          	ld	l, a
2290  08CC  18 18       	jr	l_spr_get_tile_dir_00109
2291  08CE              l_spr_get_tile_dir_00104:
2292  08CE  2A 00 00    	ld	hl,(_p_state_a)
2293  08D1  7E          	ld	a,(hl)
2294  08D2  CB 67       	bit	4, a
2295  08D4  28 03       	jr	Z,l_spr_get_tile_dir_00106
2296  08D6  68          	ld	l, b
2297  08D7  18 0D       	jr	l_spr_get_tile_dir_00109
2298  08D9              l_spr_get_tile_dir_00106:
2299  08D9  CB 5F       	bit	3, a
2300  08DB  28 08       	jr	Z,l_spr_get_tile_dir_00108
2301  08DD  E1          	pop	hl
2302  08DE  4E          	ld	c,(hl)
2303  08DF  E5          	push	hl
2304  08E0  78          	ld	a, b
2305  08E1  81          	add	a, c
2306  08E2  6F          	ld	l, a
2307  08E3  18 01       	jr	l_spr_get_tile_dir_00109
2308  08E5              l_spr_get_tile_dir_00108:
2309  08E5  68          	ld	l, b
2310  08E6              l_spr_get_tile_dir_00109:
2311  08E6  F1          	pop	af
2312  08E7  DD E1       	pop	ix
2313  08E9  C9          	ret
2314  08EA              	SECTION code_compiler
2315  08EA              ;	---------------------------------
2316  08EA              ; Function spr_back_repaint
2317  08EA              ; ---------------------------------
2318  08EA              _spr_back_repaint:
2319  08EA  2A FF FF    	ld	hl,(_s_col0 - 1)
2320  08ED  3A 00 00    	ld	a,(_s_lin0)
2321  08F0  6F          	ld	l,a
2322  08F1  E5          	push	hl
2323  08F2  CD 00 00    	call	_spr_calc_index
2324  08F5  F1          	pop	af
2325  08F6  22 00 00    	ld	(_index1),hl
2326  08F9  21 00 00    	ld	hl,_s_lin0
2327  08FC  4E          	ld	c, (hl)
2328  08FD  CB 39       	srl	c
2329  08FF  CB 39       	srl	c
2330  0901  CB 39       	srl	c
2331  0903  21 00 00    	ld	hl,_s_lin1
2332  0906  71          	ld	(hl),c
2333  0907  79          	ld	a,c
2334  0908  07          	rlca
2335  0909  07          	rlca
2336  090A  07          	rlca
2337  090B  E6 F8       	and	a,0xf8
2338  090D  77          	ld	(hl),a
2339  090E  C6 10       	add	a,0x10
2340  0910  77          	ld	(hl), a
2341  0911  79          	ld	a, c
2342  0912  3C          	inc	a
2343  0913  32 00 00    	ld	(_s_row1),a
2344  0916  3A 00 00    	ld	a,(_s_col0)
2345  0919  32 00 00    	ld	(_s_col1),a
2346  091C  3A 00 00    	ld	a,(_s_row1)
2347  091F  07          	rlca
2348  0920  07          	rlca
2349  0921  07          	rlca
2350  0922  E6 F8       	and	a,0xf8
2351  0924  47          	ld	b, a
2352  0925  11 00 00    	ld	de,_scr_map
2353  0928  2A 00 00    	ld	hl,(_index1)
2354  092B  19          	add	hl,de
2355  092C  66          	ld	h, (hl)
2356  092D  3A 00 00    	ld	a,(_s_col1)
2357  0930  EB          	ex	de,hl
2358  0931  F5          	push	af
2359  0932  33          	inc	sp
2360  0933  4A          	ld	c, d
2361  0934  C5          	push	bc
2362  0935  CD CD 01    	call	_spr_draw8
2363  0938  F1          	pop	af
2364  0939  33          	inc	sp
2365  093A  21 00 00    	ld	hl,_index1
2366  093D  34          	inc	(hl)
2367  093E  20 02       	jr	NZ,l_spr_back_repaint_00103
2368  0940  23          	inc	hl
2369  0941  34          	inc	(hl)
2370  0942              l_spr_back_repaint_00103:
2371  0942  21 00 00    	ld	hl,_s_col1
2372  0945  34          	inc	(hl)
2373  0946  3A 00 00    	ld	a,(_s_row1)
2374  0949  07          	rlca
2375  094A  07          	rlca
2376  094B  07          	rlca
2377  094C  E6 F8       	and	a,0xf8
2378  094E  47          	ld	b, a
2379  094F  11 00 00    	ld	de,_scr_map
2380  0952  2A 00 00    	ld	hl,(_index1)
2381  0955  19          	add	hl,de
2382  0956  66          	ld	h, (hl)
2383  0957  3A 00 00    	ld	a,(_s_col1)
2384  095A  EB          	ex	de,hl
2385  095B  F5          	push	af
2386  095C  33          	inc	sp
2387  095D  4A          	ld	c, d
2388  095E  C5          	push	bc
2389  095F  CD CD 01    	call	_spr_draw8
2390  0962  F1          	pop	af
2391  0963  33          	inc	sp
2392  0964  21 00 00    	ld	hl,_s_lin1
2393  0967  7E          	ld	a, (hl)
2394  0968  C6 08       	add	a,0x08
2395  096A  77          	ld	(hl), a
2396  096B  21 00 00    	ld	hl,_s_row1
2397  096E  34          	inc	(hl)
2398  096F  2A 00 00    	ld	hl,(_index1)
2399  0972  11 20 00    	ld	de,0x0020
2400  0975  19          	add	hl,de
2401  0976  22 00 00    	ld	(_index1),hl
2402  0979  3A 00 00    	ld	a,(_s_row1)
2403  097C  07          	rlca
2404  097D  07          	rlca
2405  097E  07          	rlca
2406  097F  E6 F8       	and	a,0xf8
2407  0981  47          	ld	b, a
2408  0982  11 00 00    	ld	de,_scr_map
2409  0985  2A 00 00    	ld	hl,(_index1)
2410  0988  19          	add	hl,de
2411  0989  66          	ld	h, (hl)
2412  098A  3A 00 00    	ld	a,(_s_col1)
2413  098D  EB          	ex	de,hl
2414  098E  F5          	push	af
2415  098F  33          	inc	sp
2416  0990  4A          	ld	c, d
2417  0991  C5          	push	bc
2418  0992  CD CD 01    	call	_spr_draw8
2419  0995  F1          	pop	af
2420  0996  33          	inc	sp
2421  0997  2A 00 00    	ld	hl,(_index1)
2422  099A  2B          	dec	hl
2423  099B  22 00 00    	ld	(_index1),hl
2424  099E  21 00 00    	ld	hl,_s_col1
2425  09A1  35          	dec	(hl)
2426  09A2  3A 00 00    	ld	a,(_s_row1)
2427  09A5  07          	rlca
2428  09A6  07          	rlca
2429  09A7  07          	rlca
2430  09A8  E6 F8       	and	a,0xf8
2431  09AA  47          	ld	b, a
2432  09AB  11 00 00    	ld	de,_scr_map
2433  09AE  2A 00 00    	ld	hl,(_index1)
2434  09B1  19          	add	hl,de
2435  09B2  66          	ld	h, (hl)
2436  09B3  3A 00 00    	ld	a,(_s_col1)
2437  09B6  EB          	ex	de,hl
2438  09B7  F5          	push	af
2439  09B8  33          	inc	sp
2440  09B9  4A          	ld	c, d
2441  09BA  C5          	push	bc
2442  09BB  CD CD 01    	call	_spr_draw8
2443  09BE  F1          	pop	af
2444  09BF  33          	inc	sp
2445  09C0  21 00 00    	ld	hl,_s_lin1
2446  09C3  7E          	ld	a, (hl)
2447  09C4  C6 08       	add	a,0x08
2448  09C6  77          	ld	(hl), a
2449  09C7  21 00 00    	ld	hl,_s_row1
2450  09CA  34          	inc	(hl)
2451  09CB  2A 00 00    	ld	hl,(_index1)
2452  09CE  11 20 00    	ld	de,0x0020
2453  09D1  19          	add	hl,de
2454  09D2  22 00 00    	ld	(_index1),hl
2455  09D5  3A 00 00    	ld	a,(_s_row1)
2456  09D8  07          	rlca
2457  09D9  07          	rlca
2458  09DA  07          	rlca
2459  09DB  E6 F8       	and	a,0xf8
2460  09DD  47          	ld	b, a
2461  09DE  11 00 00    	ld	de,_scr_map
2462  09E1  2A 00 00    	ld	hl,(_index1)
2463  09E4  19          	add	hl,de
2464  09E5  66          	ld	h, (hl)
2465  09E6  3A 00 00    	ld	a,(_s_col1)
2466  09E9  EB          	ex	de,hl
2467  09EA  F5          	push	af
2468  09EB  33          	inc	sp
2469  09EC  4A          	ld	c, d
2470  09ED  C5          	push	bc
2471  09EE  CD CD 01    	call	_spr_draw8
2472  09F1  F1          	pop	af
2473  09F2  33          	inc	sp
2474  09F3  21 00 00    	ld	hl,_index1
2475  09F6  34          	inc	(hl)
2476  09F7  20 02       	jr	NZ,l_spr_back_repaint_00104
2477  09F9  23          	inc	hl
2478  09FA  34          	inc	(hl)
2479  09FB              l_spr_back_repaint_00104:
2480  09FB  21 00 00    	ld	hl,_s_col1
2481  09FE  34          	inc	(hl)
2482  09FF  3A 00 00    	ld	a,(_s_row1)
2483  0A02  07          	rlca
2484  0A03  07          	rlca
2485  0A04  07          	rlca
2486  0A05  E6 F8       	and	a,0xf8
2487  0A07  4F          	ld	c, a
2488  0A08  11 00 00    	ld	de,_scr_map
2489  0A0B  2A 00 00    	ld	hl,(_index1)
2490  0A0E  19          	add	hl,de
2491  0A0F  46          	ld	b, (hl)
2492  0A10  3A 00 00    	ld	a,(_s_col1)
2493  0A13  F5          	push	af
2494  0A14  33          	inc	sp
2495  0A15  79          	ld	a, c
2496  0A16  48          	ld	c,b
2497  0A17  47          	ld	b,a
2498  0A18  C5          	push	bc
2499  0A19  CD CD 01    	call	_spr_draw8
2500  0A1C  F1          	pop	af
2501  0A1D  33          	inc	sp
2502  0A1E  C9          	ret
2503  0A1F              	SECTION code_compiler
2504  0A1F              ;	---------------------------------
2505  0A1F              ; Function spr_add_anim
2506  0A1F              ; ---------------------------------
2507  0A1F              _spr_add_anim:
2508  0A1F  CD 00 00    	call	___sdcc_enter_ix
2509  0A22  DD 7E 05    	ld	a,(ix+5)
2510  0A25  D6 1F       	sub	a,0x1f
2511  0A27  D2 C3 0A    	jp	NC, l_spr_add_anim_00111
2512  0A2A  DD 7E 04    	ld	a,(ix+4)
2513  0A2D  D6 B8       	sub	a,0xb8
2514  0A2F  D2 C3 0A    	jp	NC, l_spr_add_anim_00111
2515  0A32  01 00 00    	ld	bc,0x0000
2516  0A35              l_spr_add_anim_00109:
2517  0A35  3E 00       	ld	a, +((_anim_lin) & 0xFF)
2518  0A37  80          	add	a, b
2519  0A38  5F          	ld	e, a
2520  0A39  3E 00       	ld	a, +((_anim_lin) / 256)
2521  0A3B  CE 00       	adc	a,0x00
2522  0A3D  57          	ld	d, a
2523  0A3E  1A          	ld	a, (de)
2524  0A3F  3C          	inc	a
2525  0A40  20 79       	jr	NZ,l_spr_add_anim_00110
2526  0A42  76          	halt
2527  0A43  21 00 00    	ld	hl,_anim_count
2528  0A46  34          	inc	(hl)
2529  0A47  DD 7E 04    	ld	a,(ix+4)
2530  0A4A  12          	ld	(de), a
2531  0A4B  3E 00       	ld	a, +((_anim_col) & 0xFF)
2532  0A4D  81          	add	a, c
2533  0A4E  5F          	ld	e, a
2534  0A4F  3E 00       	ld	a, +((_anim_col) / 256)
2535  0A51  CE 00       	adc	a,0x00
2536  0A53  57          	ld	d, a
2537  0A54  DD 7E 05    	ld	a,(ix+5)
2538  0A57  12          	ld	(de), a
2539  0A58  3E 00       	ld	a, +((_anim_tile) & 0xFF)
2540  0A5A  81          	add	a, c
2541  0A5B  5F          	ld	e, a
2542  0A5C  3E 00       	ld	a, +((_anim_tile) / 256)
2543  0A5E  CE 00       	adc	a,0x00
2544  0A60  57          	ld	d, a
2545  0A61  DD 7E 06    	ld	a,(ix+6)
2546  0A64  12          	ld	(de), a
2547  0A65  3E 00       	ld	a, +((_anim_loop) & 0xFF)
2548  0A67  81          	add	a, c
2549  0A68  5F          	ld	e, a
2550  0A69  3E 00       	ld	a, +((_anim_loop) / 256)
2551  0A6B  CE 00       	adc	a,0x00
2552  0A6D  57          	ld	d, a
2553  0A6E  DD 7E 08    	ld	a,(ix+8)
2554  0A71  12          	ld	(de), a
2555  0A72  11 00 00    	ld	de,_anim_int+0
2556  0A75  69          	ld	l,c
2557  0A76  26 00       	ld	h,0x00
2558  0A78  19          	add	hl, de
2559  0A79  36 00       	ld	(hl),0x00
2560  0A7B  3E 00       	ld	a, +((_anim_end) & 0xFF)
2561  0A7D  81          	add	a, c
2562  0A7E  5F          	ld	e, a
2563  0A7F  3E 00       	ld	a, +((_anim_end) / 256)
2564  0A81  CE 00       	adc	a,0x00
2565  0A83  57          	ld	d, a
2566  0A84  DD 7E 07    	ld	a,(ix+7)
2567  0A87  12          	ld	(de), a
2568  0A88  C5          	push	bc
2569  0A89  DD 66 05    	ld	h,(ix+5)
2570  0A8C  DD 6E 04    	ld	l,(ix+4)
2571  0A8F  E5          	push	hl
2572  0A90  DD 7E 06    	ld	a,(ix+6)
2573  0A93  F5          	push	af
2574  0A94  33          	inc	sp
2575  0A95  CD 00 00    	call	_NIRVANAP_drawT_raw_callee
2576  0A98  DD 66 05    	ld	h,(ix+5)
2577  0A9B  DD 6E 04    	ld	l,(ix+4)
2578  0A9E  E5          	push	hl
2579  0A9F  CD 00 00    	call	_spr_calc_index
2580  0AA2  F1          	pop	af
2581  0AA3  EB          	ex	de,hl
2582  0AA4  C1          	pop	bc
2583  0AA5  ED 53 00 00 	ld	(_index0),de
2584  0AA9  11 00 00    	ld	de,_scr_map
2585  0AAC  2A 00 00    	ld	hl,(_index0)
2586  0AAF  19          	add	hl,de
2587  0AB0  7E          	ld	a,(hl)
2588  0AB1  EB          	ex	de,hl
2589  0AB2  B7          	or	a, a
2590  0AB3  20 0E       	jr	NZ,l_spr_add_anim_00111
2591  0AB5  79          	ld	a, c
2592  0AB6  C6 80       	add	a,0x80
2593  0AB8  12          	ld	(de), a
2594  0AB9  18 08       	jr	l_spr_add_anim_00111
2595  0ABB              l_spr_add_anim_00110:
2596  0ABB  04          	inc	b
2597  0ABC  78          	ld	a,b
2598  0ABD  48          	ld	c,b
2599  0ABE  D6 08       	sub	a,0x08
2600  0AC0  DA 35 0A    	jp	C, l_spr_add_anim_00109
2601  0AC3              l_spr_add_anim_00111:
2602  0AC3  DD E1       	pop	ix
2603  0AC5  C9          	ret
2604  0AC6              	SECTION code_compiler
2605  0AC6              ;	---------------------------------
2606  0AC6              ; Function spr_play_anim
2607  0AC6              ; ---------------------------------
2608  0AC6              _spr_play_anim:
2609  0AC6  CD 00 00    	call	___sdcc_enter_ix
2610  0AC9  F5          	push	af
2611  0ACA  F5          	push	af
2612  0ACB  F5          	push	af
2613  0ACC  3B          	dec	sp
2614  0ACD  0E 00       	ld	c,0x00
2615  0ACF  DD 71 F9    	ld	(ix-7),c
2616  0AD2              l_spr_play_anim_00114:
2617  0AD2  3E 00       	ld	a, +((_anim_lin) & 0xFF)
2618  0AD4  81          	add	a, c
2619  0AD5  5F          	ld	e, a
2620  0AD6  3E 00       	ld	a, +((_anim_lin) / 256)
2621  0AD8  CE 00       	adc	a,0x00
2622  0ADA  57          	ld	d, a
2623  0ADB  1A          	ld	a, (de)
2624  0ADC  DD 77 FF    	ld	(ix-1),a
2625  0ADF  3C          	inc	a
2626  0AE0  CA AF 0B    	jp	Z,l_spr_play_anim_00115
2627  0AE3  3E 00       	ld	a, +((_anim_int) & 0xFF)
2628  0AE5  81          	add	a, c
2629  0AE6  DD 77 FD    	ld	(ix-3),a
2630  0AE9  3E 00       	ld	a,+((_anim_int) / 256)
2631  0AEB  CE 00       	adc	a,0x00
2632  0AED  DD 77 FE    	ld	(ix-2),a
2633  0AF0  06 00       	ld	b,0x00
2634  0AF2  21 00 00    	ld	hl,_anim_end
2635  0AF5  09          	add	hl,bc
2636  0AF6  7E          	ld	a,(hl)
2637  0AF7  97          	sub	a,a
2638  0AF8  30 3B       	jr	NC,l_spr_play_anim_00109
2639  0AFA  DD CB F9 46 	bit	0,(ix-7)
2640  0AFE  20 01       	jr	NZ,l_spr_play_anim_00102
2641  0B00  76          	halt
2642  0B01              l_spr_play_anim_00102:
2643  0B01  06 00       	ld	b,0x00
2644  0B03  21 00 00    	ld	hl,_anim_col
2645  0B06  09          	add	hl, bc
2646  0B07  46          	ld	b, (hl)
2647  0B08  1A          	ld	a, (de)
2648  0B09  57          	ld	d, a
2649  0B0A  3E 00       	ld	a, +((_anim_tile) & 0xFF)
2650  0B0C  81          	add	a, c
2651  0B0D  6F          	ld	l, a
2652  0B0E  3E 00       	ld	a, +((_anim_tile) / 256)
2653  0B10  CE 00       	adc	a,0x00
2654  0B12  67          	ld	h, a
2655  0B13  5E          	ld	e, (hl)
2656  0B14  DD 6E FD    	ld	l,(ix-3)
2657  0B17  DD 66 FE    	ld	h,(ix-2)
2658  0B1A  6E          	ld	l, (hl)
2659  0B1B  7B          	ld	a, e
2660  0B1C  85          	add	a, l
2661  0B1D  C5          	push	bc
2662  0B1E  4A          	ld	c, d
2663  0B1F  C5          	push	bc
2664  0B20  F5          	push	af
2665  0B21  33          	inc	sp
2666  0B22  CD 00 00    	call	_NIRVANAP_drawT_raw_callee
2667  0B25  C1          	pop	bc
2668  0B26  DD 34 F9    	inc	(ix-7)
2669  0B29  DD 6E FD    	ld	l,(ix-3)
2670  0B2C  DD 66 FE    	ld	h,(ix-2)
2671  0B2F  46          	ld	b,(hl)
2672  0B30  04          	inc	b
2673  0B31  70          	ld	(hl), b
2674  0B32  C3 AF 0B    	jp	l_spr_play_anim_00115
2675  0B35              l_spr_play_anim_00109:
2676  0B35  06 00       	ld	b,0x00
2677  0B37  21 00 00    	ld	hl,_anim_loop
2678  0B3A  09          	add	hl, bc
2679  0B3B  7E          	ld	a, (hl)
2680  0B3C  DD 77 FC    	ld	(ix-4),a
2681  0B3F  B7          	or	a, a
2682  0B40  20 60       	jr	NZ,l_spr_play_anim_00106
2683  0B42  21 00 00    	ld	hl,_anim_count
2684  0B45  35          	dec	(hl)
2685  0B46  06 00       	ld	b,0x00
2686  0B48  21 00 00    	ld	hl,_anim_col
2687  0B4B  09          	add	hl, bc
2688  0B4C  7E          	ld	a, (hl)
2689  0B4D  32 00 00    	ld	(_s_col0),a
2690  0B50  DD 7E FF    	ld	a,(ix-1)
2691  0B53  32 00 00    	ld	(_s_lin0),a
2692  0B56  3A 00 00    	ld	a,(_s_col0)
2693  0B59  2A 00 00    	ld	hl,(_s_lin0)
2694  0B5C  C5          	push	bc
2695  0B5D  D5          	push	de
2696  0B5E  67          	ld	h,a
2697  0B5F  E5          	push	hl
2698  0B60  CD 00 00    	call	_spr_calc_index
2699  0B63  F1          	pop	af
2700  0B64  DD 74 FB    	ld	(ix-5),h
2701  0B67  DD 75 FA    	ld	(ix-6),l
2702  0B6A  D1          	pop	de
2703  0B6B  C1          	pop	bc
2704  0B6C  DD 6E FA    	ld	l,(ix-6)
2705  0B6F  DD 66 FB    	ld	h,(ix-5)
2706  0B72  22 00 00    	ld	(_index0),hl
2707  0B75  3E 00       	ld	a,+((_scr_map) & 0xFF)
2708  0B77  21 00 00    	ld	hl,_index0
2709  0B7A  86          	add	a, (hl)
2710  0B7B  DD 77 FA    	ld	(ix-6),a
2711  0B7E  3E 00       	ld	a, +((_scr_map) / 256)
2712  0B80  23          	inc	hl
2713  0B81  8E          	adc	a, (hl)
2714  0B82  DD 6E FA    	ld	l,(ix-6)
2715  0B85  DD 77 FB    	ld	(ix-5),a
2716  0B88  67          	ld	h,a
2717  0B89  7E          	ld	a, (hl)
2718  0B8A  D6 80       	sub	a,0x80
2719  0B8C  38 08       	jr	C,l_spr_play_anim_00104
2720  0B8E  DD 6E FA    	ld	l,(ix-6)
2721  0B91  DD 66 FB    	ld	h,(ix-5)
2722  0B94  36 00       	ld	(hl),0x00
2723  0B96              l_spr_play_anim_00104:
2724  0B96  C5          	push	bc
2725  0B97  D5          	push	de
2726  0B98  CD EA 08    	call	_spr_back_repaint
2727  0B9B  D1          	pop	de
2728  0B9C  C1          	pop	bc
2729  0B9D  3E FF       	ld	a,0xff
2730  0B9F  12          	ld	(de), a
2731  0BA0  18 0D       	jr	l_spr_play_anim_00115
2732  0BA2              l_spr_play_anim_00106:
2733  0BA2  DD 46 FC    	ld	b,(ix-4)
2734  0BA5  05          	dec	b
2735  0BA6  70          	ld	(hl), b
2736  0BA7  DD 6E FD    	ld	l,(ix-3)
2737  0BAA  DD 66 FE    	ld	h,(ix-2)
2738  0BAD  36 FF       	ld	(hl),0xff
2739  0BAF              l_spr_play_anim_00115:
2740  0BAF  0C          	inc	c
2741  0BB0  79          	ld	a, c
2742  0BB1  D6 08       	sub	a,0x08
2743  0BB3  DA D2 0A    	jp	C, l_spr_play_anim_00114
2744  0BB6  DD F9       	ld	sp, ix
2745  0BB8  DD E1       	pop	ix
2746  0BBA  C9          	ret
2747  0BBB              	SECTION code_compiler
2748  0BBB              ;	---------------------------------
2749  0BBB              ; Function spr_turn_horizontal
2750  0BBB              ; ---------------------------------
2751  0BBB              _spr_turn_horizontal:
2752  0BBB  2A 00 00    	ld	hl,(_p_state)
2753  0BBE  CB 56       	bit	2,(hl)
2754  0BC0  28 05       	jr	Z,l_spr_turn_horizontal_00102
2755  0BC2  CD 87 00    	call	_spr_set_left
2756  0BC5  18 03       	jr	l_spr_turn_horizontal_00103
2757  0BC7              l_spr_turn_horizontal_00102:
2758  0BC7  CD A8 00    	call	_spr_set_right
2759  0BCA              l_spr_turn_horizontal_00103:
2760  0BCA  2A 00 00    	ld	hl,(_sprite)
2761  0BCD  26 00       	ld	h,0x00
2762  0BCF  01 00 00    	ld	bc,_tile
2763  0BD2  09          	add	hl,bc
2764  0BD3  E5          	push	hl
2765  0BD4  21 00 00    	ld	hl,_sprite
2766  0BD7  CD 89 08    	call	_spr_get_tile
2767  0BDA  C1          	pop	bc
2768  0BDB  7D          	ld	a,l
2769  0BDC  02          	ld	(bc), a
2770  0BDD  C9          	ret
2771  0BDE              	SECTION code_compiler
2772  0BDE              ;	---------------------------------
2773  0BDE              ; Function spr_btile_paint_back
2774  0BDE              ; ---------------------------------
2775  0BDE              _spr_btile_paint_back:
2776  0BDE  CD 00 00    	call	___sdcc_enter_ix
2777  0BE1  3B          	dec	sp
2778  0BE2  21 00 00    	ld	hl,0x0000
2779  0BE5  22 00 00    	ld	(_tmp_ui),hl
2780  0BE8  21 00 00    	ld	hl,_map_paper
2781  0BEB  7E          	ld	a, (hl)
2782  0BEC  0F          	rrca
2783  0BED  0F          	rrca
2784  0BEE  0F          	rrca
2785  0BEF  E6 1F       	and	a,0x1f
2786  0BF1  B6          	or	a, (hl)
2787  0BF2  32 00 00    	ld	(_map_paper_clr),a
2788  0BF5  21 80 01    	ld	hl,0x0180
2789  0BF8  22 00 00    	ld	(_index0),hl
2790  0BFB              l_spr_btile_paint_back_00106:
2791  0BFB  21 00 00    	ld	hl,_index0
2792  0BFE  7E          	ld	a, (hl)
2793  0BFF  D6 80       	sub	a,0x80
2794  0C01  23          	inc	hl
2795  0C02  7E          	ld	a, (hl)
2796  0C03  DE 0D       	sbc	a,0x0d
2797  0C05  30 49       	jr	NC,l_spr_btile_paint_back_00108
2798  0C07  21 00 00    	ld	hl,_i
2799  0C0A  36 00       	ld	(hl),0x00
2800  0C0C              l_spr_btile_paint_back_00103:
2801  0C0C  3A 00 00    	ld	a,(_i)
2802  0C0F  D6 10       	sub	a,0x10
2803  0C11  30 31       	jr	NC,l_spr_btile_paint_back_00105
2804  0C13  01 00 00    	ld	bc,_btiles
2805  0C16  2A 00 00    	ld	hl,(_index0)
2806  0C19  09          	add	hl,bc
2807  0C1A  7D          	ld	a,l
2808  0C1B  44          	ld	b,h
2809  0C1C  21 00 00    	ld	hl,_i
2810  0C1F  86          	add	a, (hl)
2811  0C20  4F          	ld	c, a
2812  0C21  78          	ld	a, b
2813  0C22  CE 00       	adc	a,0x00
2814  0C24  47          	ld	b, a
2815  0C25  21 20 00    	ld	hl,0x0020
2816  0C28  09          	add	hl,bc
2817  0C29  7E          	ld	a,(hl)
2818  0C2A  DD 77 FF    	ld	(ix-1),a
2819  0C2D  E6 38       	and	a,0x38
2820  0C2F  20 0D       	jr	NZ,l_spr_btile_paint_back_00102
2821  0C31  DD 7E FF    	ld	a,(ix-1)
2822  0C34  E6 C7       	and	a,0xc7
2823  0C36  77          	ld	(hl),a
2824  0C37  4D          	ld	c,l
2825  0C38  44          	ld	b,h
2826  0C39  21 00 00    	ld	hl,_map_paper
2827  0C3C  B6          	or	a, (hl)
2828  0C3D  02          	ld	(bc), a
2829  0C3E              l_spr_btile_paint_back_00102:
2830  0C3E  21 00 00    	ld	hl,_i
2831  0C41  34          	inc	(hl)
2832  0C42  18 C8       	jr	l_spr_btile_paint_back_00103
2833  0C44              l_spr_btile_paint_back_00105:
2834  0C44  2A 00 00    	ld	hl,(_index0)
2835  0C47  11 30 00    	ld	de,0x0030
2836  0C4A  19          	add	hl,de
2837  0C4B  22 00 00    	ld	(_index0),hl
2838  0C4E  18 AB       	jr	l_spr_btile_paint_back_00106
2839  0C50              l_spr_btile_paint_back_00108:
2840  0C50  3A 00 00    	ld	a,(_map_paper)
2841  0C53  32 00 00    	ld	(_map_paper_last),a
2842  0C56  CD 00 00    	call	_game_attribs
2843  0C59  33          	inc	sp
2844  0C5A  DD E1       	pop	ix
2845  0C5C  C9          	ret
2846  0C5D              	SECTION code_compiler
2847  0C5D              ;	---------------------------------
2848  0C5D              ; Function spr_flatten
2849  0C5D              ; ---------------------------------
2850  0C5D              _spr_flatten:
2851  0C5D  06 00       	ld	b,0x00
2852  0C5F              l_spr_flatten_00102:
2853  0C5F  78          	ld	a, b
2854  0C60  07          	rlca
2855  0C61  07          	rlca
2856  0C62  07          	rlca
2857  0C63  E6 F8       	and	a,0xf8
2858  0C65  5F          	ld	e, a
2859  0C66  16 00       	ld	d,0x00
2860  0C68  21 96 DC    	ld	hl,0xdc96
2861  0C6B  19          	add	hl, de
2862  0C6C  7E          	ld	a, (hl)
2863  0C6D  32 00 00    	ld	(_s_lin1),a
2864  0C70  16 00       	ld	d,0x00
2865  0C72  21 95 DC    	ld	hl,0xdc95
2866  0C75  19          	add	hl, de
2867  0C76  7E          	ld	a, (hl)
2868  0C77  32 00 00    	ld	(_s_col1),a
2869  0C7A  16 00       	ld	d,0x00
2870  0C7C  21 98 DC    	ld	hl,0xdc98
2871  0C7F  19          	add	hl, de
2872  0C80  7E          	ld	a, (hl)
2873  0C81  32 00 00    	ld	(_s_tile1),a
2874  0C84  C5          	push	bc
2875  0C85  21 00 00    	ld	hl,0x0000
2876  0C88  E5          	push	hl
2877  0C89  AF          	xor	a, a
2878  0C8A  48          	ld	c,b
2879  0C8B  47          	ld	b,a
2880  0C8C  C5          	push	bc
2881  0C8D  CD 00 00    	call	_NIRVANAP_spriteT_callee
2882  0C90  2A FF FF    	ld	hl,(_s_col1 - 1)
2883  0C93  3A 00 00    	ld	a,(_s_lin1)
2884  0C96  6F          	ld	l,a
2885  0C97  3A 00 00    	ld	a,(_s_tile1)
2886  0C9A  E5          	push	hl
2887  0C9B  F5          	push	af
2888  0C9C  33          	inc	sp
2889  0C9D  CD 00 00    	call	_NIRVANAP_drawT_callee
2890  0CA0  C1          	pop	bc
2891  0CA1  04          	inc	b
2892  0CA2  78          	ld	a, b
2893  0CA3  D6 08       	sub	a,0x08
2894  0CA5  38 B8       	jr	C,l_spr_flatten_00102
2895  0CA7  C9          	ret
2896  0CA8              	SECTION code_compiler
2897  0CA8              ;	---------------------------------
2898  0CA8              ; Function spr_unflattenP1
2899  0CA8              ; ---------------------------------
2900  0CA8              _spr_unflattenP1:
2901  0CA8  21 0F 00    	ld	hl,+(_col + 0x000f)
2902  0CAB  46          	ld	b, (hl)
2903  0CAC  21 0F 00    	ld	hl,+(_lin + 0x000f)
2904  0CAF  4E          	ld	c, (hl)
2905  0CB0  3A 00 00    	ld	a,(_s_tile1)
2906  0CB3  C5          	push	bc
2907  0CB4  F5          	push	af
2908  0CB5  33          	inc	sp
2909  0CB6  CD 00 00    	call	_NIRVANAP_drawT_callee
2910  0CB9  C9          	ret
2911  0CBA              	SECTION IGNORE
2912  0000              
