1     0000              MODULE game_menu_c
2     0000              LINE 0, "game_menu.c"
0     0000              
1     0000              ;--------------------------------------------------------
2     0000              ; File Created by SDCC : free open source ANSI-C Compiler
3     0000              ; Version 3.6.9 #9958 (Mac OS X i386)
4     0000              ;--------------------------------------------------------
5     0000              ; Processed by Z88DK
6     0000              ;--------------------------------------------------------
7     0000              
8     0000              	EXTERN __divschar
9     0000              	EXTERN __divschar_callee
10    0000              	EXTERN __divsint
11    0000              	EXTERN __divsint_callee
12    0000              	EXTERN __divslong
13    0000              	EXTERN __divslong_callee
14    0000              	EXTERN __divslonglong
15    0000              	EXTERN __divslonglong_callee
16    0000              	EXTERN __divsuchar
17    0000              	EXTERN __divsuchar_callee
18    0000              	EXTERN __divuchar
19    0000              	EXTERN __divuchar_callee
20    0000              	EXTERN __divuint
21    0000              	EXTERN __divuint_callee
22    0000              	EXTERN __divulong
23    0000              	EXTERN __divulong_callee
24    0000              	EXTERN __divulonglong
25    0000              	EXTERN __divulonglong_callee
26    0000              	EXTERN __divuschar
27    0000              	EXTERN __divuschar_callee
28    0000              	EXTERN __modschar
29    0000              	EXTERN __modschar_callee
30    0000              	EXTERN __modsint
31    0000              	EXTERN __modsint_callee
32    0000              	EXTERN __modslong
33    0000              	EXTERN __modslong_callee
34    0000              	EXTERN __modslonglong
35    0000              	EXTERN __modslonglong_callee
36    0000              	EXTERN __modsuchar
37    0000              	EXTERN __modsuchar_callee
38    0000              	EXTERN __moduchar
39    0000              	EXTERN __moduchar_callee
40    0000              	EXTERN __moduint
41    0000              	EXTERN __moduint_callee
42    0000              	EXTERN __modulong
43    0000              	EXTERN __modulong_callee
44    0000              	EXTERN __modulonglong
45    0000              	EXTERN __modulonglong_callee
46    0000              	EXTERN __moduschar
47    0000              	EXTERN __moduschar_callee
48    0000              	EXTERN __mulint
49    0000              	EXTERN __mulint_callee
50    0000              	EXTERN __mullong
51    0000              	EXTERN __mullong_callee
52    0000              	EXTERN __mullonglong
53    0000              	EXTERN __mullonglong_callee
54    0000              	EXTERN __mulschar
55    0000              	EXTERN __mulschar_callee
56    0000              	EXTERN __mulsuchar
57    0000              	EXTERN __mulsuchar_callee
58    0000              	EXTERN __muluschar
59    0000              	EXTERN __muluschar_callee
60    0000              	EXTERN __rlslonglong
61    0000              	EXTERN __rlslonglong_callee
62    0000              	EXTERN __rlulonglong
63    0000              	EXTERN __rlulonglong_callee
64    0000              	EXTERN __rrslonglong
65    0000              	EXTERN __rrslonglong_callee
66    0000              	EXTERN __rrulonglong
67    0000              	EXTERN __rrulonglong_callee
68    0000              	EXTERN ___sdcc_call_hl
69    0000              	EXTERN ___sdcc_call_iy
70    0000              	EXTERN ___sdcc_enter_ix
71    0000              	EXTERN _banked_call
72    0000              	EXTERN _banked_ret
73    0000              	EXTERN ___fs2schar
74    0000              	EXTERN ___fs2schar_callee
75    0000              	EXTERN ___fs2sint
76    0000              	EXTERN ___fs2sint_callee
77    0000              	EXTERN ___fs2slong
78    0000              	EXTERN ___fs2slong_callee
79    0000              	EXTERN ___fs2slonglong
80    0000              	EXTERN ___fs2slonglong_callee
81    0000              	EXTERN ___fs2uchar
82    0000              	EXTERN ___fs2uchar_callee
83    0000              	EXTERN ___fs2uint
84    0000              	EXTERN ___fs2uint_callee
85    0000              	EXTERN ___fs2ulong
86    0000              	EXTERN ___fs2ulong_callee
87    0000              	EXTERN ___fs2ulonglong
88    0000              	EXTERN ___fs2ulonglong_callee
89    0000              	EXTERN ___fsadd
90    0000              	EXTERN ___fsadd_callee
91    0000              	EXTERN ___fsdiv
92    0000              	EXTERN ___fsdiv_callee
93    0000              	EXTERN ___fseq
94    0000              	EXTERN ___fseq_callee
95    0000              	EXTERN ___fsgt
96    0000              	EXTERN ___fsgt_callee
97    0000              	EXTERN ___fslt
98    0000              	EXTERN ___fslt_callee
99    0000              	EXTERN ___fsmul
100   0000              	EXTERN ___fsmul_callee
101   0000              	EXTERN ___fsneq
102   0000              	EXTERN ___fsneq_callee
103   0000              	EXTERN ___fssub
104   0000              	EXTERN ___fssub_callee
105   0000              	EXTERN ___schar2fs
106   0000              	EXTERN ___schar2fs_callee
107   0000              	EXTERN ___sint2fs
108   0000              	EXTERN ___sint2fs_callee
109   0000              	EXTERN ___slong2fs
110   0000              	EXTERN ___slong2fs_callee
111   0000              	EXTERN ___slonglong2fs
112   0000              	EXTERN ___slonglong2fs_callee
113   0000              	EXTERN ___uchar2fs
114   0000              	EXTERN ___uchar2fs_callee
115   0000              	EXTERN ___uint2fs
116   0000              	EXTERN ___uint2fs_callee
117   0000              	EXTERN ___ulong2fs
118   0000              	EXTERN ___ulong2fs_callee
119   0000              	EXTERN ___ulonglong2fs
120   0000              	EXTERN ___ulonglong2fs_callee
121   0000              	EXTERN ____sdcc_2_copy_src_mhl_dst_deix
122   0000              	EXTERN ____sdcc_2_copy_src_mhl_dst_bcix
123   0000              	EXTERN ____sdcc_4_copy_src_mhl_dst_deix
124   0000              	EXTERN ____sdcc_4_copy_src_mhl_dst_bcix
125   0000              	EXTERN ____sdcc_4_copy_src_mhl_dst_mbc
126   0000              	EXTERN ____sdcc_4_ldi_nosave_bc
127   0000              	EXTERN ____sdcc_4_ldi_save_bc
128   0000              	EXTERN ____sdcc_4_push_hlix
129   0000              	EXTERN ____sdcc_4_push_mhl
130   0000              	EXTERN ____sdcc_lib_setmem_hl
131   0000              	EXTERN ____sdcc_ll_add_de_bc_hl
132   0000              	EXTERN ____sdcc_ll_add_de_bc_hlix
133   0000              	EXTERN ____sdcc_ll_add_de_hlix_bc
134   0000              	EXTERN ____sdcc_ll_add_de_hlix_bcix
135   0000              	EXTERN ____sdcc_ll_add_deix_bc_hl
136   0000              	EXTERN ____sdcc_ll_add_deix_hlix
137   0000              	EXTERN ____sdcc_ll_add_hlix_bc_deix
138   0000              	EXTERN ____sdcc_ll_add_hlix_deix_bc
139   0000              	EXTERN ____sdcc_ll_add_hlix_deix_bcix
140   0000              	EXTERN ____sdcc_ll_asr_hlix_a
141   0000              	EXTERN ____sdcc_ll_asr_mbc_a
142   0000              	EXTERN ____sdcc_ll_copy_src_de_dst_hlix
143   0000              	EXTERN ____sdcc_ll_copy_src_de_dst_hlsp
144   0000              	EXTERN ____sdcc_ll_copy_src_deix_dst_hl
145   0000              	EXTERN ____sdcc_ll_copy_src_deix_dst_hlix
146   0000              	EXTERN ____sdcc_ll_copy_src_deixm_dst_hlsp
147   0000              	EXTERN ____sdcc_ll_copy_src_desp_dst_hlsp
148   0000              	EXTERN ____sdcc_ll_copy_src_hl_dst_de
149   0000              	EXTERN ____sdcc_ll_copy_src_hlsp_dst_de
150   0000              	EXTERN ____sdcc_ll_copy_src_hlsp_dst_deixm
151   0000              	EXTERN ____sdcc_ll_lsl_hlix_a
152   0000              	EXTERN ____sdcc_ll_lsl_mbc_a
153   0000              	EXTERN ____sdcc_ll_lsr_hlix_a
154   0000              	EXTERN ____sdcc_ll_lsr_mbc_a
155   0000              	EXTERN ____sdcc_ll_push_hlix
156   0000              	EXTERN ____sdcc_ll_push_mhl
157   0000              	EXTERN ____sdcc_ll_sub_de_bc_hl
158   0000              	EXTERN ____sdcc_ll_sub_de_bc_hlix
159   0000              	EXTERN ____sdcc_ll_sub_de_hlix_bc
160   0000              	EXTERN ____sdcc_ll_sub_de_hlix_bcix
161   0000              	EXTERN ____sdcc_ll_sub_deix_bc_hl
162   0000              	EXTERN ____sdcc_ll_sub_deix_hlix
163   0000              	EXTERN ____sdcc_ll_sub_hlix_bc_deix
164   0000              	EXTERN ____sdcc_ll_sub_hlix_deix_bc
165   0000              	EXTERN ____sdcc_ll_sub_hlix_deix_bcix
166   0000              	EXTERN ____sdcc_load_debc_deix
167   0000              	EXTERN ____sdcc_load_dehl_deix
168   0000              	EXTERN ____sdcc_load_debc_mhl
169   0000              	EXTERN ____sdcc_load_hlde_mhl
170   0000              	EXTERN ____sdcc_store_dehl_bcix
171   0000              	EXTERN ____sdcc_store_debc_hlix
172   0000              	EXTERN ____sdcc_store_debc_mhl
173   0000              	EXTERN ____sdcc_cpu_pop_ei
174   0000              	EXTERN ____sdcc_cpu_pop_ei_jp
175   0000              	EXTERN ____sdcc_cpu_push_di
176   0000              	EXTERN ____sdcc_outi
177   0000              	EXTERN ____sdcc_outi_128
178   0000              	EXTERN ____sdcc_outi_256
179   0000              	EXTERN ____sdcc_ldi
180   0000              	EXTERN ____sdcc_ldi_128
181   0000              	EXTERN ____sdcc_ldi_256
182   0000              	EXTERN ____sdcc_4_copy_srcd_hlix_dst_deix
183   0000              	EXTERN ____sdcc_4_and_src_mbc_mhl_dst_deix
184   0000              	EXTERN ____sdcc_4_or_src_mbc_mhl_dst_deix
185   0000              	EXTERN ____sdcc_4_xor_src_mbc_mhl_dst_deix
186   0000              	EXTERN ____sdcc_4_or_src_dehl_dst_bcix
187   0000              	EXTERN ____sdcc_4_xor_src_dehl_dst_bcix
188   0000              	EXTERN ____sdcc_4_and_src_dehl_dst_bcix
189   0000              	EXTERN ____sdcc_4_xor_src_mbc_mhl_dst_debc
190   0000              	EXTERN ____sdcc_4_or_src_mbc_mhl_dst_debc
191   0000              	EXTERN ____sdcc_4_and_src_mbc_mhl_dst_debc
192   0000              	EXTERN ____sdcc_4_cpl_src_mhl_dst_debc
193   0000              	EXTERN ____sdcc_4_xor_src_debc_mhl_dst_debc
194   0000              	EXTERN ____sdcc_4_or_src_debc_mhl_dst_debc
195   0000              	EXTERN ____sdcc_4_and_src_debc_mhl_dst_debc
196   0000              	EXTERN ____sdcc_4_and_src_debc_hlix_dst_debc
197   0000              	EXTERN ____sdcc_4_or_src_debc_hlix_dst_debc
198   0000              	EXTERN ____sdcc_4_xor_src_debc_hlix_dst_debc
199   0000              
200   0000              ;--------------------------------------------------------
201   0000              ; Public variables in this module
202   0000              ;--------------------------------------------------------
203   0000              	GLOBAL _menu_rotcolor
204   0000              	GLOBAL _menu_logo
205   0000              	GLOBAL _menu_read_code
206   0000              	GLOBAL _menu_mcodechk
207   0000              	GLOBAL _menu_read_key
208   0000              	GLOBAL _menu_define_key
209   0000              	GLOBAL _menu_redefine
210   0000              	GLOBAL _menu_clear
211   0000              	GLOBAL _menu_main_print
212   0000              	GLOBAL _menu_main
213   0000              ;--------------------------------------------------------
214   0000              ; Externals used
215   0000              ;--------------------------------------------------------
216   0000              	GLOBAL _ffsll_callee
217   0000              	GLOBAL _ffsll
218   0000              	GLOBAL _strxfrm_callee
219   0000              	GLOBAL _strxfrm
220   0000              	GLOBAL _strupr_fastcall
221   0000              	GLOBAL _strupr
222   0000              	GLOBAL _strtok_r_callee
223   0000              	GLOBAL _strtok_r
224   0000              	GLOBAL _strtok_callee
225   0000              	GLOBAL _strtok
226   0000              	GLOBAL _strstrip_fastcall
227   0000              	GLOBAL _strstrip
228   0000              	GLOBAL _strstr_callee
229   0000              	GLOBAL _strstr
230   0000              	GLOBAL _strspn_callee
231   0000              	GLOBAL _strspn
232   0000              	GLOBAL _strsep_callee
233   0000              	GLOBAL _strsep
234   0000              	GLOBAL _strrstrip_fastcall
235   0000              	GLOBAL _strrstrip
236   0000              	GLOBAL _strrstr_callee
237   0000              	GLOBAL _strrstr
238   0000              	GLOBAL _strrspn_callee
239   0000              	GLOBAL _strrspn
240   0000              	GLOBAL _strrev_fastcall
241   0000              	GLOBAL _strrev
242   0000              	GLOBAL _strrcspn_callee
243   0000              	GLOBAL _strrcspn
244   0000              	GLOBAL _strrchr_callee
245   0000              	GLOBAL _strrchr
246   0000              	GLOBAL _strpbrk_callee
247   0000              	GLOBAL _strpbrk
248   0000              	GLOBAL _strnlen_callee
249   0000              	GLOBAL _strnlen
250   0000              	GLOBAL _strnicmp_callee
251   0000              	GLOBAL _strnicmp
252   0000              	GLOBAL _strndup_callee
253   0000              	GLOBAL _strndup
254   0000              	GLOBAL _strncpy_callee
255   0000              	GLOBAL _strncpy
256   0000              	GLOBAL _strncmp_callee
257   0000              	GLOBAL _strncmp
258   0000              	GLOBAL _strnchr_callee
259   0000              	GLOBAL _strnchr
260   0000              	GLOBAL _strncat_callee
261   0000              	GLOBAL _strncat
262   0000              	GLOBAL _strncasecmp_callee
263   0000              	GLOBAL _strncasecmp
264   0000              	GLOBAL _strlwr_fastcall
265   0000              	GLOBAL _strlwr
266   0000              	GLOBAL _strlen_fastcall
267   0000              	GLOBAL _strlen
268   0000              	GLOBAL _strlcpy_callee
269   0000              	GLOBAL _strlcpy
270   0000              	GLOBAL _strlcat_callee
271   0000              	GLOBAL _strlcat
272   0000              	GLOBAL _stricmp_callee
273   0000              	GLOBAL _stricmp
274   0000              	GLOBAL _strerror_fastcall
275   0000              	GLOBAL _strerror
276   0000              	GLOBAL _strdup_fastcall
277   0000              	GLOBAL _strdup
278   0000              	GLOBAL _strcspn_callee
279   0000              	GLOBAL _strcspn
280   0000              	GLOBAL _strcpy_callee
281   0000              	GLOBAL _strcpy
282   0000              	GLOBAL _strcoll_callee
283   0000              	GLOBAL _strcoll
284   0000              	GLOBAL _strcmp_callee
285   0000              	GLOBAL _strcmp
286   0000              	GLOBAL _strchrnul_callee
287   0000              	GLOBAL _strchrnul
288   0000              	GLOBAL _strchr_callee
289   0000              	GLOBAL _strchr
290   0000              	GLOBAL _strcat_callee
291   0000              	GLOBAL _strcat
292   0000              	GLOBAL _strcasecmp_callee
293   0000              	GLOBAL _strcasecmp
294   0000              	GLOBAL _stpncpy_callee
295   0000              	GLOBAL _stpncpy
296   0000              	GLOBAL _stpcpy_callee
297   0000              	GLOBAL _stpcpy
298   0000              	GLOBAL _memswap_callee
299   0000              	GLOBAL _memswap
300   0000              	GLOBAL _memset_callee
301   0000              	GLOBAL _memset
302   0000              	GLOBAL _memrchr_callee
303   0000              	GLOBAL _memrchr
304   0000              	GLOBAL _memmove_callee
305   0000              	GLOBAL _memmove
306   0000              	GLOBAL _memmem_callee
307   0000              	GLOBAL _memmem
308   0000              	GLOBAL _memcpy_callee
309   0000              	GLOBAL _memcpy
310   0000              	GLOBAL _memcmp_callee
311   0000              	GLOBAL _memcmp
312   0000              	GLOBAL _memchr_callee
313   0000              	GLOBAL _memchr
314   0000              	GLOBAL _memccpy_callee
315   0000              	GLOBAL _memccpy
316   0000              	GLOBAL _ffsl_fastcall
317   0000              	GLOBAL _ffsl
318   0000              	GLOBAL _ffs_fastcall
319   0000              	GLOBAL _ffs
320   0000              	GLOBAL __strrstrip__fastcall
321   0000              	GLOBAL __strrstrip_
322   0000              	GLOBAL __memupr__callee
323   0000              	GLOBAL __memupr_
324   0000              	GLOBAL __memstrcpy__callee
325   0000              	GLOBAL __memstrcpy_
326   0000              	GLOBAL __memlwr__callee
327   0000              	GLOBAL __memlwr_
328   0000              	GLOBAL _rawmemchr_callee
329   0000              	GLOBAL _rawmemchr
330   0000              	GLOBAL _strnset_callee
331   0000              	GLOBAL _strnset
332   0000              	GLOBAL _strset_callee
333   0000              	GLOBAL _strset
334   0000              	GLOBAL _rindex_callee
335   0000              	GLOBAL _rindex
336   0000              	GLOBAL _index_callee
337   0000              	GLOBAL _index
338   0000              	GLOBAL _bzero_callee
339   0000              	GLOBAL _bzero
340   0000              	GLOBAL _bcopy_callee
341   0000              	GLOBAL _bcopy
342   0000              	GLOBAL _bcmp_callee
343   0000              	GLOBAL _bcmp
344   0000              	GLOBAL _ulltoa_callee
345   0000              	GLOBAL _ulltoa
346   0000              	GLOBAL _strtoull_callee
347   0000              	GLOBAL _strtoull
348   0000              	GLOBAL _strtoll_callee
349   0000              	GLOBAL _strtoll
350   0000              	GLOBAL _lltoa_callee
351   0000              	GLOBAL _lltoa
352   0000              	GLOBAL _llabs_callee
353   0000              	GLOBAL _llabs
354   0000              	GLOBAL __lldivu__callee
355   0000              	GLOBAL __lldivu_
356   0000              	GLOBAL __lldiv__callee
357   0000              	GLOBAL __lldiv_
358   0000              	GLOBAL _atoll_callee
359   0000              	GLOBAL _atoll
360   0000              	GLOBAL _realloc_unlocked_callee
361   0000              	GLOBAL _realloc_unlocked
362   0000              	GLOBAL _malloc_unlocked_fastcall
363   0000              	GLOBAL _malloc_unlocked
364   0000              	GLOBAL _free_unlocked_fastcall
365   0000              	GLOBAL _free_unlocked
366   0000              	GLOBAL _calloc_unlocked_callee
367   0000              	GLOBAL _calloc_unlocked
368   0000              	GLOBAL _aligned_alloc_unlocked_callee
369   0000              	GLOBAL _aligned_alloc_unlocked
370   0000              	GLOBAL _realloc_callee
371   0000              	GLOBAL _realloc
372   0000              	GLOBAL _malloc_fastcall
373   0000              	GLOBAL _malloc
374   0000              	GLOBAL _free_fastcall
375   0000              	GLOBAL _free
376   0000              	GLOBAL _calloc_callee
377   0000              	GLOBAL _calloc
378   0000              	GLOBAL _aligned_alloc_callee
379   0000              	GLOBAL _aligned_alloc
380   0000              	GLOBAL _utoa_callee
381   0000              	GLOBAL _utoa
382   0000              	GLOBAL _ultoa_callee
383   0000              	GLOBAL _ultoa
384   0000              	GLOBAL _system_fastcall
385   0000              	GLOBAL _system
386   0000              	GLOBAL _strtoul_callee
387   0000              	GLOBAL _strtoul
388   0000              	GLOBAL _strtol_callee
389   0000              	GLOBAL _strtol
390   0000              	GLOBAL _strtof_callee
391   0000              	GLOBAL _strtof
392   0000              	GLOBAL _strtod_callee
393   0000              	GLOBAL _strtod
394   0000              	GLOBAL _srand_fastcall
395   0000              	GLOBAL _srand
396   0000              	GLOBAL _rand
397   0000              	GLOBAL _quick_exit_fastcall
398   0000              	GLOBAL _quick_exit
399   0000              	GLOBAL _qsort_callee
400   0000              	GLOBAL _qsort
401   0000              	GLOBAL _ltoa_callee
402   0000              	GLOBAL _ltoa
403   0000              	GLOBAL _labs_fastcall
404   0000              	GLOBAL _labs
405   0000              	GLOBAL _itoa_callee
406   0000              	GLOBAL _itoa
407   0000              	GLOBAL _ftoh_callee
408   0000              	GLOBAL _ftoh
409   0000              	GLOBAL _ftog_callee
410   0000              	GLOBAL _ftog
411   0000              	GLOBAL _ftoe_callee
412   0000              	GLOBAL _ftoe
413   0000              	GLOBAL _ftoa_callee
414   0000              	GLOBAL _ftoa
415   0000              	GLOBAL _exit_fastcall
416   0000              	GLOBAL _exit
417   0000              	GLOBAL _dtoh_callee
418   0000              	GLOBAL _dtoh
419   0000              	GLOBAL _dtog_callee
420   0000              	GLOBAL _dtog
421   0000              	GLOBAL _dtoe_callee
422   0000              	GLOBAL _dtoe
423   0000              	GLOBAL _dtoa_callee
424   0000              	GLOBAL _dtoa
425   0000              	GLOBAL _bsearch_callee
426   0000              	GLOBAL _bsearch
427   0000              	GLOBAL _atol_fastcall
428   0000              	GLOBAL _atol
429   0000              	GLOBAL _atoi_fastcall
430   0000              	GLOBAL _atoi
431   0000              	GLOBAL _atof_fastcall
432   0000              	GLOBAL _atof
433   0000              	GLOBAL _atexit_fastcall
434   0000              	GLOBAL _atexit
435   0000              	GLOBAL _at_quick_exit_fastcall
436   0000              	GLOBAL _at_quick_exit
437   0000              	GLOBAL _abs_fastcall
438   0000              	GLOBAL _abs
439   0000              	GLOBAL _abort
440   0000              	GLOBAL __strtou__callee
441   0000              	GLOBAL __strtou_
442   0000              	GLOBAL __strtoi__callee
443   0000              	GLOBAL __strtoi_
444   0000              	GLOBAL __random_uniform_xor_8__fastcall
445   0000              	GLOBAL __random_uniform_xor_8_
446   0000              	GLOBAL __random_uniform_xor_32__fastcall
447   0000              	GLOBAL __random_uniform_xor_32_
448   0000              	GLOBAL __random_uniform_cmwc_8__fastcall
449   0000              	GLOBAL __random_uniform_cmwc_8_
450   0000              	GLOBAL __shellsort__callee
451   0000              	GLOBAL __shellsort_
452   0000              	GLOBAL __quicksort__callee
453   0000              	GLOBAL __quicksort_
454   0000              	GLOBAL __insertion_sort__callee
455   0000              	GLOBAL __insertion_sort_
456   0000              	GLOBAL __ldivu__callee
457   0000              	GLOBAL __ldivu_
458   0000              	GLOBAL __ldiv__callee
459   0000              	GLOBAL __ldiv_
460   0000              	GLOBAL __divu__callee
461   0000              	GLOBAL __divu_
462   0000              	GLOBAL __div__callee
463   0000              	GLOBAL __div_
464   0000              	GLOBAL _NIRVANAP_drawTW_raw_callee
465   0000              	GLOBAL _NIRVANAP_drawTW_raw
466   0000              	GLOBAL _NIRVANAP_drawTW_callee
467   0000              	GLOBAL _NIRVANAP_drawTW
468   0000              	GLOBAL _NIRVANAP_drawW_raw_callee
469   0000              	GLOBAL _NIRVANAP_drawW_raw
470   0000              	GLOBAL _NIRVANAP_drawW_callee
471   0000              	GLOBAL _NIRVANAP_drawW
472   0000              	GLOBAL _NIRVANAP_spriteT_callee
473   0000              	GLOBAL _NIRVANAP_spriteT
474   0000              	GLOBAL _NIRVANAP_fillC_callee
475   0000              	GLOBAL _NIRVANAP_fillC
476   0000              	GLOBAL _NIRVANAP_readC_callee
477   0000              	GLOBAL _NIRVANAP_readC
478   0000              	GLOBAL _NIRVANAP_paintC_callee
479   0000              	GLOBAL _NIRVANAP_paintC
480   0000              	GLOBAL _NIRVANAP_printQ_callee
481   0000              	GLOBAL _NIRVANAP_printQ
482   0000              	GLOBAL _NIRVANAP_fillT_raw_callee
483   0000              	GLOBAL _NIRVANAP_fillT_raw
484   0000              	GLOBAL _NIRVANAP_fillT_callee
485   0000              	GLOBAL _NIRVANAP_fillT
486   0000              	GLOBAL _NIRVANAP_drawT_raw_callee
487   0000              	GLOBAL _NIRVANAP_drawT_raw
488   0000              	GLOBAL _NIRVANAP_drawT_callee
489   0000              	GLOBAL _NIRVANAP_drawT
490   0000              	GLOBAL _NIRVANAP_stop
491   0000              	GLOBAL _NIRVANAP_start
492   0000              	GLOBAL _zx_print_str
493   0000              	GLOBAL _zx_print_int
494   0000              	GLOBAL _zx_print_chr
495   0000              	GLOBAL _zx_isr
496   0000              	GLOBAL _z80_otdr_callee
497   0000              	GLOBAL _z80_otdr
498   0000              	GLOBAL _z80_otir_callee
499   0000              	GLOBAL _z80_otir
500   0000              	GLOBAL _z80_outp_callee
501   0000              	GLOBAL _z80_outp
502   0000              	GLOBAL _z80_indr_callee
503   0000              	GLOBAL _z80_indr
504   0000              	GLOBAL _z80_inir_callee
505   0000              	GLOBAL _z80_inir
506   0000              	GLOBAL _z80_inp_fastcall
507   0000              	GLOBAL _z80_inp
508   0000              	GLOBAL _z80_set_int_state_fastcall
509   0000              	GLOBAL _z80_set_int_state
510   0000              	GLOBAL _z80_get_int_state
511   0000              	GLOBAL _z80_delay_tstate_fastcall
512   0000              	GLOBAL _z80_delay_tstate
513   0000              	GLOBAL _z80_delay_ms_fastcall
514   0000              	GLOBAL _z80_delay_ms
515   0000              	GLOBAL _im2_remove_generic_callback_callee
516   0000              	GLOBAL _im2_remove_generic_callback
517   0000              	GLOBAL _im2_prepend_generic_callback_callee
518   0000              	GLOBAL _im2_prepend_generic_callback
519   0000              	GLOBAL _im2_append_generic_callback_callee
520   0000              	GLOBAL _im2_append_generic_callback
521   0000              	GLOBAL _im2_create_generic_isr_8080_callee
522   0000              	GLOBAL _im2_create_generic_isr_8080
523   0000              	GLOBAL _im2_create_generic_isr_callee
524   0000              	GLOBAL _im2_create_generic_isr
525   0000              	GLOBAL _im2_install_isr_callee
526   0000              	GLOBAL _im2_install_isr
527   0000              	GLOBAL _im2_init_fastcall
528   0000              	GLOBAL _im2_init
529   0000              	GLOBAL _intrinsic_swap_word_32_fastcall
530   0000              	GLOBAL _intrinsic_swap_word_32
531   0000              	GLOBAL _intrinsic_swap_endian_32_fastcall
532   0000              	GLOBAL _intrinsic_swap_endian_32
533   0000              	GLOBAL _intrinsic_swap_endian_16_fastcall
534   0000              	GLOBAL _intrinsic_swap_endian_16
535   0000              	GLOBAL _intrinsic_return_de
536   0000              	GLOBAL _intrinsic_return_bc
537   0000              	GLOBAL _intrinsic_exx
538   0000              	GLOBAL _intrinsic_ex_de_hl
539   0000              	GLOBAL _intrinsic_nop
540   0000              	GLOBAL _intrinsic_im_2
541   0000              	GLOBAL _intrinsic_im_1
542   0000              	GLOBAL _intrinsic_im_0
543   0000              	GLOBAL _intrinsic_retn
544   0000              	GLOBAL _intrinsic_reti
545   0000              	GLOBAL _intrinsic_halt
546   0000              	GLOBAL _intrinsic_ei
547   0000              	GLOBAL _intrinsic_di
548   0000              	GLOBAL _intrinsic_stub
549   0000              	GLOBAL _intrinsic_ini
550   0000              	GLOBAL _intrinsic_outi
551   0000              	GLOBAL _intrinsic_ldi
552   0000              	GLOBAL _zx_pattern_fill_callee
553   0000              	GLOBAL _zx_pattern_fill
554   0000              	GLOBAL _zx_saddrpup_fastcall
555   0000              	GLOBAL _zx_saddrpup
556   0000              	GLOBAL _zx_saddrpright_callee
557   0000              	GLOBAL _zx_saddrpright
558   0000              	GLOBAL _zx_saddrpleft_callee
559   0000              	GLOBAL _zx_saddrpleft
560   0000              	GLOBAL _zx_saddrpdown_fastcall
561   0000              	GLOBAL _zx_saddrpdown
562   0000              	GLOBAL _zx_saddrcup_fastcall
563   0000              	GLOBAL _zx_saddrcup
564   0000              	GLOBAL _zx_saddrcright_fastcall
565   0000              	GLOBAL _zx_saddrcright
566   0000              	GLOBAL _zx_saddrcleft_fastcall
567   0000              	GLOBAL _zx_saddrcleft
568   0000              	GLOBAL _zx_saddrcdown_fastcall
569   0000              	GLOBAL _zx_saddrcdown
570   0000              	GLOBAL _zx_saddr2py_fastcall
571   0000              	GLOBAL _zx_saddr2py
572   0000              	GLOBAL _zx_saddr2px_fastcall
573   0000              	GLOBAL _zx_saddr2px
574   0000              	GLOBAL _zx_saddr2cy_fastcall
575   0000              	GLOBAL _zx_saddr2cy
576   0000              	GLOBAL _zx_saddr2cx_fastcall
577   0000              	GLOBAL _zx_saddr2cx
578   0000              	GLOBAL _zx_saddr2aaddr_fastcall
579   0000              	GLOBAL _zx_saddr2aaddr
580   0000              	GLOBAL _zx_py2saddr_fastcall
581   0000              	GLOBAL _zx_py2saddr
582   0000              	GLOBAL _zx_py2aaddr_fastcall
583   0000              	GLOBAL _zx_py2aaddr
584   0000              	GLOBAL _zx_pxy2saddr_callee
585   0000              	GLOBAL _zx_pxy2saddr
586   0000              	GLOBAL _zx_pxy2aaddr_callee
587   0000              	GLOBAL _zx_pxy2aaddr
588   0000              	GLOBAL _zx_px2bitmask_fastcall
589   0000              	GLOBAL _zx_px2bitmask
590   0000              	GLOBAL _zx_cy2saddr_fastcall
591   0000              	GLOBAL _zx_cy2saddr
592   0000              	GLOBAL _zx_cy2aaddr_fastcall
593   0000              	GLOBAL _zx_cy2aaddr
594   0000              	GLOBAL _zx_cxy2saddr_callee
595   0000              	GLOBAL _zx_cxy2saddr
596   0000              	GLOBAL _zx_cxy2aaddr_callee
597   0000              	GLOBAL _zx_cxy2aaddr
598   0000              	GLOBAL _zx_bitmask2px_fastcall
599   0000              	GLOBAL _zx_bitmask2px
600   0000              	GLOBAL _zx_aaddrcup_fastcall
601   0000              	GLOBAL _zx_aaddrcup
602   0000              	GLOBAL _zx_aaddrcright_fastcall
603   0000              	GLOBAL _zx_aaddrcright
604   0000              	GLOBAL _zx_aaddrcleft_fastcall
605   0000              	GLOBAL _zx_aaddrcleft
606   0000              	GLOBAL _zx_aaddrcdown_fastcall
607   0000              	GLOBAL _zx_aaddrcdown
608   0000              	GLOBAL _zx_aaddr2saddr_fastcall
609   0000              	GLOBAL _zx_aaddr2saddr
610   0000              	GLOBAL _zx_aaddr2py_fastcall
611   0000              	GLOBAL _zx_aaddr2py
612   0000              	GLOBAL _zx_aaddr2px_fastcall
613   0000              	GLOBAL _zx_aaddr2px
614   0000              	GLOBAL _zx_aaddr2cy_fastcall
615   0000              	GLOBAL _zx_aaddr2cy
616   0000              	GLOBAL _zx_aaddr2cx_fastcall
617   0000              	GLOBAL _zx_aaddr2cx
618   0000              	GLOBAL _zx_visit_wc_pix_callee
619   0000              	GLOBAL _zx_visit_wc_pix
620   0000              	GLOBAL _zx_visit_wc_attr_callee
621   0000              	GLOBAL _zx_visit_wc_attr
622   0000              	GLOBAL _zx_scroll_wc_up_pix_callee
623   0000              	GLOBAL _zx_scroll_wc_up_pix
624   0000              	GLOBAL _zx_scroll_wc_up_attr_callee
625   0000              	GLOBAL _zx_scroll_wc_up_attr
626   0000              	GLOBAL _zx_scroll_wc_up_callee
627   0000              	GLOBAL _zx_scroll_wc_up
628   0000              	GLOBAL _zx_scroll_up_pix_callee
629   0000              	GLOBAL _zx_scroll_up_pix
630   0000              	GLOBAL _zx_scroll_up_attr_callee
631   0000              	GLOBAL _zx_scroll_up_attr
632   0000              	GLOBAL _zx_scroll_up_callee
633   0000              	GLOBAL _zx_scroll_up
634   0000              	GLOBAL _zx_cls_wc_pix_callee
635   0000              	GLOBAL _zx_cls_wc_pix
636   0000              	GLOBAL _zx_cls_wc_attr_callee
637   0000              	GLOBAL _zx_cls_wc_attr
638   0000              	GLOBAL _zx_cls_wc_callee
639   0000              	GLOBAL _zx_cls_wc
640   0000              	GLOBAL _zx_cls_pix_fastcall
641   0000              	GLOBAL _zx_cls_pix
642   0000              	GLOBAL _zx_cls_attr_fastcall
643   0000              	GLOBAL _zx_cls_attr
644   0000              	GLOBAL _zx_cls_fastcall
645   0000              	GLOBAL _zx_cls
646   0000              	GLOBAL _zx_border_fastcall
647   0000              	GLOBAL _zx_border
648   0000              	GLOBAL _zx_tape_verify_block_callee
649   0000              	GLOBAL _zx_tape_verify_block
650   0000              	GLOBAL _zx_tape_save_block_callee
651   0000              	GLOBAL _zx_tape_save_block
652   0000              	GLOBAL _zx_tape_load_block_callee
653   0000              	GLOBAL _zx_tape_load_block
654   0000              	GLOBAL _spr_horizontal_check
655   0000              	GLOBAL _spr_draw8
656   0000              	GLOBAL _spr_clear_scr
657   0000              	GLOBAL _spr_back_repaint
658   0000              	GLOBAL _spr_get_tile_dir
659   0000              	GLOBAL _spr_get_tile
660   0000              	GLOBAL _spr_paint_player
661   0000              	GLOBAL _spr_clear_fast_hor
662   0000              	GLOBAL _spr_clear_fast_vert
663   0000              	GLOBAL _spr_clear_fast
664   0000              	GLOBAL _spr_paint
665   0000              	GLOBAL _spr_move_left
666   0000              	GLOBAL _spr_move_right
667   0000              	GLOBAL _spr_move_left_f
668   0000              	GLOBAL _spr_move_right_f
669   0000              	GLOBAL _spr_move_horizontal
670   0000              	GLOBAL _spr_move_down_f
671   0000              	GLOBAL _spr_move_up_f
672   0000              	GLOBAL _spr_set_right
673   0000              	GLOBAL _spr_set_left
674   0000              	GLOBAL _spr_set_down
675   0000              	GLOBAL _spr_set_up
676   0000              	GLOBAL _spr_calc_index
677   0000              	GLOBAL _spr_chktime
678   0000              	GLOBAL _player_new_jump
679   0000              	GLOBAL _player_crumble
680   0000              	GLOBAL _player_pick
681   0000              	GLOBAL _player_use_floor
682   0000              	GLOBAL _player_lost_life
683   0000              	GLOBAL _player_move_jump
684   0000              	GLOBAL _player_tile
685   0000              	GLOBAL _player_handle_conveyor
686   0000              	GLOBAL _player_pick_extra
687   0000              	GLOBAL _player_pick_deadly
688   0000              	GLOBAL _player_pick_item
689   0000              	GLOBAL _player_check_ceil
690   0000              	GLOBAL _player_check_floor
691   0000              	GLOBAL _player_score_add
692   0000              	GLOBAL _player_move_walk
693   0000              	GLOBAL _player_turn
694   0000              	GLOBAL _player_move
695   0000              	GLOBAL _player_check_input
696   0000              	GLOBAL _player_init
697   0000              	GLOBAL _game_end_pietro
698   0000              	GLOBAL _game_end_willy
699   0000              	GLOBAL _game_text
700   0000              	GLOBAL _game_logo1
701   0000              	GLOBAL _game_anim_conveyor
702   0000              	GLOBAL _zx_print_char
703   0000              	GLOBAL _reverse
704   0000              	GLOBAL _page
705   0000              	GLOBAL _game_crumble
706   0000              	GLOBAL _game_solar_ray0
707   0000              	GLOBAL _game_solar_ray1
708   0000              	GLOBAL _game_solar_ray
709   0000              	GLOBAL _game_anim_air
710   0000              	GLOBAL _game_shoe
711   0000              	GLOBAL _game_intro
712   0000              	GLOBAL _game_copy_sprite
713   0000              	GLOBAL _game_copy_sprite_color_reset
714   0000              	GLOBAL _game_copy_sprite_std
715   0000              	GLOBAL _game_flash_exit
716   0000              	GLOBAL _game_page_map
717   0000              	GLOBAL _game_attribs
718   0000              	GLOBAL _game_check_time
719   0000              	GLOBAL _game_key_paint
720   0000              	GLOBAL _game_colour_message
721   0000              	GLOBAL _game_paint_attrib
722   0000              	GLOBAL _game_print_score
723   0000              	GLOBAL _game_cell_paint_index
724   0000              	GLOBAL _game_cell_paint
725   0000              	GLOBAL _game_check_cell
726   0000              	GLOBAL _game_check_map
727   0000              	GLOBAL _game_loop
728   0000              	GLOBAL _game_round_init
729   0000              	GLOBAL _game_start_timer
730   0000              	GLOBAL _game_update_stats
731   0000              	GLOBAL _game_print_footer
732   0000              	GLOBAL _game_fill_row
733   0000              	GLOBAL _game_cls
734   0000              	GLOBAL _game_fps
735   0000              	GLOBAL _game_draw_map
736   0000              	GLOBAL _enemy_init
737   0000              	GLOBAL _enemy_move
738   0000              	GLOBAL _enemy_turn
739   0000              	GLOBAL _enemy_static
740   0000              	GLOBAL _enemy_horizontal
741   0000              	GLOBAL _enemy_vertical
742   0000              	GLOBAL _ay_reset
743   0000              	GLOBAL _ay_song_stop
744   0000              	GLOBAL _ay_song_play
745   0000              	GLOBAL _ay_fx_stop
746   0000              	GLOBAL _ay_fx_play
747   0000              	GLOBAL _ay_is_playing
748   0000              	GLOBAL _audio_game_over
749   0000              	GLOBAL _audio_round_init
750   0000              	GLOBAL _audio_levelup
751   0000              	GLOBAL _audio_menu
752   0000              	GLOBAL _audio_game_end
753   0000              	GLOBAL _audio_game_start
754   0000              	GLOBAL _audio_level_complete
755   0000              	GLOBAL _audio_level_start
756   0000              	GLOBAL _audio_puerta
757   0000              	GLOBAL _audio_crumble
758   0000              	GLOBAL _audio_tick
759   0000              	GLOBAL _audio_door_open
760   0000              	GLOBAL _audio_coin_noentiendo
761   0000              	GLOBAL _audio_coin
762   0000              	GLOBAL _audio_fall
763   0000              	GLOBAL _audio_jump
764   0000              	GLOBAL _audio_dead
765   0000              	GLOBAL _audio_time
766   0000              	GLOBAL _audio_ingame
767   0000              	GLOBAL _in_mouse_kempston_wheel_delta
768   0000              	GLOBAL _in_mouse_kempston_wheel
769   0000              	GLOBAL _in_mouse_kempston_callee
770   0000              	GLOBAL _in_mouse_kempston
771   0000              	GLOBAL _in_mouse_kempston_setpos_callee
772   0000              	GLOBAL _in_mouse_kempston_setpos
773   0000              	GLOBAL _in_mouse_kempston_reset
774   0000              	GLOBAL _in_mouse_kempston_init
775   0000              	GLOBAL _in_mouse_amx_wheel_delta
776   0000              	GLOBAL _in_mouse_amx_wheel
777   0000              	GLOBAL _in_mouse_amx_callee
778   0000              	GLOBAL _in_mouse_amx
779   0000              	GLOBAL _in_mouse_amx_setpos_callee
780   0000              	GLOBAL _in_mouse_amx_setpos
781   0000              	GLOBAL _in_mouse_amx_reset
782   0000              	GLOBAL _in_mouse_amx_init_callee
783   0000              	GLOBAL _in_mouse_amx_init
784   0000              	GLOBAL _in_stick_sinclair2
785   0000              	GLOBAL _in_stick_sinclair1
786   0000              	GLOBAL _in_stick_kempston
787   0000              	GLOBAL _in_stick_fuller
788   0000              	GLOBAL _in_stick_cursor
789   0000              	GLOBAL _in_stick_keyboard_fastcall
790   0000              	GLOBAL _in_stick_keyboard
791   0000              	GLOBAL _in_wait_nokey
792   0000              	GLOBAL _in_wait_key
793   0000              	GLOBAL _in_test_key
794   0000              	GLOBAL _in_pause_fastcall
795   0000              	GLOBAL _in_pause
796   0000              	GLOBAL _in_key_scancode_fastcall
797   0000              	GLOBAL _in_key_scancode
798   0000              	GLOBAL _in_key_pressed_fastcall
799   0000              	GLOBAL _in_key_pressed
800   0000              	GLOBAL _in_inkey
801   0000              	GLOBAL _NIRVANAP_CHAR_TABLE
802   0000              	GLOBAL _NIRVANAP_WIDE_IMAGES
803   0000              	GLOBAL _NIRVANAP_TILE_IMAGES
804   0000              	GLOBAL _NIRVANAP_HOLE
805   0000              	GLOBAL _NIRVANAP_ISR_HOOK
806   0000              	GLOBAL _game_tune
807   0000              	GLOBAL _code1
808   0000              	GLOBAL _code0
809   0000              	GLOBAL _deltas
810   0000              	GLOBAL _attribs
811   0000              	GLOBAL _air_curr_byte
812   0000              	GLOBAL _spr_clr
813   0000              	GLOBAL _spr_init_bright
814   0000              	GLOBAL _spr_init_cout3
815   0000              	GLOBAL _spr_init_cin3
816   0000              	GLOBAL _spr_init_cout2
817   0000              	GLOBAL _spr_init_cin2
818   0000              	GLOBAL _spr_init_cout1
819   0000              	GLOBAL _spr_init_cin1
820   0000              	GLOBAL _spr_init_cout0
821   0000              	GLOBAL _spr_init_cin0
822   0000              	GLOBAL _map_clear
823   0000              	GLOBAL _map_paper
824   0000              	GLOBAL _map_border
825   0000              	GLOBAL _gbyte
826   0000              	GLOBAL _scr_curr
827   0000              	GLOBAL _color
828   0000              	GLOBAL _scr_map
829   0000              	GLOBAL _spr_kind
830   0000              	GLOBAL _spr_altset
831   0000              	GLOBAL _spr_frames
832   0000              	GLOBAL _spr_speed_a
833   0000              	GLOBAL _spr_speed_b
834   0000              	GLOBAL _spr_speed
835   0000              	GLOBAL _spr_tile
836   0000              	GLOBAL _screen_ink
837   0000              	GLOBAL _screen_paper
838   0000              	GLOBAL _game_start_scr
839   0000              	GLOBAL _player_next_extra
840   0000              	GLOBAL _game_score_top
841   0000              	GLOBAL _player_coins
842   0000              	GLOBAL _player_lives
843   0000              	GLOBAL _game_crumb_end
844   0000              	GLOBAL _game_crumb_start
845   0000              	GLOBAL _game_over
846   0000              	GLOBAL _game_tile_cnt
847   0000              	GLOBAL _game_sound
848   0000              	GLOBAL _game_inf_lives
849   0000              	GLOBAL _game_inmune
850   0000              	GLOBAL _spr_count
851   0000              	GLOBAL _key_ink
852   0000              	GLOBAL _key_last
853   0000              	GLOBAL _lapse_crumb
854   0000              	GLOBAL _time_key
855   0000              	GLOBAL _time_conv
856   0000              	GLOBAL _time_air
857   0000              	GLOBAL _frame_time
858   0000              	GLOBAL _curr_time
859   0000              	GLOBAL _key_attrib
860   0000              	GLOBAL _g_ray1
861   0000              	GLOBAL _attrib_osd
862   0000              	GLOBAL _attrib_hl
863   0000              	GLOBAL _attrib
864   0000              	GLOBAL _zx_val_asm
865   0000              	GLOBAL _index1
866   0000              	GLOBAL _index0
867   0000              	GLOBAL _loop_count
868   0000              	GLOBAL _s_row1
869   0000              	GLOBAL _s_col1
870   0000              	GLOBAL _s_col0
871   0000              	GLOBAL _s_lin1
872   0000              	GLOBAL _s_lin0
873   0000              	GLOBAL _nirv_sprite_index
874   0000              	GLOBAL _player_kill_index
875   0000              	GLOBAL _player_jump_top
876   0000              	GLOBAL _game_debug
877   0000              	GLOBAL _sprite
878   0000              	GLOBAL _fps
879   0000              	GLOBAL _game_effect
880   0000              	GLOBAL _game_menu
881   0000              	GLOBAL _game_atrac
882   0000              	GLOBAL _game_mode
883   0000              	GLOBAL _game_tileset
884   0000              	GLOBAL _menu_curr_sel
885   0000              	GLOBAL _game_round_up
886   0000              	GLOBAL _game_lives
887   0000              	GLOBAL _game_code
888   0000              	GLOBAL _game_exit_lin
889   0000              	GLOBAL _game_exit_col
890   0000              	GLOBAL _game_conveyor_col1
891   0000              	GLOBAL _game_conveyor_col0
892   0000              	GLOBAL _game_conveyor_lin
893   0000              	GLOBAL _game_conveyor_dir
894   0000              	GLOBAL _game_song_play
895   0000              	GLOBAL _game_gravity
896   0000              	GLOBAL _player_lin_scr
897   0000              	GLOBAL _player_col_scr
898   0000              	GLOBAL _player_fall_start
899   0000              	GLOBAL _player_jump_lin
900   0000              	GLOBAL _player_jump_count
901   0000              	GLOBAL _player_jump_hack
902   0000              	GLOBAL _player_vel_inc
903   0000              	GLOBAL _player_vel_y0
904   0000              	GLOBAL _player_vel_y
905   0000              	GLOBAL _player_score
906   0000              	GLOBAL _tbuffer
907   0000              	GLOBAL _obj_count
908   0000              	GLOBAL _obj_col
909   0000              	GLOBAL _obj_lin
910   0000              	GLOBAL _last_time_b
911   0000              	GLOBAL _last_time_a
912   0000              	GLOBAL _last_time
913   0000              	GLOBAL _colint
914   0000              	GLOBAL _col
915   0000              	GLOBAL _lin
916   0000              	GLOBAL _tile
917   0000              	GLOBAL _value_c
918   0000              	GLOBAL _value_b
919   0000              	GLOBAL _value_a
920   0000              	GLOBAL _state_a
921   0000              	GLOBAL _state
922   0000              	GLOBAL _class
923   0000              	GLOBAL _dirs_last
924   0000              	GLOBAL _dirs
925   0000              	GLOBAL _k2
926   0000              	GLOBAL _k1
927   0000              	GLOBAL _joyfunc2
928   0000              	GLOBAL _joyfunc1
929   0000              	GLOBAL _btiles
930   0000              	GLOBAL _v3
931   0000              	GLOBAL _v2
932   0000              	GLOBAL _v1
933   0000              	GLOBAL _v0
934   0000              	GLOBAL _i
935   0000              	GLOBAL _spec128
936   0000              	GLOBAL _GLOBAL_ZX_PORT_7FFD
937   0000              	GLOBAL _GLOBAL_ZX_PORT_1FFD
938   0000              	GLOBAL _GLOBAL_ZX_PORT_FE
939   0000              	GLOBAL _hitiles2
940   0000              	GLOBAL _hitiles1
941   0000              	GLOBAL _ay_song_coin_noentiendo
942   0000              	GLOBAL _ay_song_game_over
943   0000              	GLOBAL _ay_song_time_atack
944   0000              	GLOBAL _ay_fx_pause
945   0000              	GLOBAL _ay_fx_crumble
946   0000              	GLOBAL _ay_fx_door_open
947   0000              	GLOBAL _ay_fx_tick
948   0000              	GLOBAL _ay_fx_game_start
949   0000              	GLOBAL _ay_fx_fall
950   0000              	GLOBAL _ay_fx_jump
951   0000              	GLOBAL _ay_fx_dead
952   0000              	GLOBAL _ay_fx_coin
953   0000              	GLOBAL _ay_song_round_init
954   0000              	GLOBAL _ay_song_menu
955   0000              	GLOBAL _ay_song_ingame1
956   0000              	GLOBAL _ay_song_ingame0
957   0000              	GLOBAL _hisprites2
958   0000              	GLOBAL _hisprites1
959   0000              	GLOBAL _logo2
960   0000              	GLOBAL _logo1
961   0000              	GLOBAL _cartoon2
962   0000              	GLOBAL _cartoon1
963   0000              	GLOBAL _cartoon0
964   0000              	GLOBAL _img1
965   0000              	GLOBAL _air_end_byte
966   0000              	GLOBAL _air_start_byte
967   0000              	GLOBAL _tile_class
968   0000              	GLOBAL _texts
969   0000              	GLOBAL _map_names0
970   0000              	GLOBAL _game_borders0
971   0000              	GLOBAL _spr_init2
972   0000              	GLOBAL _spr_init1
973   0000              	GLOBAL _tile_class2
974   0000              	GLOBAL _tile_class1
975   0000              	GLOBAL _paper0
976   0000              	GLOBAL _lenght0
977   0000              	GLOBAL _world0
978   0000              	GLOBAL _spr_init
979   0000              	GLOBAL _game_encode
980   0000              	GLOBAL _player_jump_hor
981   0000              ;--------------------------------------------------------
982   0000              ; special function registers
983   0000              ;--------------------------------------------------------
984   0000              defc _IO_FE	=	0x00fe
985   0000              defc _IO_1FFD	=	0x1ffd
986   0000              defc _IO_7FFD	=	0x7ffd
987   0000              ;--------------------------------------------------------
988   0000              ; ram data
989   0000              ;--------------------------------------------------------
990   0000              	SECTION bss_compiler
991   0000              ;--------------------------------------------------------
992   0000              ; ram data
993   0000              ;--------------------------------------------------------
994   0000              
995   0000              IF 0
996   0000              
997   0000              ; .area _INITIALIZED removed by z88dk
998   0000              
999   0000              
1000  0000              ENDIF
1001  0000              
1002  0000              ;--------------------------------------------------------
1003  0000              ; absolute external ram data
1004  0000              ;--------------------------------------------------------
1005  0000              	SECTION IGNORE
1006  0000              ;--------------------------------------------------------
1007  0000              ; global & static initialisations
1008  0000              ;--------------------------------------------------------
1009  0000              	SECTION code_crt_init
1010  0000              ;--------------------------------------------------------
1011  0000              ; Home
1012  0000              ;--------------------------------------------------------
1013  0000              	SECTION IGNORE
1014  0000              ;--------------------------------------------------------
1015  0000              ; code
1016  0000              ;--------------------------------------------------------
1017  0000              	SECTION code_compiler
1018  0000              ;	---------------------------------
1019  0000              ; Function menu_main
1020  0000              ; ---------------------------------
1021  0000              _menu_main:
1022  0000  CD 00 00    	call	___sdcc_enter_ix
1023  0003  F5          	push	af
1024  0004  F5          	push	af
1025  0005  3B          	dec	sp
1026  0006  DD 36 FF 01 	ld	(ix-1),0x01
1027  000A  21 00 00    	ld	hl,_game_code
1028  000D  36 00       	ld	(hl),0x00
1029  000F  21 00 00    	ld	hl,_map_paper
1030  0012  36 00       	ld	(hl),0x00
1031  0014  CD 00 00    	call	_game_cls
1032  0017  CD 33 07    	call	_menu_logo
1033  001A  CD 00 00    	call	_audio_menu
1034  001D  CD 00 00    	call	_game_attribs
1035  0020  CD 7C 02    	call	_menu_main_print
1036  0023  D1          	pop	de
1037  0024  21 00 00    	ld	hl,_i
1038  0027  36 00       	ld	(hl),0x00
1039  0029  2A 00 00    	ld	hl,(_curr_time)
1040  002C  E5          	push	hl
1041  002D  21 00 00    	ld	hl,_color
1042  0030  36 00       	ld	(hl),0x00
1043  0032              l_menu_main_00138:
1044  0032  DD 7E FF    	ld	a,(ix-1)
1045  0035  B7          	or	a, a
1046  0036  CA 77 02    	jp	Z, l_menu_main_00141
1047  0039  21 14 00    	ld	hl,0x0014
1048  003C  CD 00 00    	call	_z80_delay_ms_fastcall
1049  003F  CD 00 00    	call	_in_inkey
1050  0042  3A 00 00    	ld	a,(_menu_curr_sel)
1051  0045  C6 0A       	add	a,0x0a
1052  0047  4D          	ld	c,l
1053  0048  44          	ld	b,h
1054  0049  07          	rlca
1055  004A  07          	rlca
1056  004B  07          	rlca
1057  004C  E6 F8       	and	a,0xf8
1058  004E  C6 08       	add	a,0x08
1059  0050  DD 77 FE    	ld	(ix-2),a
1060  0053  3A 00 00    	ld	a,(_color)
1061  0056  07          	rlca
1062  0057  07          	rlca
1063  0058  07          	rlca
1064  0059  E6 F8       	and	a,0xf8
1065  005B  32 00 00    	ld	(_v0),a
1066  005E  21 00 00    	ld	hl,_color
1067  0061  7E          	ld	a,(hl)
1068  0062  3C          	inc	a
1069  0063  77          	ld	(hl),a
1070  0064  D6 05       	sub	a,0x05
1071  0066  20 04       	jr	NZ,l_menu_main_00102
1072  0068  21 00 00    	ld	hl,_color
1073  006B  34          	inc	(hl)
1074  006C              l_menu_main_00102:
1075  006C  3E 06       	ld	a,0x06
1076  006E  21 00 00    	ld	hl,_color
1077  0071  96          	sub	a, (hl)
1078  0072  30 02       	jr	NC,l_menu_main_00104
1079  0074  36 00       	ld	(hl),0x00
1080  0076              l_menu_main_00104:
1081  0076  3A 00 00    	ld	a,(_attrib_hl)
1082  0079  E6 C7       	and	a,0xc7
1083  007B  21 00 00    	ld	hl,_v0
1084  007E  B6          	or	a, (hl)
1085  007F  32 00 00    	ld	(_attrib_hl),a
1086  0082  11 01 00    	ld	de,_attrib_hl + 1
1087  0085  1A          	ld	a, (de)
1088  0086  E6 C7       	and	a,0xc7
1089  0088  21 00 00    	ld	hl,_v0
1090  008B  B6          	or	a, (hl)
1091  008C  12          	ld	(de), a
1092  008D  11 02 00    	ld	de,_attrib_hl + 2
1093  0090  1A          	ld	a, (de)
1094  0091  E6 C7       	and	a,0xc7
1095  0093  B6          	or	a, (hl)
1096  0094  12          	ld	(de), a
1097  0095  11 03 00    	ld	de,_attrib_hl + 3
1098  0098  1A          	ld	a, (de)
1099  0099  E6 C7       	and	a,0xc7
1100  009B  B6          	or	a, (hl)
1101  009C  12          	ld	(de), a
1102  009D  C5          	push	bc
1103  009E  DD 7E FE    	ld	a,(ix-2)
1104  00A1  F5          	push	af
1105  00A2  33          	inc	sp
1106  00A3  21 0D 15    	ld	hl,0x150d
1107  00A6  E5          	push	hl
1108  00A7  21 00 00    	ld	hl,_attrib_hl
1109  00AA  E5          	push	hl
1110  00AB  CD 00 00    	call	_game_paint_attrib
1111  00AE  F1          	pop	af
1112  00AF  F1          	pop	af
1113  00B0  33          	inc	sp
1114  00B1  C1          	pop	bc
1115  00B2  79          	ld	a, c
1116  00B3  C6 D0       	add	a,0xd0
1117  00B5  DD 77 FD    	ld	(ix-3),a
1118  00B8  3E 05       	ld	a,0x05
1119  00BA  DD 96 FD    	sub	a,(ix-3)
1120  00BD  DA 5B 01    	jp	C, l_menu_main_00113
1121  00C0  DD 4E FD    	ld	c,(ix-3)
1122  00C3  06 00       	ld	b,0x00
1123  00C5  21 CC 00    	ld	hl,l_menu_main_00221
1124  00C8  09          	add	hl, bc
1125  00C9  09          	add	hl, bc
1126  00CA  09          	add	hl, bc
1127  00CB  E9          	jp	(hl)
1128  00CC              l_menu_main_00221:
1129  00CC  C3 43 01    	jp	l_menu_main_00112
1130  00CF  C3 DE 00    	jp	l_menu_main_00105
1131  00D2  C3 EB 00    	jp	l_menu_main_00106
1132  00D5  C3 F8 00    	jp	l_menu_main_00107
1133  00D8  C3 05 01    	jp	l_menu_main_00108
1134  00DB  C3 1A 01    	jp	l_menu_main_00109
1135  00DE              l_menu_main_00105:
1136  00DE  21 00 00    	ld	hl,_in_stick_sinclair1
1137  00E1  22 00 00    	ld	(_joyfunc1),hl
1138  00E4  21 00 00    	ld	hl,_menu_curr_sel
1139  00E7  36 01       	ld	(hl),0x01
1140  00E9  18 70       	jr	l_menu_main_00113
1141  00EB              l_menu_main_00106:
1142  00EB  21 00 00    	ld	hl,_in_stick_keyboard
1143  00EE  22 00 00    	ld	(_joyfunc1),hl
1144  00F1  21 00 00    	ld	hl,_menu_curr_sel
1145  00F4  36 02       	ld	(hl),0x02
1146  00F6  18 63       	jr	l_menu_main_00113
1147  00F8              l_menu_main_00107:
1148  00F8  21 00 00    	ld	hl,_in_stick_kempston
1149  00FB  22 00 00    	ld	(_joyfunc1),hl
1150  00FE  21 00 00    	ld	hl,_menu_curr_sel
1151  0101  36 03       	ld	(hl),0x03
1152  0103  18 56       	jr	l_menu_main_00113
1153  0105              l_menu_main_00108:
1154  0105  CD 71 03    	call	_menu_redefine
1155  0108  D1          	pop	de
1156  0109  21 00 00    	ld	hl,_in_stick_keyboard
1157  010C  22 00 00    	ld	(_joyfunc1),hl
1158  010F  21 00 00    	ld	hl,_menu_curr_sel
1159  0112  36 02       	ld	(hl),0x02
1160  0114  2A 00 00    	ld	hl,(_curr_time)
1161  0117  E5          	push	hl
1162  0118  18 41       	jr	l_menu_main_00113
1163  011A              l_menu_main_00109:
1164  011A  CD 00 00    	call	_game_attribs
1165  011D  CD D4 04    	call	_menu_read_code
1166  0120  7D          	ld	a,l
1167  0121  32 00 00    	ld	(_v0),a
1168  0124  CD 00 00    	call	_ay_reset
1169  0127  3A 00 00    	ld	a,(_v0)
1170  012A  B7          	or	a, a
1171  012B  28 0A       	jr	Z,l_menu_main_00111
1172  012D  76          	halt
1173  012E  21 00 00    	ld	hl,_game_tune
1174  0131  36 00       	ld	(hl),0x00
1175  0133  DD 36 FF 00 	ld	(ix-1),0x00
1176  0137              l_menu_main_00111:
1177  0137  D1          	pop	de
1178  0138  2A 00 00    	ld	hl,(_curr_time)
1179  013B  E5          	push	hl
1180  013C  2E 00       	ld	l,0x00
1181  013E  CD 00 00    	call	_zx_border_fastcall
1182  0141  18 18       	jr	l_menu_main_00113
1183  0143              l_menu_main_00112:
1184  0143  CD 00 00    	call	_game_cls
1185  0146  CD 00 00    	call	_ay_reset
1186  0149  CD 00 00    	call	_audio_game_start
1187  014C  21 2C 01    	ld	hl,0x012c
1188  014F  CD 00 00    	call	_z80_delay_ms_fastcall
1189  0152  21 00 00    	ld	hl,_game_tune
1190  0155  36 00       	ld	(hl),0x00
1191  0157  DD 36 FF 00 	ld	(ix-1),0x00
1192  015B              l_menu_main_00113:
1193  015B  DD 7E FD    	ld	a,(ix-3)
1194  015E  B7          	or	a, a
1195  015F  28 17       	jr	Z,l_menu_main_00115
1196  0161  D6 05       	sub	a,0x05
1197  0163  30 13       	jr	NC,l_menu_main_00115
1198  0165  DD 7E FE    	ld	a,(ix-2)
1199  0168  F5          	push	af
1200  0169  33          	inc	sp
1201  016A  21 0C 15    	ld	hl,0x150c
1202  016D  E5          	push	hl
1203  016E  21 00 00    	ld	hl,_attrib
1204  0171  E5          	push	hl
1205  0172  CD 00 00    	call	_game_paint_attrib
1206  0175  F1          	pop	af
1207  0176  F1          	pop	af
1208  0177  33          	inc	sp
1209  0178              l_menu_main_00115:
1210  0178  21 00 00    	ld	hl,_i
1211  017B  34          	inc	(hl)
1212  017C  21 00 00    	ld	hl,0x0000
1213  017F  39          	add	hl, sp
1214  0180  01 A4 06    	ld	bc,0x06a4
1215  0183  C5          	push	bc
1216  0184  E5          	push	hl
1217  0185  CD 00 00    	call	_game_check_time
1218  0188  F1          	pop	af
1219  0189  F1          	pop	af
1220  018A  7D          	ld	a, l
1221  018B  B7          	or	a, a
1222  018C  CA 32 00    	jp	Z, l_menu_main_00138
1223  018F  CD 00 00    	call	_ay_reset
1224  0192  21 00 00    	ld	hl,_game_atrac
1225  0195  36 01       	ld	(hl),0x01
1226  0197  1E 00       	ld	e,0x00
1227  0199              l_menu_main_00130:
1228  0199  7B          	ld	a, e
1229  019A  B7          	or	a, a
1230  019B  C2 3C 02    	jp	NZ, l_menu_main_00132
1231  019E  CD 00 00    	call	_in_inkey
1232  01A1  5D          	ld	e, l
1233  01A2  D5          	push	de
1234  01A3  CD 00 00    	call	_game_round_init
1235  01A6  D1          	pop	de
1236  01A7  E1          	pop	hl
1237  01A8  2A 00 00    	ld	hl,(_curr_time)
1238  01AB  E5          	push	hl
1239  01AC              l_menu_main_00124:
1240  01AC  21 00 00    	ld	hl,0x0000
1241  01AF  39          	add	hl, sp
1242  01B0  4D          	ld	c, l
1243  01B1  44          	ld	b, h
1244  01B2  D5          	push	de
1245  01B3  21 F4 01    	ld	hl,0x01f4
1246  01B6  E5          	push	hl
1247  01B7  C5          	push	bc
1248  01B8  CD 00 00    	call	_game_check_time
1249  01BB  F1          	pop	af
1250  01BC  F1          	pop	af
1251  01BD  D1          	pop	de
1252  01BE  7D          	ld	a, l
1253  01BF  B7          	or	a,a
1254  01C0  20 63       	jr	NZ,l_menu_main_00126
1255  01C2  B3          	or	a,e
1256  01C3  20 60       	jr	NZ,l_menu_main_00126
1257  01C5  CD 00 00    	call	_enemy_turn
1258  01C8  21 04 00    	ld	hl,0x0004
1259  01CB  E5          	push	hl
1260  01CC  21 00 00    	ld	hl,_time_key
1261  01CF  E5          	push	hl
1262  01D0  CD 00 00    	call	_game_check_time
1263  01D3  F1          	pop	af
1264  01D4  F1          	pop	af
1265  01D5  7D          	ld	a, l
1266  01D6  B7          	or	a, a
1267  01D7  28 26       	jr	Z,l_menu_main_00118
1268  01D9  2A 00 00    	ld	hl,(_curr_time)
1269  01DC  22 00 00    	ld	(_time_key),hl
1270  01DF  CD 00 00    	call	_game_key_paint
1271  01E2  3A 00 00    	ld	a,(_map_border)
1272  01E5  07          	rlca
1273  01E6  07          	rlca
1274  01E7  07          	rlca
1275  01E8  E6 F8       	and	a,0xf8
1276  01EA  21 00 00    	ld	hl,_color
1277  01ED  B6          	or	a, (hl)
1278  01EE  32 00 00    	ld	(_screen_ink),a
1279  01F1  21 00 00    	ld	hl,___str_0
1280  01F4  E5          	push	hl
1281  01F5  21 00 0A    	ld	hl,0x0a00
1282  01F8  E5          	push	hl
1283  01F9  CD 00 00    	call	_zx_print_str
1284  01FC  CD E1 07    	call	_menu_rotcolor
1285  01FF              l_menu_main_00118:
1286  01FF  3A 00 00    	ld	a,(_game_conveyor_col0)
1287  0202  B7          	or	a, a
1288  0203  28 1A       	jr	Z,l_menu_main_00122
1289  0205  21 05 00    	ld	hl,0x0005
1290  0208  E5          	push	hl
1291  0209  21 00 00    	ld	hl,_time_conv
1292  020C  E5          	push	hl
1293  020D  CD 00 00    	call	_game_check_time
1294  0210  F1          	pop	af
1295  0211  F1          	pop	af
1296  0212  7D          	ld	a, l
1297  0213  B7          	or	a, a
1298  0214  28 09       	jr	Z,l_menu_main_00122
1299  0216  2A 00 00    	ld	hl,(_curr_time)
1300  0219  22 00 00    	ld	(_time_conv),hl
1301  021C  CD 00 00    	call	_game_anim_conveyor
1302  021F              l_menu_main_00122:
1303  021F  CD 00 00    	call	_in_inkey
1304  0222  5D          	ld	e, l
1305  0223  18 87       	jr	l_menu_main_00124
1306  0225              l_menu_main_00126:
1307  0225  21 00 00    	ld	hl,_scr_curr
1308  0228  7E          	ld	a,(hl)
1309  0229  3C          	inc	a
1310  022A  77          	ld	(hl),a
1311  022B  D6 14       	sub	a,0x14
1312  022D  28 08       	jr	Z,l_menu_main_00127
1313  022F  3A 00 00    	ld	a,(_scr_curr)
1314  0232  D6 28       	sub	a,0x28
1315  0234  C2 99 01    	jp	NZ,l_menu_main_00130
1316  0237              l_menu_main_00127:
1317  0237  1E FF       	ld	e,0xff
1318  0239  C3 99 01    	jp	l_menu_main_00130
1319  023C              l_menu_main_00132:
1320  023C  21 00 00    	ld	hl,_map_paper
1321  023F  36 00       	ld	(hl),0x00
1322  0241  3A 00 00    	ld	a,(_game_mode)
1323  0244  B7          	or	a, a
1324  0245  28 07       	jr	Z,l_menu_main_00134
1325  0247  21 00 00    	ld	hl,_scr_curr
1326  024A  36 14       	ld	(hl),0x14
1327  024C  18 05       	jr	l_menu_main_00135
1328  024E              l_menu_main_00134:
1329  024E  21 00 00    	ld	hl,_scr_curr
1330  0251  36 00       	ld	(hl),0x00
1331  0253              l_menu_main_00135:
1332  0253  D1          	pop	de
1333  0254  2A 00 00    	ld	hl,(_curr_time)
1334  0257  E5          	push	hl
1335  0258  2E 00       	ld	l,0x00
1336  025A  CD 00 00    	call	_zx_border_fastcall
1337  025D  CD 00 00    	call	_game_attribs
1338  0260  CD 00 00    	call	_game_cls
1339  0263  CD 33 07    	call	_menu_logo
1340  0266  CD 2D 03    	call	_menu_clear
1341  0269  CD 7C 02    	call	_menu_main_print
1342  026C  CD 00 00    	call	_audio_menu
1343  026F  21 00 00    	ld	hl,_game_atrac
1344  0272  36 00       	ld	(hl),0x00
1345  0274  C3 32 00    	jp	l_menu_main_00138
1346  0277              l_menu_main_00141:
1347  0277  DD F9       	ld	sp, ix
1348  0279  DD E1       	pop	ix
1349  027B  C9          	ret
1350  027C              	SECTION rodata_compiler
1351  0000              ___str_0:
1352  0000  4D 41 4E 49 43 20 50 49 45 54 52 4F 
                        	DEFM "MANIC PIETRO"
1353  000C  00          	DEFB 0x00
1354  000D              	SECTION code_compiler
1355  027C              ;	---------------------------------
1356  027C              ; Function menu_main_print
1357  027C              ; ---------------------------------
1358  027C              _menu_main_print:
1359  027C  CD 2D 03    	call	_menu_clear
1360  027F  21 0D 00    	ld	hl,___str_1
1361  0282  E5          	push	hl
1362  0283  21 0B 0B    	ld	hl,0x0b0b
1363  0286  E5          	push	hl
1364  0287  CD 00 00    	call	_zx_print_str
1365  028A  21 15 60    	ld	hl,0x6015
1366  028D  E5          	push	hl
1367  028E  3E 0B       	ld	a,0x0b
1368  0290  F5          	push	af
1369  0291  33          	inc	sp
1370  0292  21 00 00    	ld	hl,_attrib
1371  0295  E5          	push	hl
1372  0296  CD 00 00    	call	_game_paint_attrib
1373  0299  F1          	pop	af
1374  029A  33          	inc	sp
1375  029B  21 18 00    	ld	hl,___str_2
1376  029E  E3          	ex	(sp),hl
1377  029F  21 0C 0B    	ld	hl,0x0b0c
1378  02A2  E5          	push	hl
1379  02A3  CD 00 00    	call	_zx_print_str
1380  02A6  21 15 68    	ld	hl,0x6815
1381  02A9  E5          	push	hl
1382  02AA  3E 0B       	ld	a,0x0b
1383  02AC  F5          	push	af
1384  02AD  33          	inc	sp
1385  02AE  21 00 00    	ld	hl,_attrib
1386  02B1  E5          	push	hl
1387  02B2  CD 00 00    	call	_game_paint_attrib
1388  02B5  F1          	pop	af
1389  02B6  33          	inc	sp
1390  02B7  21 23 00    	ld	hl,___str_3
1391  02BA  E3          	ex	(sp),hl
1392  02BB  21 0D 0B    	ld	hl,0x0b0d
1393  02BE  E5          	push	hl
1394  02BF  CD 00 00    	call	_zx_print_str
1395  02C2  21 15 70    	ld	hl,0x7015
1396  02C5  E5          	push	hl
1397  02C6  3E 0B       	ld	a,0x0b
1398  02C8  F5          	push	af
1399  02C9  33          	inc	sp
1400  02CA  21 00 00    	ld	hl,_attrib
1401  02CD  E5          	push	hl
1402  02CE  CD 00 00    	call	_game_paint_attrib
1403  02D1  F1          	pop	af
1404  02D2  33          	inc	sp
1405  02D3  21 2E 00    	ld	hl,___str_4
1406  02D6  E3          	ex	(sp),hl
1407  02D7  21 0E 0B    	ld	hl,0x0b0e
1408  02DA  E5          	push	hl
1409  02DB  CD 00 00    	call	_zx_print_str
1410  02DE  21 13 78    	ld	hl,0x7813
1411  02E1  E5          	push	hl
1412  02E2  3E 0B       	ld	a,0x0b
1413  02E4  F5          	push	af
1414  02E5  33          	inc	sp
1415  02E6  21 00 00    	ld	hl,_attrib
1416  02E9  E5          	push	hl
1417  02EA  CD 00 00    	call	_game_paint_attrib
1418  02ED  F1          	pop	af
1419  02EE  33          	inc	sp
1420  02EF  21 37 00    	ld	hl,___str_5
1421  02F2  E3          	ex	(sp),hl
1422  02F3  21 0F 0B    	ld	hl,0x0b0f
1423  02F6  E5          	push	hl
1424  02F7  CD 00 00    	call	_zx_print_str
1425  02FA  21 12 80    	ld	hl,0x8012
1426  02FD  E5          	push	hl
1427  02FE  3E 0B       	ld	a,0x0b
1428  0300  F5          	push	af
1429  0301  33          	inc	sp
1430  0302  21 00 00    	ld	hl,_attrib
1431  0305  E5          	push	hl
1432  0306  CD 00 00    	call	_game_paint_attrib
1433  0309  F1          	pop	af
1434  030A  F1          	pop	af
1435  030B  33          	inc	sp
1436  030C  21 00 00    	ld	hl,_screen_ink
1437  030F  36 05       	ld	(hl),0x05
1438  0311  21 3F 00    	ld	hl,___str_6
1439  0314  E5          	push	hl
1440  0315  21 11 0B    	ld	hl,0x0b11
1441  0318  E5          	push	hl
1442  0319  CD 00 00    	call	_zx_print_str
1443  031C  21 00 00    	ld	hl,_screen_ink
1444  031F  36 07       	ld	(hl),0x07
1445  0321  21 47 00    	ld	hl,___str_7
1446  0324  E5          	push	hl
1447  0325  21 17 09    	ld	hl,0x0917
1448  0328  E5          	push	hl
1449  0329  CD 00 00    	call	_zx_print_str
1450  032C  C9          	ret
1451  032D              	SECTION rodata_compiler
1452  000D              ___str_1:
1453  000D  31 20 53 49 4E 43 4C 41 49 52 
                        	DEFM "1 SINCLAIR"
1454  0017  00          	DEFB 0x00
1455  0018              	SECTION rodata_compiler
1456  0018              ___str_2:
1457  0018  32 20 4B 45 59 42 4F 41 52 44 
                        	DEFM "2 KEYBOARD"
1458  0022  00          	DEFB 0x00
1459  0023              	SECTION rodata_compiler
1460  0023              ___str_3:
1461  0023  33 20 4B 45 4D 50 53 54 4F 4E 
                        	DEFM "3 KEMPSTON"
1462  002D  00          	DEFB 0x00
1463  002E              	SECTION rodata_compiler
1464  002E              ___str_4:
1465  002E  34 20 44 45 46 49 4E 45 
                        	DEFM "4 DEFINE"
1466  0036  00          	DEFB 0x00
1467  0037              	SECTION rodata_compiler
1468  0037              ___str_5:
1469  0037  35 20 43 4F 44 45 53 
                        	DEFM "5 CODES"
1470  003E  00          	DEFB 0x00
1471  003F              	SECTION rodata_compiler
1472  003F              ___str_6:
1473  003F  30 20 53 54 41 52 54 
                        	DEFM "0 START"
1474  0046  00          	DEFB 0x00
1475  0047              	SECTION rodata_compiler
1476  0047              ___str_7:
1477  0047  32 30 31 39 20 4E 4F 45 4E 54 49 45 4E 44 4F 
                        	DEFM "2019 NOENTIENDO"
1478  0056  00          	DEFB 0x00
1479  0057              	SECTION code_compiler
1480  032D              ;	---------------------------------
1481  032D              ; Function menu_clear
1482  032D              ; ---------------------------------
1483  032D              _menu_clear:
1484  032D  21 00 00    	ld	hl,_screen_ink
1485  0330  36 47       	ld	(hl),0x47
1486  0332  21 00 00    	ld	hl,_v0
1487  0335  36 09       	ld	(hl),0x09
1488  0337              l_menu_clear_00103:
1489  0337  3A 00 00    	ld	a,(_v0)
1490  033A  07          	rlca
1491  033B  07          	rlca
1492  033C  07          	rlca
1493  033D  E6 F8       	and	a,0xf8
1494  033F  C6 08       	add	a,0x08
1495  0341  F5          	push	af
1496  0342  33          	inc	sp
1497  0343  21 00 1F    	ld	hl,0x1f00
1498  0346  E5          	push	hl
1499  0347  21 00 00    	ld	hl,_attrib
1500  034A  E5          	push	hl
1501  034B  CD 00 00    	call	_game_paint_attrib
1502  034E  F1          	pop	af
1503  034F  F1          	pop	af
1504  0350  33          	inc	sp
1505  0351  21 00 00    	ld	hl,_v0
1506  0354  7E          	ld	a,(hl)
1507  0355  3C          	inc	a
1508  0356  77          	ld	(hl),a
1509  0357  D6 14       	sub	a,0x14
1510  0359  38 DC       	jr	C,l_menu_clear_00103
1511  035B  36 09       	ld	(hl),0x09
1512  035D              l_menu_clear_00105:
1513  035D  2A 00 00    	ld	hl,(_v0)
1514  0360  26 20       	ld	h,0x20
1515  0362  E5          	push	hl
1516  0363  CD 00 00    	call	_game_fill_row
1517  0366  21 00 00    	ld	hl,_v0
1518  0369  7E          	ld	a,(hl)
1519  036A  3C          	inc	a
1520  036B  77          	ld	(hl),a
1521  036C  D6 17       	sub	a,0x17
1522  036E  38 ED       	jr	C,l_menu_clear_00105
1523  0370  C9          	ret
1524  0371              	SECTION code_compiler
1525  0371              ;	---------------------------------
1526  0371              ; Function menu_redefine
1527  0371              ; ---------------------------------
1528  0371              _menu_redefine:
1529  0371  CD 2D 03    	call	_menu_clear
1530  0374  21 00 00    	ld	hl,_s_row1
1531  0377  36 0B       	ld	(hl),0x0b
1532  0379  21 57 00    	ld	hl,___str_8
1533  037C  E5          	push	hl
1534  037D  21 0B 0A    	ld	hl,0x0a0b
1535  0380  E5          	push	hl
1536  0381  CD 00 00    	call	_zx_print_str
1537  0384  3A 00 00    	ld	a,(_s_row1)
1538  0387  07          	rlca
1539  0388  07          	rlca
1540  0389  07          	rlca
1541  038A  E6 F8       	and	a,0xf8
1542  038C  C6 08       	add	a,0x08
1543  038E  F5          	push	af
1544  038F  33          	inc	sp
1545  0390  21 00 1F    	ld	hl,0x1f00
1546  0393  E5          	push	hl
1547  0394  21 00 00    	ld	hl,_attrib
1548  0397  E5          	push	hl
1549  0398  CD 00 00    	call	_game_paint_attrib
1550  039B  F1          	pop	af
1551  039C  F1          	pop	af
1552  039D  33          	inc	sp
1553  039E  21 00 00    	ld	hl,_s_row1
1554  03A1  34          	inc	(hl)
1555  03A2  34          	inc	(hl)
1556  03A3  21 63 00    	ld	hl,___str_9
1557  03A6  E5          	push	hl
1558  03A7  2A 00 00    	ld	hl,(_s_row1)
1559  03AA  26 0C       	ld	h,0x0c
1560  03AC  E5          	push	hl
1561  03AD  CD 00 00    	call	_zx_print_str
1562  03B0  CD EE 03    	call	_menu_define_key
1563  03B3  22 04 00    	ld	(_k1 + 0x0004),hl
1564  03B6  21 00 00    	ld	hl,_s_row1
1565  03B9  34          	inc	(hl)
1566  03BA  21 68 00    	ld	hl,___str_10
1567  03BD  E5          	push	hl
1568  03BE  2A 00 00    	ld	hl,(_s_row1)
1569  03C1  26 0C       	ld	h,0x0c
1570  03C3  E5          	push	hl
1571  03C4  CD 00 00    	call	_zx_print_str
1572  03C7  CD EE 03    	call	_menu_define_key
1573  03CA  22 02 00    	ld	(_k1 + 0x0002),hl
1574  03CD  21 00 00    	ld	hl,_s_row1
1575  03D0  34          	inc	(hl)
1576  03D1  21 6E 00    	ld	hl,___str_11
1577  03D4  E5          	push	hl
1578  03D5  2A 00 00    	ld	hl,(_s_row1)
1579  03D8  26 0C       	ld	h,0x0c
1580  03DA  E5          	push	hl
1581  03DB  CD 00 00    	call	_zx_print_str
1582  03DE  CD EE 03    	call	_menu_define_key
1583  03E1  22 00 00    	ld	(_k1),hl
1584  03E4  21 FF 00    	ld	hl,0x00ff
1585  03E7  CD 00 00    	call	_z80_delay_ms_fastcall
1586  03EA  CD 7C 02    	call	_menu_main_print
1587  03ED  C9          	ret
1588  03EE              	SECTION rodata_compiler
1589  0057              ___str_8:
1590  0057  50 52 45 53 53 20 41 20 4B 45 59 
                        	DEFM "PRESS A KEY"
1591  0062  00          	DEFB 0x00
1592  0063              	SECTION rodata_compiler
1593  0063              ___str_9:
1594  0063  4C 45 46 54 	DEFM "LEFT"
1595  0067  00          	DEFB 0x00
1596  0068              	SECTION rodata_compiler
1597  0068              ___str_10:
1598  0068  52 49 47 48 54 
                        	DEFM "RIGHT"
1599  006D  00          	DEFB 0x00
1600  006E              	SECTION rodata_compiler
1601  006E              ___str_11:
1602  006E  4A 55 4D 50 	DEFM "JUMP"
1603  0072  00          	DEFB 0x00
1604  0073              	SECTION code_compiler
1605  03EE              ;	---------------------------------
1606  03EE              ; Function menu_define_key
1607  03EE              ; ---------------------------------
1608  03EE              _menu_define_key:
1609  03EE  CD 00 00    	call	_in_wait_key
1610  03F1  CD 00 00    	call	_in_inkey
1611  03F4  7D          	ld	a,l
1612  03F5  32 00 00    	ld	(_v0),a
1613  03F8  32 00 00    	ld	(_v1),a
1614  03FB  CD 00 00    	call	_in_wait_nokey
1615  03FE  21 00 00    	ld	hl,_v1
1616  0401  7E          	ld	a, (hl)
1617  0402  D6 3D       	sub	a,0x3d
1618  0404  38 09       	jr	C,l_menu_define_key_00102
1619  0406  3E 7A       	ld	a,0x7a
1620  0408  96          	sub	a, (hl)
1621  0409  38 04       	jr	C,l_menu_define_key_00102
1622  040B  7E          	ld	a, (hl)
1623  040C  C6 E0       	add	a,0xe0
1624  040E  77          	ld	(hl), a
1625  040F              l_menu_define_key_00102:
1626  040F  21 00 00    	ld	hl,_v1
1627  0412  7E          	ld	a, (hl)
1628  0413  D6 1E       	sub	a,0x1e
1629  0415  38 05       	jr	C,l_menu_define_key_00108
1630  0417  3E 27       	ld	a,0x27
1631  0419  96          	sub	a, (hl)
1632  041A  30 0D       	jr	NC,l_menu_define_key_00104
1633  041C              l_menu_define_key_00108:
1634  041C  21 00 00    	ld	hl,_v1
1635  041F  7E          	ld	a, (hl)
1636  0420  D6 41       	sub	a,0x41
1637  0422  38 16       	jr	C,l_menu_define_key_00105
1638  0424  3E 5A       	ld	a,0x5a
1639  0426  96          	sub	a, (hl)
1640  0427  38 11       	jr	C,l_menu_define_key_00105
1641  0429              l_menu_define_key_00104:
1642  0429  3A 00 00    	ld	a,(_v1)
1643  042C  57          	ld	d,a
1644  042D  1E 12       	ld	e,0x12
1645  042F  3A 00 00    	ld	a,(_s_row1)
1646  0432  D5          	push	de
1647  0433  F5          	push	af
1648  0434  33          	inc	sp
1649  0435  CD 00 00    	call	_zx_print_char
1650  0438  F1          	pop	af
1651  0439  33          	inc	sp
1652  043A              l_menu_define_key_00105:
1653  043A  3A 00 00    	ld	a,(_v1)
1654  043D  D6 0D       	sub	a,0x0d
1655  043F  20 0D       	jr	NZ,l_menu_define_key_00110
1656  0441  21 73 00    	ld	hl,___str_12
1657  0444  E5          	push	hl
1658  0445  2A 00 00    	ld	hl,(_s_row1)
1659  0448  26 12       	ld	h,0x12
1660  044A  E5          	push	hl
1661  044B  CD 00 00    	call	_zx_print_str
1662  044E              l_menu_define_key_00110:
1663  044E  3A 00 00    	ld	a,(_v1)
1664  0451  D6 20       	sub	a,0x20
1665  0453  20 0D       	jr	NZ,l_menu_define_key_00112
1666  0455  21 79 00    	ld	hl,___str_13
1667  0458  E5          	push	hl
1668  0459  2A 00 00    	ld	hl,(_s_row1)
1669  045C  26 12       	ld	h,0x12
1670  045E  E5          	push	hl
1671  045F  CD 00 00    	call	_zx_print_str
1672  0462              l_menu_define_key_00112:
1673  0462  2A 00 00    	ld	hl,(_v0)
1674  0465  26 00       	ld	h,0x00
1675  0467  CD 00 00    	call	_in_key_scancode_fastcall
1676  046A  C9          	ret
1677  046B              	SECTION rodata_compiler
1678  0073              ___str_12:
1679  0073  45 4E 54 45 52 
                        	DEFM "ENTER"
1680  0078  00          	DEFB 0x00
1681  0079              	SECTION rodata_compiler
1682  0079              ___str_13:
1683  0079  53 50 41 43 45 
                        	DEFM "SPACE"
1684  007E  00          	DEFB 0x00
1685  007F              	SECTION code_compiler
1686  046B              ;	---------------------------------
1687  046B              ; Function menu_read_key
1688  046B              ; ---------------------------------
1689  046B              _menu_read_key:
1690  046B  CD 00 00    	call	___sdcc_enter_ix
1691  046E              l_menu_read_key_00105:
1692  046E  CD 00 00    	call	_in_wait_key
1693  0471  CD 00 00    	call	_in_inkey
1694  0474  4D          	ld	c, l
1695  0475  CD 00 00    	call	_in_wait_nokey
1696  0478  79          	ld	a, c
1697  0479  D6 61       	sub	a,0x61
1698  047B  38 F1       	jr	C,l_menu_read_key_00105
1699  047D  3E 7A       	ld	a,0x7a
1700  047F  91          	sub	a, c
1701  0480  38 EC       	jr	C,l_menu_read_key_00105
1702  0482  79          	ld	a, c
1703  0483  C6 E0       	add	a,0xe0
1704  0485  47          	ld	b, a
1705  0486  C5          	push	bc
1706  0487  C5          	push	bc
1707  0488  33          	inc	sp
1708  0489  DD 66 05    	ld	h,(ix+5)
1709  048C  DD 6E 04    	ld	l,(ix+4)
1710  048F  E5          	push	hl
1711  0490  CD 00 00    	call	_zx_print_char
1712  0493  F1          	pop	af
1713  0494  33          	inc	sp
1714  0495  C1          	pop	bc
1715  0496  68          	ld	l, b
1716  0497  DD E1       	pop	ix
1717  0499  C9          	ret
1718  049A              	SECTION code_compiler
1719  049A              ;	---------------------------------
1720  049A              ; Function menu_mcodechk
1721  049A              ; ---------------------------------
1722  049A              _menu_mcodechk:
1723  049A  CD 00 00    	call	___sdcc_enter_ix
1724  049D  21 00 00    	ld	hl,_i
1725  04A0  36 00       	ld	(hl),0x00
1726  04A2  0E 01       	ld	c,0x01
1727  04A4              l_menu_mcodechk_00103:
1728  04A4  21 00 00    	ld	hl,_i
1729  04A7  7E          	ld	a, (hl)
1730  04A8  D6 08       	sub	a,0x08
1731  04AA  30 24       	jr	NC,l_menu_mcodechk_00105
1732  04AC  3E 00       	ld	a, +((_code0) & 0xFF)
1733  04AE  86          	add	a, (hl)
1734  04AF  5F          	ld	e, a
1735  04B0  3E 00       	ld	a, +((_code0) / 256)
1736  04B2  CE 00       	adc	a,0x00
1737  04B4  57          	ld	d, a
1738  04B5  1A          	ld	a, (de)
1739  04B6  47          	ld	b, a
1740  04B7  DD 7E 04    	ld	a,(ix+4)
1741  04BA  86          	add	a, (hl)
1742  04BB  5F          	ld	e, a
1743  04BC  DD 7E 05    	ld	a,(ix+5)
1744  04BF  CE 00       	adc	a,0x00
1745  04C1  57          	ld	d, a
1746  04C2  1A          	ld	a, (de)
1747  04C3  5F          	ld	e, a
1748  04C4  78          	ld	a, b
1749  04C5  93          	sub	a, e
1750  04C6  28 02       	jr	Z,l_menu_mcodechk_00102
1751  04C8  0E 00       	ld	c,0x00
1752  04CA              l_menu_mcodechk_00102:
1753  04CA  21 00 00    	ld	hl,_i
1754  04CD  34          	inc	(hl)
1755  04CE  18 D4       	jr	l_menu_mcodechk_00103
1756  04D0              l_menu_mcodechk_00105:
1757  04D0  69          	ld	l, c
1758  04D1  DD E1       	pop	ix
1759  04D3  C9          	ret
1760  04D4              	SECTION code_compiler
1761  04D4              ;	---------------------------------
1762  04D4              ; Function menu_read_code
1763  04D4              ; ---------------------------------
1764  04D4              _menu_read_code:
1765  04D4  CD 00 00    	call	___sdcc_enter_ix
1766  04D7  F5          	push	af
1767  04D8  F5          	push	af
1768  04D9  CD 2D 03    	call	_menu_clear
1769  04DC  21 7F 00    	ld	hl,___str_14
1770  04DF  E5          	push	hl
1771  04E0  21 0D 0B    	ld	hl,0x0b0d
1772  04E3  E5          	push	hl
1773  04E4  CD 00 00    	call	_zx_print_str
1774  04E7  21 1F 70    	ld	hl,0x701f
1775  04EA  E5          	push	hl
1776  04EB  AF          	xor	a, a
1777  04EC  F5          	push	af
1778  04ED  33          	inc	sp
1779  04EE  21 00 00    	ld	hl,_attrib
1780  04F1  E5          	push	hl
1781  04F2  CD 00 00    	call	_game_paint_attrib
1782  04F5  F1          	pop	af
1783  04F6  33          	inc	sp
1784  04F7  21 8A 00    	ld	hl,___str_15
1785  04FA  E3          	ex	(sp),hl
1786  04FB  21 0E 0C    	ld	hl,0x0c0e
1787  04FE  E5          	push	hl
1788  04FF  CD 00 00    	call	_zx_print_str
1789  0502  21 1F 78    	ld	hl,0x781f
1790  0505  E5          	push	hl
1791  0506  AF          	xor	a, a
1792  0507  F5          	push	af
1793  0508  33          	inc	sp
1794  0509  21 00 00    	ld	hl,_attrib
1795  050C  E5          	push	hl
1796  050D  CD 00 00    	call	_game_paint_attrib
1797  0510  F1          	pop	af
1798  0511  F1          	pop	af
1799  0512  33          	inc	sp
1800  0513  21 00 00    	ld	hl,_v1
1801  0516  36 00       	ld	(hl),0x00
1802  0518  0E 01       	ld	c,0x01
1803  051A              l_menu_read_code_00108:
1804  051A  21 00 00    	ld	hl,_v1
1805  051D  7E          	ld	a, (hl)
1806  051E  D6 08       	sub	a,0x08
1807  0520  30 6B       	jr	NC,l_menu_read_code_00110
1808  0522  3E 00       	ld	a, +((_code0) & 0xFF)
1809  0524  86          	add	a, (hl)
1810  0525  5F          	ld	e, a
1811  0526  3E 00       	ld	a, +((_code0) / 256)
1812  0528  CE 00       	adc	a,0x00
1813  052A  57          	ld	d, a
1814  052B  AF          	xor	a, a
1815  052C  12          	ld	(de), a
1816  052D  7E          	ld	a, (hl)
1817  052E  C6 0C       	add	a,0x0c
1818  0530  47          	ld	b, a
1819  0531  C5          	push	bc
1820  0532  0E 0E       	ld	c,0x0e
1821  0534  C5          	push	bc
1822  0535  CD 6B 04    	call	_menu_read_key
1823  0538  F1          	pop	af
1824  0539  C1          	pop	bc
1825  053A  7D          	ld	a,l
1826  053B  32 00 00    	ld	(_v0),a
1827  053E  21 00 00    	ld	hl,_v2
1828  0541  36 00       	ld	(hl),0x00
1829  0543              l_menu_read_code_00102:
1830  0543  21 00 00    	ld	hl,_v2
1831  0546  7E          	ld	a, (hl)
1832  0547  D6 0A       	sub	a,0x0a
1833  0549  30 14       	jr	NC,l_menu_read_code_00104
1834  054B  5E          	ld	e,(hl)
1835  054C  16 00       	ld	d,0x00
1836  054E  21 00 00    	ld	hl,_game_encode
1837  0551  19          	add	hl,de
1838  0552  46          	ld	b, (hl)
1839  0553  3A 00 00    	ld	a,(_v0)
1840  0556  90          	sub	a, b
1841  0557  28 06       	jr	Z,l_menu_read_code_00104
1842  0559  21 00 00    	ld	hl,_v2
1843  055C  34          	inc	(hl)
1844  055D  18 E4       	jr	l_menu_read_code_00102
1845  055F              l_menu_read_code_00104:
1846  055F  3A 00 00    	ld	a,(_v1)
1847  0562  C6 00       	add	a,+((_code0) & 0xFF)
1848  0564  5F          	ld	e,a
1849  0565  3E 00       	ld	a,+((_code0) / 256)
1850  0567  CE 00       	adc	a,0x00
1851  0569  57          	ld	d,a
1852  056A  3A 00 00    	ld	a,(_v0)
1853  056D  12          	ld	(de), a
1854  056E  3A 00 00    	ld	a,(_v2)
1855  0571  D6 0A       	sub	a,0x0a
1856  0573  20 03       	jr	NZ,l_menu_read_code_00106
1857  0575  4F          	ld	c,a
1858  0576  18 0F       	jr	l_menu_read_code_00107
1859  0578              l_menu_read_code_00106:
1860  0578  3A 00 00    	ld	a,(_v1)
1861  057B  C6 00       	add	a,+((_code1) & 0xFF)
1862  057D  5F          	ld	e,a
1863  057E  3E 00       	ld	a,+((_code1) / 256)
1864  0580  CE 00       	adc	a,0x00
1865  0582  57          	ld	d,a
1866  0583  3A 00 00    	ld	a,(_v2)
1867  0586  12          	ld	(de), a
1868  0587              l_menu_read_code_00107:
1869  0587  21 00 00    	ld	hl,_v1
1870  058A  34          	inc	(hl)
1871  058B  18 8D       	jr	l_menu_read_code_00108
1872  058D              l_menu_read_code_00110:
1873  058D  79          	ld	a, c
1874  058E  B7          	or	a, a
1875  058F  CA 67 06    	jp	Z, l_menu_read_code_00137
1876  0592  21 00 00    	ld	hl,_v1
1877  0595  36 00       	ld	(hl),0x00
1878  0597  21 00 00    	ld	hl,_v2
1879  059A  36 00       	ld	(hl),0x00
1880  059C  21 00 00    	ld	hl,_v0
1881  059F  36 64       	ld	(hl),0x64
1882  05A1  3A 05 00    	ld	a,(_code1 + 5)
1883  05A4  DD 77 FE    	ld	(ix-2),a
1884  05A7  4F          	ld	c, a
1885  05A8  87          	add	a, a
1886  05A9  87          	add	a, a
1887  05AA  81          	add	a, c
1888  05AB  87          	add	a, a
1889  05AC  4F          	ld	c, a
1890  05AD  3A 02 00    	ld	a,(_code1 + 2)
1891  05B0  DD 77 FD    	ld	(ix-3),a
1892  05B3  79          	ld	a, c
1893  05B4  DD 86 FD    	add	a,(ix-3)
1894  05B7  32 00 00    	ld	(_game_start_scr),a
1895  05BA  3A 03 00    	ld	a,(_code1 + 3)
1896  05BD  DD 77 FF    	ld	(ix-1),a
1897  05C0  4F          	ld	c, a
1898  05C1  87          	add	a, a
1899  05C2  81          	add	a, c
1900  05C3  87          	add	a, a
1901  05C4  87          	add	a, a
1902  05C5  87          	add	a, a
1903  05C6  81          	add	a, c
1904  05C7  87          	add	a, a
1905  05C8  87          	add	a, a
1906  05C9  4F          	ld	c, a
1907  05CA  21 06 00    	ld	hl,_code1 + 6
1908  05CD  7E          	ld	a, (hl)
1909  05CE  DD 77 FC    	ld	(ix-4),a
1910  05D1  6F          	ld	l, a
1911  05D2  5D          	ld	e, l
1912  05D3  29          	add	hl, hl
1913  05D4  29          	add	hl, hl
1914  05D5  19          	add	hl, de
1915  05D6  29          	add	hl, hl
1916  05D7  79          	ld	a, c
1917  05D8  85          	add	a, l
1918  05D9  4F          	ld	c, a
1919  05DA  21 00 00    	ld	hl,_code1
1920  05DD  5E          	ld	e, (hl)
1921  05DE  79          	ld	a, c
1922  05DF  83          	add	a, e
1923  05E0  32 00 00    	ld	(_player_lives),a
1924  05E3  3A 07 00    	ld	a, (_code1 + 7)
1925  05E6  4F          	ld	c, a
1926  05E7  87          	add	a, a
1927  05E8  81          	add	a, c
1928  05E9  87          	add	a, a
1929  05EA  87          	add	a, a
1930  05EB  87          	add	a, a
1931  05EC  81          	add	a, c
1932  05ED  87          	add	a, a
1933  05EE  87          	add	a, a
1934  05EF  47          	ld	b, a
1935  05F0  21 04 00    	ld	hl,_code1 + 4
1936  05F3  4E          	ld	c, (hl)
1937  05F4  69          	ld	l, c
1938  05F5  29          	add	hl, hl
1939  05F6  29          	add	hl, hl
1940  05F7  09          	add	hl, bc
1941  05F8  29          	add	hl, hl
1942  05F9  78          	ld	a, b
1943  05FA  85          	add	a, l
1944  05FB  4F          	ld	c, a
1945  05FC  21 01 00    	ld	hl,_code1 + 1
1946  05FF  6E          	ld	l, (hl)
1947  0600  09          	add	hl, bc
1948  0601  DD 7E FE    	ld	a,(ix-2)
1949  0604  DD 86 FD    	add	a,(ix-3)
1950  0607  4D          	ld	c,l
1951  0608  6F          	ld	l, a
1952  0609  19          	add	hl, de
1953  060A  7D          	ld	a, l
1954  060B  DD 86 FC    	add	a,(ix-4)
1955  060E  DD 86 FF    	add	a,(ix-1)
1956  0611  5F          	ld	e, a
1957  0612  79          	ld	a, c
1958  0613  93          	sub	a, e
1959  0614  20 44       	jr	NZ,l_menu_read_code_00118
1960  0616  3E 28       	ld	a,0x28
1961  0618  21 00 00    	ld	hl,_game_start_scr
1962  061B  96          	sub	a, (hl)
1963  061C  DA FE 06    	jp	C, l_menu_read_code_00138
1964  061F  3A 00 00    	ld	a,(_player_lives)
1965  0622  B7          	or	a, a
1966  0623  CA FE 06    	jp	Z, l_menu_read_code_00138
1967  0626  3A 00 00    	ld	a,(_game_start_scr)
1968  0629  D6 14       	sub	a,0x14
1969  062B  30 07       	jr	NC,l_menu_read_code_00112
1970  062D  21 00 00    	ld	hl,_game_mode
1971  0630  36 00       	ld	(hl),0x00
1972  0632  18 05       	jr	l_menu_read_code_00113
1973  0634              l_menu_read_code_00112:
1974  0634  21 00 00    	ld	hl,_game_mode
1975  0637  36 01       	ld	(hl),0x01
1976  0639              l_menu_read_code_00113:
1977  0639  CD 00 00    	call	_ay_song_stop
1978  063C  CD 00 00    	call	_audio_coin_noentiendo
1979  063F  2E 04       	ld	l,0x04
1980  0641  CD 00 00    	call	_zx_border_fastcall
1981  0644  21 5E 01    	ld	hl,0x015e
1982  0647  CD 00 00    	call	_z80_delay_ms_fastcall
1983  064A  3A 00 00    	ld	a,(_game_start_scr)
1984  064D  32 00 00    	ld	(_scr_curr),a
1985  0650  21 00 00    	ld	hl,_game_code
1986  0653  36 01       	ld	(hl),0x01
1987  0655  2E 01       	ld	l,0x01
1988  0657  C3 2E 07    	jp	l_menu_read_code_00139
1989  065A              l_menu_read_code_00118:
1990  065A  21 00 00    	ld	hl,_game_start_scr
1991  065D  36 14       	ld	(hl),0x14
1992  065F  21 00 00    	ld	hl,_player_lives
1993  0662  36 03       	ld	(hl),0x03
1994  0664  C3 FE 06    	jp	l_menu_read_code_00138
1995  0667              l_menu_read_code_00137:
1996  0667  0E 00       	ld	c,0x00
1997  0669  C5          	push	bc
1998  066A  21 93 00    	ld	hl,___str_16
1999  066D  E5          	push	hl
2000  066E  CD 9A 04    	call	_menu_mcodechk
2001  0671  F1          	pop	af
2002  0672  C1          	pop	bc
2003  0673  7D          	ld	a,l
2004  0674  B7          	or	a, a
2005  0675  28 17       	jr	Z,l_menu_read_code_00124
2006  0677  21 00 00    	ld	hl,_game_debug
2007  067A  7E          	ld	a, (hl)
2008  067B  B7          	or	a, a
2009  067C  28 04       	jr	Z,l_menu_read_code_00121
2010  067E  36 00       	ld	(hl),0x00
2011  0680  18 05       	jr	l_menu_read_code_00122
2012  0682              l_menu_read_code_00121:
2013  0682  21 00 00    	ld	hl,_game_debug
2014  0685  36 01       	ld	(hl),0x01
2015  0687              l_menu_read_code_00122:
2016  0687  21 00 00    	ld	hl,_game_code
2017  068A  36 00       	ld	(hl),0x00
2018  068C  0E 01       	ld	c,0x01
2019  068E              l_menu_read_code_00124:
2020  068E  C5          	push	bc
2021  068F  21 9C 00    	ld	hl,___str_17
2022  0692  E5          	push	hl
2023  0693  CD 9A 04    	call	_menu_mcodechk
2024  0696  F1          	pop	af
2025  0697  C1          	pop	bc
2026  0698  7D          	ld	a,l
2027  0699  B7          	or	a, a
2028  069A  28 21       	jr	Z,l_menu_read_code_00129
2029  069C  21 00 00    	ld	hl,_game_mode
2030  069F  7E          	ld	a, (hl)
2031  06A0  B7          	or	a, a
2032  06A1  28 09       	jr	Z,l_menu_read_code_00126
2033  06A3  36 00       	ld	(hl),0x00
2034  06A5  21 00 00    	ld	hl,_scr_curr
2035  06A8  36 00       	ld	(hl),0x00
2036  06AA  18 0A       	jr	l_menu_read_code_00127
2037  06AC              l_menu_read_code_00126:
2038  06AC  21 00 00    	ld	hl,_game_mode
2039  06AF  36 01       	ld	(hl),0x01
2040  06B1  21 00 00    	ld	hl,_scr_curr
2041  06B4  36 14       	ld	(hl),0x14
2042  06B6              l_menu_read_code_00127:
2043  06B6  21 00 00    	ld	hl,_game_code
2044  06B9  36 00       	ld	(hl),0x00
2045  06BB  0E 02       	ld	c,0x02
2046  06BD              l_menu_read_code_00129:
2047  06BD  C5          	push	bc
2048  06BE  21 A5 00    	ld	hl,___str_18
2049  06C1  E5          	push	hl
2050  06C2  CD 9A 04    	call	_menu_mcodechk
2051  06C5  F1          	pop	af
2052  06C6  C1          	pop	bc
2053  06C7  7D          	ld	a,l
2054  06C8  B7          	or	a, a
2055  06C9  28 0B       	jr	Z,l_menu_read_code_00131
2056  06CB  21 00 00    	ld	hl,_player_lives
2057  06CE  36 FF       	ld	(hl),0xff
2058  06D0  3E 01       	ld	a,0x01
2059  06D2  32 00 00    	ld	(_game_code),a
2060  06D5  4F          	ld	c,a
2061  06D6              l_menu_read_code_00131:
2062  06D6  79          	ld	a, c
2063  06D7  B7          	or	a, a
2064  06D8  28 24       	jr	Z,l_menu_read_code_00138
2065  06DA  CD 00 00    	call	_ay_song_stop
2066  06DD  C5          	push	bc
2067  06DE  CD 00 00    	call	_audio_coin_noentiendo
2068  06E1  C1          	pop	bc
2069  06E2  2E 03       	ld	l,0x03
2070  06E4  CD 00 00    	call	_zx_border_fastcall
2071  06E7  C5          	push	bc
2072  06E8  21 5E 01    	ld	hl,0x015e
2073  06EB  CD 00 00    	call	_z80_delay_ms_fastcall
2074  06EE  C1          	pop	bc
2075  06EF  79          	ld	a, c
2076  06F0  D6 02       	sub	a,0x02
2077  06F2  20 03       	jr	NZ,l_menu_read_code_00133
2078  06F4  CD 33 07    	call	_menu_logo
2079  06F7              l_menu_read_code_00133:
2080  06F7  CD 7C 02    	call	_menu_main_print
2081  06FA  2E 00       	ld	l,0x00
2082  06FC  18 30       	jr	l_menu_read_code_00139
2083  06FE              l_menu_read_code_00138:
2084  06FE  CD 00 00    	call	_ay_song_stop
2085  0701  21 AE 00    	ld	hl,___str_19
2086  0704  E5          	push	hl
2087  0705  21 10 0D    	ld	hl,0x0d10
2088  0708  E5          	push	hl
2089  0709  CD 00 00    	call	_zx_print_str
2090  070C  21 13 88    	ld	hl,0x8813
2091  070F  E5          	push	hl
2092  0710  3E 0D       	ld	a,0x0d
2093  0712  F5          	push	af
2094  0713  33          	inc	sp
2095  0714  21 00 00    	ld	hl,_attrib_hl
2096  0717  E5          	push	hl
2097  0718  CD 00 00    	call	_game_paint_attrib
2098  071B  F1          	pop	af
2099  071C  F1          	pop	af
2100  071D  33          	inc	sp
2101  071E  21 5E 01    	ld	hl,0x015e
2102  0721  CD 00 00    	call	_z80_delay_ms_fastcall
2103  0724  2E 02       	ld	l,0x02
2104  0726  CD 00 00    	call	_zx_border_fastcall
2105  0729  CD 7C 02    	call	_menu_main_print
2106  072C  2E 00       	ld	l,0x00
2107  072E              l_menu_read_code_00139:
2108  072E  DD F9       	ld	sp, ix
2109  0730  DD E1       	pop	ix
2110  0732  C9          	ret
2111  0733              	SECTION rodata_compiler
2112  007F              ___str_14:
2113  007F  45 4E 54 45 52 20 43 4F 44 45 
                        	DEFM "ENTER CODE"
2114  0089  00          	DEFB 0x00
2115  008A              	SECTION rodata_compiler
2116  008A              ___str_15:
2117  008A  5F 5F 5F 5F 5F 5F 5F 5F 
                        	DEFM "________"
2118  0092  00          	DEFB 0x00
2119  0093              	SECTION rodata_compiler
2120  0093              ___str_16:
2121  0093  44 45 50 55 52 41 4D 45 
                        	DEFM "DEPURAME"
2122  009B  00          	DEFB 0x00
2123  009C              	SECTION rodata_compiler
2124  009C              ___str_17:
2125  009C  4D 41 54 54 48 45 57 53 
                        	DEFM "MATTHEWS"
2126  00A4  00          	DEFB 0x00
2127  00A5              	SECTION rodata_compiler
2128  00A5              ___str_18:
2129  00A5  43 48 49 4D 55 45 4C 4F 
                        	DEFM "CHIMUELO"
2130  00AD  00          	DEFB 0x00
2131  00AE              	SECTION rodata_compiler
2132  00AE              ___str_19:
2133  00AE  4E 4F 50 53 49 45 
                        	DEFM "NOPSIE"
2134  00B4  00          	DEFB 0x00
2135  00B5              	SECTION code_compiler
2136  0733              ;	---------------------------------
2137  0733              ; Function menu_logo
2138  0733              ; ---------------------------------
2139  0733              _menu_logo:
2140  0733  CD 00 00    	call	_game_cls
2141  0736  3A 00 00    	ld	a,(_game_mode)
2142  0739  B7          	or	a, a
2143  073A  28 14       	jr	Z,l_menu_logo_00102
2144  073C  21 08 04    	ld	hl,0x0408
2145  073F  E5          	push	hl
2146  0740  2E 10       	ld	l,0x10
2147  0742  E5          	push	hl
2148  0743  3E 01       	ld	a,0x01
2149  0745  F5          	push	af
2150  0746  33          	inc	sp
2151  0747  CD 00 00    	call	_game_logo1
2152  074A  F1          	pop	af
2153  074B  F1          	pop	af
2154  074C  33          	inc	sp
2155  074D  C3 E0 07    	jp	l_menu_logo_00104
2156  0750              l_menu_logo_00102:
2157  0750  21 10 04    	ld	hl,0x0410
2158  0753  E5          	push	hl
2159  0754  26 00       	ld	h,0x00
2160  0756  E5          	push	hl
2161  0757  3E 06       	ld	a,0x06
2162  0759  F5          	push	af
2163  075A  33          	inc	sp
2164  075B  CD 00 00    	call	_game_logo1
2165  075E  F1          	pop	af
2166  075F  33          	inc	sp
2167  0760  21 40 1A    	ld	hl,0x1a40
2168  0763  E3          	ex	(sp),hl
2169  0764  3E 38       	ld	a,0x38
2170  0766  F5          	push	af
2171  0767  33          	inc	sp
2172  0768  CD 00 00    	call	_NIRVANAP_drawT_callee
2173  076B  21 40 1C    	ld	hl,0x1c40
2174  076E  E5          	push	hl
2175  076F  3E 38       	ld	a,0x38
2176  0771  F5          	push	af
2177  0772  33          	inc	sp
2178  0773  CD 00 00    	call	_NIRVANAP_drawT_callee
2179  0776  21 40 1E    	ld	hl,0x1e40
2180  0779  E5          	push	hl
2181  077A  3E 38       	ld	a,0x38
2182  077C  F5          	push	af
2183  077D  33          	inc	sp
2184  077E  CD 00 00    	call	_NIRVANAP_drawT_callee
2185  0781  21 30 12    	ld	hl,0x1230
2186  0784  E5          	push	hl
2187  0785  3E 28       	ld	a,0x28
2188  0787  F5          	push	af
2189  0788  33          	inc	sp
2190  0789  CD 00 00    	call	_NIRVANAP_drawT_callee
2191  078C  21 30 14    	ld	hl,0x1430
2192  078F  E5          	push	hl
2193  0790  3E 28       	ld	a,0x28
2194  0792  F5          	push	af
2195  0793  33          	inc	sp
2196  0794  CD 00 00    	call	_NIRVANAP_drawT_callee
2197  0797  21 30 16    	ld	hl,0x1630
2198  079A  E5          	push	hl
2199  079B  3E 28       	ld	a,0x28
2200  079D  F5          	push	af
2201  079E  33          	inc	sp
2202  079F  CD 00 00    	call	_NIRVANAP_drawT_callee
2203  07A2  21 30 18    	ld	hl,0x1830
2204  07A5  E5          	push	hl
2205  07A6  3E 28       	ld	a,0x28
2206  07A8  F5          	push	af
2207  07A9  33          	inc	sp
2208  07AA  CD 00 00    	call	_NIRVANAP_drawT_callee
2209  07AD  21 30 1A    	ld	hl,0x1a30
2210  07B0  E5          	push	hl
2211  07B1  3E 28       	ld	a,0x28
2212  07B3  F5          	push	af
2213  07B4  33          	inc	sp
2214  07B5  CD 00 00    	call	_NIRVANAP_drawT_callee
2215  07B8  21 30 1C    	ld	hl,0x1c30
2216  07BB  E5          	push	hl
2217  07BC  3E 28       	ld	a,0x28
2218  07BE  F5          	push	af
2219  07BF  33          	inc	sp
2220  07C0  CD 00 00    	call	_NIRVANAP_drawT_callee
2221  07C3  21 30 1E    	ld	hl,0x1e30
2222  07C6  E5          	push	hl
2223  07C7  3E 28       	ld	a,0x28
2224  07C9  F5          	push	af
2225  07CA  33          	inc	sp
2226  07CB  CD 00 00    	call	_NIRVANAP_drawT_callee
2227  07CE  21 0A 01    	ld	hl,0x010a
2228  07D1  E5          	push	hl
2229  07D2  21 40 03    	ld	hl,0x0340
2230  07D5  E5          	push	hl
2231  07D6  3E 02       	ld	a,0x02
2232  07D8  F5          	push	af
2233  07D9  33          	inc	sp
2234  07DA  CD 00 00    	call	_game_logo1
2235  07DD  F1          	pop	af
2236  07DE  F1          	pop	af
2237  07DF  33          	inc	sp
2238  07E0              l_menu_logo_00104:
2239  07E0  C9          	ret
2240  07E1              	SECTION code_compiler
2241  07E1              ;	---------------------------------
2242  07E1              ; Function menu_rotcolor
2243  07E1              ; ---------------------------------
2244  07E1              _menu_rotcolor:
2245  07E1  21 00 00    	ld	hl,_color
2246  07E4  34          	inc	(hl)
2247  07E5  3E 07       	ld	a,0x07
2248  07E7  96          	sub	a, (hl)
2249  07E8  D0          	ret	NC
2250  07E9  36 00       	ld	(hl),0x00
2251  07EB  C9          	ret
2252  07EC              	SECTION IGNORE
2253  0000              
