1     0000              MODULE game_engine_c
2     0000              LINE 0, "game_engine.c"
0     0000              
1     0000              ;--------------------------------------------------------
2     0000              ; File Created by SDCC : free open source ANSI-C Compiler
3     0000              ; Version 3.6.9 #9958 (Mac OS X i386)
4     0000              ;--------------------------------------------------------
5     0000              ; Processed by Z88DK
6     0000              ;--------------------------------------------------------
7     0000              
8     0000              	EXTERN __divschar
9     0000              	EXTERN __divschar_callee
10    0000              	EXTERN __divsint
11    0000              	EXTERN __divsint_callee
12    0000              	EXTERN __divslong
13    0000              	EXTERN __divslong_callee
14    0000              	EXTERN __divslonglong
15    0000              	EXTERN __divslonglong_callee
16    0000              	EXTERN __divsuchar
17    0000              	EXTERN __divsuchar_callee
18    0000              	EXTERN __divuchar
19    0000              	EXTERN __divuchar_callee
20    0000              	EXTERN __divuint
21    0000              	EXTERN __divuint_callee
22    0000              	EXTERN __divulong
23    0000              	EXTERN __divulong_callee
24    0000              	EXTERN __divulonglong
25    0000              	EXTERN __divulonglong_callee
26    0000              	EXTERN __divuschar
27    0000              	EXTERN __divuschar_callee
28    0000              	EXTERN __modschar
29    0000              	EXTERN __modschar_callee
30    0000              	EXTERN __modsint
31    0000              	EXTERN __modsint_callee
32    0000              	EXTERN __modslong
33    0000              	EXTERN __modslong_callee
34    0000              	EXTERN __modslonglong
35    0000              	EXTERN __modslonglong_callee
36    0000              	EXTERN __modsuchar
37    0000              	EXTERN __modsuchar_callee
38    0000              	EXTERN __moduchar
39    0000              	EXTERN __moduchar_callee
40    0000              	EXTERN __moduint
41    0000              	EXTERN __moduint_callee
42    0000              	EXTERN __modulong
43    0000              	EXTERN __modulong_callee
44    0000              	EXTERN __modulonglong
45    0000              	EXTERN __modulonglong_callee
46    0000              	EXTERN __moduschar
47    0000              	EXTERN __moduschar_callee
48    0000              	EXTERN __mulint
49    0000              	EXTERN __mulint_callee
50    0000              	EXTERN __mullong
51    0000              	EXTERN __mullong_callee
52    0000              	EXTERN __mullonglong
53    0000              	EXTERN __mullonglong_callee
54    0000              	EXTERN __mulschar
55    0000              	EXTERN __mulschar_callee
56    0000              	EXTERN __mulsuchar
57    0000              	EXTERN __mulsuchar_callee
58    0000              	EXTERN __muluschar
59    0000              	EXTERN __muluschar_callee
60    0000              	EXTERN __rlslonglong
61    0000              	EXTERN __rlslonglong_callee
62    0000              	EXTERN __rlulonglong
63    0000              	EXTERN __rlulonglong_callee
64    0000              	EXTERN __rrslonglong
65    0000              	EXTERN __rrslonglong_callee
66    0000              	EXTERN __rrulonglong
67    0000              	EXTERN __rrulonglong_callee
68    0000              	EXTERN ___sdcc_call_hl
69    0000              	EXTERN ___sdcc_call_iy
70    0000              	EXTERN ___sdcc_enter_ix
71    0000              	EXTERN _banked_call
72    0000              	EXTERN _banked_ret
73    0000              	EXTERN ___fs2schar
74    0000              	EXTERN ___fs2schar_callee
75    0000              	EXTERN ___fs2sint
76    0000              	EXTERN ___fs2sint_callee
77    0000              	EXTERN ___fs2slong
78    0000              	EXTERN ___fs2slong_callee
79    0000              	EXTERN ___fs2slonglong
80    0000              	EXTERN ___fs2slonglong_callee
81    0000              	EXTERN ___fs2uchar
82    0000              	EXTERN ___fs2uchar_callee
83    0000              	EXTERN ___fs2uint
84    0000              	EXTERN ___fs2uint_callee
85    0000              	EXTERN ___fs2ulong
86    0000              	EXTERN ___fs2ulong_callee
87    0000              	EXTERN ___fs2ulonglong
88    0000              	EXTERN ___fs2ulonglong_callee
89    0000              	EXTERN ___fsadd
90    0000              	EXTERN ___fsadd_callee
91    0000              	EXTERN ___fsdiv
92    0000              	EXTERN ___fsdiv_callee
93    0000              	EXTERN ___fseq
94    0000              	EXTERN ___fseq_callee
95    0000              	EXTERN ___fsgt
96    0000              	EXTERN ___fsgt_callee
97    0000              	EXTERN ___fslt
98    0000              	EXTERN ___fslt_callee
99    0000              	EXTERN ___fsmul
100   0000              	EXTERN ___fsmul_callee
101   0000              	EXTERN ___fsneq
102   0000              	EXTERN ___fsneq_callee
103   0000              	EXTERN ___fssub
104   0000              	EXTERN ___fssub_callee
105   0000              	EXTERN ___schar2fs
106   0000              	EXTERN ___schar2fs_callee
107   0000              	EXTERN ___sint2fs
108   0000              	EXTERN ___sint2fs_callee
109   0000              	EXTERN ___slong2fs
110   0000              	EXTERN ___slong2fs_callee
111   0000              	EXTERN ___slonglong2fs
112   0000              	EXTERN ___slonglong2fs_callee
113   0000              	EXTERN ___uchar2fs
114   0000              	EXTERN ___uchar2fs_callee
115   0000              	EXTERN ___uint2fs
116   0000              	EXTERN ___uint2fs_callee
117   0000              	EXTERN ___ulong2fs
118   0000              	EXTERN ___ulong2fs_callee
119   0000              	EXTERN ___ulonglong2fs
120   0000              	EXTERN ___ulonglong2fs_callee
121   0000              	EXTERN ____sdcc_2_copy_src_mhl_dst_deix
122   0000              	EXTERN ____sdcc_2_copy_src_mhl_dst_bcix
123   0000              	EXTERN ____sdcc_4_copy_src_mhl_dst_deix
124   0000              	EXTERN ____sdcc_4_copy_src_mhl_dst_bcix
125   0000              	EXTERN ____sdcc_4_copy_src_mhl_dst_mbc
126   0000              	EXTERN ____sdcc_4_ldi_nosave_bc
127   0000              	EXTERN ____sdcc_4_ldi_save_bc
128   0000              	EXTERN ____sdcc_4_push_hlix
129   0000              	EXTERN ____sdcc_4_push_mhl
130   0000              	EXTERN ____sdcc_lib_setmem_hl
131   0000              	EXTERN ____sdcc_ll_add_de_bc_hl
132   0000              	EXTERN ____sdcc_ll_add_de_bc_hlix
133   0000              	EXTERN ____sdcc_ll_add_de_hlix_bc
134   0000              	EXTERN ____sdcc_ll_add_de_hlix_bcix
135   0000              	EXTERN ____sdcc_ll_add_deix_bc_hl
136   0000              	EXTERN ____sdcc_ll_add_deix_hlix
137   0000              	EXTERN ____sdcc_ll_add_hlix_bc_deix
138   0000              	EXTERN ____sdcc_ll_add_hlix_deix_bc
139   0000              	EXTERN ____sdcc_ll_add_hlix_deix_bcix
140   0000              	EXTERN ____sdcc_ll_asr_hlix_a
141   0000              	EXTERN ____sdcc_ll_asr_mbc_a
142   0000              	EXTERN ____sdcc_ll_copy_src_de_dst_hlix
143   0000              	EXTERN ____sdcc_ll_copy_src_de_dst_hlsp
144   0000              	EXTERN ____sdcc_ll_copy_src_deix_dst_hl
145   0000              	EXTERN ____sdcc_ll_copy_src_deix_dst_hlix
146   0000              	EXTERN ____sdcc_ll_copy_src_deixm_dst_hlsp
147   0000              	EXTERN ____sdcc_ll_copy_src_desp_dst_hlsp
148   0000              	EXTERN ____sdcc_ll_copy_src_hl_dst_de
149   0000              	EXTERN ____sdcc_ll_copy_src_hlsp_dst_de
150   0000              	EXTERN ____sdcc_ll_copy_src_hlsp_dst_deixm
151   0000              	EXTERN ____sdcc_ll_lsl_hlix_a
152   0000              	EXTERN ____sdcc_ll_lsl_mbc_a
153   0000              	EXTERN ____sdcc_ll_lsr_hlix_a
154   0000              	EXTERN ____sdcc_ll_lsr_mbc_a
155   0000              	EXTERN ____sdcc_ll_push_hlix
156   0000              	EXTERN ____sdcc_ll_push_mhl
157   0000              	EXTERN ____sdcc_ll_sub_de_bc_hl
158   0000              	EXTERN ____sdcc_ll_sub_de_bc_hlix
159   0000              	EXTERN ____sdcc_ll_sub_de_hlix_bc
160   0000              	EXTERN ____sdcc_ll_sub_de_hlix_bcix
161   0000              	EXTERN ____sdcc_ll_sub_deix_bc_hl
162   0000              	EXTERN ____sdcc_ll_sub_deix_hlix
163   0000              	EXTERN ____sdcc_ll_sub_hlix_bc_deix
164   0000              	EXTERN ____sdcc_ll_sub_hlix_deix_bc
165   0000              	EXTERN ____sdcc_ll_sub_hlix_deix_bcix
166   0000              	EXTERN ____sdcc_load_debc_deix
167   0000              	EXTERN ____sdcc_load_dehl_deix
168   0000              	EXTERN ____sdcc_load_debc_mhl
169   0000              	EXTERN ____sdcc_load_hlde_mhl
170   0000              	EXTERN ____sdcc_store_dehl_bcix
171   0000              	EXTERN ____sdcc_store_debc_hlix
172   0000              	EXTERN ____sdcc_store_debc_mhl
173   0000              	EXTERN ____sdcc_cpu_pop_ei
174   0000              	EXTERN ____sdcc_cpu_pop_ei_jp
175   0000              	EXTERN ____sdcc_cpu_push_di
176   0000              	EXTERN ____sdcc_outi
177   0000              	EXTERN ____sdcc_outi_128
178   0000              	EXTERN ____sdcc_outi_256
179   0000              	EXTERN ____sdcc_ldi
180   0000              	EXTERN ____sdcc_ldi_128
181   0000              	EXTERN ____sdcc_ldi_256
182   0000              	EXTERN ____sdcc_4_copy_srcd_hlix_dst_deix
183   0000              	EXTERN ____sdcc_4_and_src_mbc_mhl_dst_deix
184   0000              	EXTERN ____sdcc_4_or_src_mbc_mhl_dst_deix
185   0000              	EXTERN ____sdcc_4_xor_src_mbc_mhl_dst_deix
186   0000              	EXTERN ____sdcc_4_or_src_dehl_dst_bcix
187   0000              	EXTERN ____sdcc_4_xor_src_dehl_dst_bcix
188   0000              	EXTERN ____sdcc_4_and_src_dehl_dst_bcix
189   0000              	EXTERN ____sdcc_4_xor_src_mbc_mhl_dst_debc
190   0000              	EXTERN ____sdcc_4_or_src_mbc_mhl_dst_debc
191   0000              	EXTERN ____sdcc_4_and_src_mbc_mhl_dst_debc
192   0000              	EXTERN ____sdcc_4_cpl_src_mhl_dst_debc
193   0000              	EXTERN ____sdcc_4_xor_src_debc_mhl_dst_debc
194   0000              	EXTERN ____sdcc_4_or_src_debc_mhl_dst_debc
195   0000              	EXTERN ____sdcc_4_and_src_debc_mhl_dst_debc
196   0000              	EXTERN ____sdcc_4_and_src_debc_hlix_dst_debc
197   0000              	EXTERN ____sdcc_4_or_src_debc_hlix_dst_debc
198   0000              	EXTERN ____sdcc_4_xor_src_debc_hlix_dst_debc
199   0000              
200   0000              ;--------------------------------------------------------
201   0000              ; Public variables in this module
202   0000              ;--------------------------------------------------------
203   0000              	GLOBAL _game_anim_conveyor
204   0000              	GLOBAL _game_tick
205   0000              	GLOBAL _game_end
206   0000              	GLOBAL _game_loop
207   0000              	GLOBAL _game_fps
208   0000              	GLOBAL _game_draw_map
209   0000              	GLOBAL _game_cell_paint_index
210   0000              	GLOBAL _game_cell_paint
211   0000              	GLOBAL _game_add_enemy
212   0000              	GLOBAL _game_print_footer
213   0000              	GLOBAL _game_print_score
214   0000              	GLOBAL _game_cls
215   0000              	GLOBAL _game_update_stats
216   0000              	GLOBAL _game_start_timer
217   0000              	GLOBAL _game_round_init
218   0000              	GLOBAL _game_print_header
219   0000              	GLOBAL _game_check_map
220   0000              	GLOBAL _game_check_cell
221   0000              	GLOBAL _game_paint_attrib
222   0000              	GLOBAL _game_colour_message
223   0000              	GLOBAL _game_check_time
224   0000              	GLOBAL _game_rotate_attrib
225   0000              	GLOBAL _game_rotate_attrib_osd
226   0000              	GLOBAL _game_attribs
227   0000              	GLOBAL _game_page_map
228   0000              ;--------------------------------------------------------
229   0000              ; Externals used
230   0000              ;--------------------------------------------------------
231   0000              	GLOBAL _ffsll_callee
232   0000              	GLOBAL _ffsll
233   0000              	GLOBAL _strxfrm_callee
234   0000              	GLOBAL _strxfrm
235   0000              	GLOBAL _strupr_fastcall
236   0000              	GLOBAL _strupr
237   0000              	GLOBAL _strtok_r_callee
238   0000              	GLOBAL _strtok_r
239   0000              	GLOBAL _strtok_callee
240   0000              	GLOBAL _strtok
241   0000              	GLOBAL _strstrip_fastcall
242   0000              	GLOBAL _strstrip
243   0000              	GLOBAL _strstr_callee
244   0000              	GLOBAL _strstr
245   0000              	GLOBAL _strspn_callee
246   0000              	GLOBAL _strspn
247   0000              	GLOBAL _strsep_callee
248   0000              	GLOBAL _strsep
249   0000              	GLOBAL _strrstrip_fastcall
250   0000              	GLOBAL _strrstrip
251   0000              	GLOBAL _strrstr_callee
252   0000              	GLOBAL _strrstr
253   0000              	GLOBAL _strrspn_callee
254   0000              	GLOBAL _strrspn
255   0000              	GLOBAL _strrev_fastcall
256   0000              	GLOBAL _strrev
257   0000              	GLOBAL _strrcspn_callee
258   0000              	GLOBAL _strrcspn
259   0000              	GLOBAL _strrchr_callee
260   0000              	GLOBAL _strrchr
261   0000              	GLOBAL _strpbrk_callee
262   0000              	GLOBAL _strpbrk
263   0000              	GLOBAL _strnlen_callee
264   0000              	GLOBAL _strnlen
265   0000              	GLOBAL _strnicmp_callee
266   0000              	GLOBAL _strnicmp
267   0000              	GLOBAL _strndup_callee
268   0000              	GLOBAL _strndup
269   0000              	GLOBAL _strncpy_callee
270   0000              	GLOBAL _strncpy
271   0000              	GLOBAL _strncmp_callee
272   0000              	GLOBAL _strncmp
273   0000              	GLOBAL _strnchr_callee
274   0000              	GLOBAL _strnchr
275   0000              	GLOBAL _strncat_callee
276   0000              	GLOBAL _strncat
277   0000              	GLOBAL _strncasecmp_callee
278   0000              	GLOBAL _strncasecmp
279   0000              	GLOBAL _strlwr_fastcall
280   0000              	GLOBAL _strlwr
281   0000              	GLOBAL _strlen_fastcall
282   0000              	GLOBAL _strlen
283   0000              	GLOBAL _strlcpy_callee
284   0000              	GLOBAL _strlcpy
285   0000              	GLOBAL _strlcat_callee
286   0000              	GLOBAL _strlcat
287   0000              	GLOBAL _stricmp_callee
288   0000              	GLOBAL _stricmp
289   0000              	GLOBAL _strerror_fastcall
290   0000              	GLOBAL _strerror
291   0000              	GLOBAL _strdup_fastcall
292   0000              	GLOBAL _strdup
293   0000              	GLOBAL _strcspn_callee
294   0000              	GLOBAL _strcspn
295   0000              	GLOBAL _strcpy_callee
296   0000              	GLOBAL _strcpy
297   0000              	GLOBAL _strcoll_callee
298   0000              	GLOBAL _strcoll
299   0000              	GLOBAL _strcmp_callee
300   0000              	GLOBAL _strcmp
301   0000              	GLOBAL _strchrnul_callee
302   0000              	GLOBAL _strchrnul
303   0000              	GLOBAL _strchr_callee
304   0000              	GLOBAL _strchr
305   0000              	GLOBAL _strcat_callee
306   0000              	GLOBAL _strcat
307   0000              	GLOBAL _strcasecmp_callee
308   0000              	GLOBAL _strcasecmp
309   0000              	GLOBAL _stpncpy_callee
310   0000              	GLOBAL _stpncpy
311   0000              	GLOBAL _stpcpy_callee
312   0000              	GLOBAL _stpcpy
313   0000              	GLOBAL _memswap_callee
314   0000              	GLOBAL _memswap
315   0000              	GLOBAL _memset_callee
316   0000              	GLOBAL _memset
317   0000              	GLOBAL _memrchr_callee
318   0000              	GLOBAL _memrchr
319   0000              	GLOBAL _memmove_callee
320   0000              	GLOBAL _memmove
321   0000              	GLOBAL _memmem_callee
322   0000              	GLOBAL _memmem
323   0000              	GLOBAL _memcpy_callee
324   0000              	GLOBAL _memcpy
325   0000              	GLOBAL _memcmp_callee
326   0000              	GLOBAL _memcmp
327   0000              	GLOBAL _memchr_callee
328   0000              	GLOBAL _memchr
329   0000              	GLOBAL _memccpy_callee
330   0000              	GLOBAL _memccpy
331   0000              	GLOBAL _ffsl_fastcall
332   0000              	GLOBAL _ffsl
333   0000              	GLOBAL _ffs_fastcall
334   0000              	GLOBAL _ffs
335   0000              	GLOBAL __strrstrip__fastcall
336   0000              	GLOBAL __strrstrip_
337   0000              	GLOBAL __memupr__callee
338   0000              	GLOBAL __memupr_
339   0000              	GLOBAL __memstrcpy__callee
340   0000              	GLOBAL __memstrcpy_
341   0000              	GLOBAL __memlwr__callee
342   0000              	GLOBAL __memlwr_
343   0000              	GLOBAL _rawmemchr_callee
344   0000              	GLOBAL _rawmemchr
345   0000              	GLOBAL _strnset_callee
346   0000              	GLOBAL _strnset
347   0000              	GLOBAL _strset_callee
348   0000              	GLOBAL _strset
349   0000              	GLOBAL _rindex_callee
350   0000              	GLOBAL _rindex
351   0000              	GLOBAL _index_callee
352   0000              	GLOBAL _index
353   0000              	GLOBAL _bzero_callee
354   0000              	GLOBAL _bzero
355   0000              	GLOBAL _bcopy_callee
356   0000              	GLOBAL _bcopy
357   0000              	GLOBAL _bcmp_callee
358   0000              	GLOBAL _bcmp
359   0000              	GLOBAL _ulltoa_callee
360   0000              	GLOBAL _ulltoa
361   0000              	GLOBAL _strtoull_callee
362   0000              	GLOBAL _strtoull
363   0000              	GLOBAL _strtoll_callee
364   0000              	GLOBAL _strtoll
365   0000              	GLOBAL _lltoa_callee
366   0000              	GLOBAL _lltoa
367   0000              	GLOBAL _llabs_callee
368   0000              	GLOBAL _llabs
369   0000              	GLOBAL __lldivu__callee
370   0000              	GLOBAL __lldivu_
371   0000              	GLOBAL __lldiv__callee
372   0000              	GLOBAL __lldiv_
373   0000              	GLOBAL _atoll_callee
374   0000              	GLOBAL _atoll
375   0000              	GLOBAL _realloc_unlocked_callee
376   0000              	GLOBAL _realloc_unlocked
377   0000              	GLOBAL _malloc_unlocked_fastcall
378   0000              	GLOBAL _malloc_unlocked
379   0000              	GLOBAL _free_unlocked_fastcall
380   0000              	GLOBAL _free_unlocked
381   0000              	GLOBAL _calloc_unlocked_callee
382   0000              	GLOBAL _calloc_unlocked
383   0000              	GLOBAL _aligned_alloc_unlocked_callee
384   0000              	GLOBAL _aligned_alloc_unlocked
385   0000              	GLOBAL _realloc_callee
386   0000              	GLOBAL _realloc
387   0000              	GLOBAL _malloc_fastcall
388   0000              	GLOBAL _malloc
389   0000              	GLOBAL _free_fastcall
390   0000              	GLOBAL _free
391   0000              	GLOBAL _calloc_callee
392   0000              	GLOBAL _calloc
393   0000              	GLOBAL _aligned_alloc_callee
394   0000              	GLOBAL _aligned_alloc
395   0000              	GLOBAL _utoa_callee
396   0000              	GLOBAL _utoa
397   0000              	GLOBAL _ultoa_callee
398   0000              	GLOBAL _ultoa
399   0000              	GLOBAL _system_fastcall
400   0000              	GLOBAL _system
401   0000              	GLOBAL _strtoul_callee
402   0000              	GLOBAL _strtoul
403   0000              	GLOBAL _strtol_callee
404   0000              	GLOBAL _strtol
405   0000              	GLOBAL _strtof_callee
406   0000              	GLOBAL _strtof
407   0000              	GLOBAL _strtod_callee
408   0000              	GLOBAL _strtod
409   0000              	GLOBAL _srand_fastcall
410   0000              	GLOBAL _srand
411   0000              	GLOBAL _rand
412   0000              	GLOBAL _quick_exit_fastcall
413   0000              	GLOBAL _quick_exit
414   0000              	GLOBAL _qsort_callee
415   0000              	GLOBAL _qsort
416   0000              	GLOBAL _ltoa_callee
417   0000              	GLOBAL _ltoa
418   0000              	GLOBAL _labs_fastcall
419   0000              	GLOBAL _labs
420   0000              	GLOBAL _itoa_callee
421   0000              	GLOBAL _itoa
422   0000              	GLOBAL _ftoh_callee
423   0000              	GLOBAL _ftoh
424   0000              	GLOBAL _ftog_callee
425   0000              	GLOBAL _ftog
426   0000              	GLOBAL _ftoe_callee
427   0000              	GLOBAL _ftoe
428   0000              	GLOBAL _ftoa_callee
429   0000              	GLOBAL _ftoa
430   0000              	GLOBAL _exit_fastcall
431   0000              	GLOBAL _exit
432   0000              	GLOBAL _dtoh_callee
433   0000              	GLOBAL _dtoh
434   0000              	GLOBAL _dtog_callee
435   0000              	GLOBAL _dtog
436   0000              	GLOBAL _dtoe_callee
437   0000              	GLOBAL _dtoe
438   0000              	GLOBAL _dtoa_callee
439   0000              	GLOBAL _dtoa
440   0000              	GLOBAL _bsearch_callee
441   0000              	GLOBAL _bsearch
442   0000              	GLOBAL _atol_fastcall
443   0000              	GLOBAL _atol
444   0000              	GLOBAL _atoi_fastcall
445   0000              	GLOBAL _atoi
446   0000              	GLOBAL _atof_fastcall
447   0000              	GLOBAL _atof
448   0000              	GLOBAL _atexit_fastcall
449   0000              	GLOBAL _atexit
450   0000              	GLOBAL _at_quick_exit_fastcall
451   0000              	GLOBAL _at_quick_exit
452   0000              	GLOBAL _abs_fastcall
453   0000              	GLOBAL _abs
454   0000              	GLOBAL _abort
455   0000              	GLOBAL __strtou__callee
456   0000              	GLOBAL __strtou_
457   0000              	GLOBAL __strtoi__callee
458   0000              	GLOBAL __strtoi_
459   0000              	GLOBAL __random_uniform_xor_8__fastcall
460   0000              	GLOBAL __random_uniform_xor_8_
461   0000              	GLOBAL __random_uniform_xor_32__fastcall
462   0000              	GLOBAL __random_uniform_xor_32_
463   0000              	GLOBAL __random_uniform_cmwc_8__fastcall
464   0000              	GLOBAL __random_uniform_cmwc_8_
465   0000              	GLOBAL __shellsort__callee
466   0000              	GLOBAL __shellsort_
467   0000              	GLOBAL __quicksort__callee
468   0000              	GLOBAL __quicksort_
469   0000              	GLOBAL __insertion_sort__callee
470   0000              	GLOBAL __insertion_sort_
471   0000              	GLOBAL __ldivu__callee
472   0000              	GLOBAL __ldivu_
473   0000              	GLOBAL __ldiv__callee
474   0000              	GLOBAL __ldiv_
475   0000              	GLOBAL __divu__callee
476   0000              	GLOBAL __divu_
477   0000              	GLOBAL __div__callee
478   0000              	GLOBAL __div_
479   0000              	GLOBAL _NIRVANAP_drawTW_raw_callee
480   0000              	GLOBAL _NIRVANAP_drawTW_raw
481   0000              	GLOBAL _NIRVANAP_drawTW_callee
482   0000              	GLOBAL _NIRVANAP_drawTW
483   0000              	GLOBAL _NIRVANAP_drawW_raw_callee
484   0000              	GLOBAL _NIRVANAP_drawW_raw
485   0000              	GLOBAL _NIRVANAP_drawW_callee
486   0000              	GLOBAL _NIRVANAP_drawW
487   0000              	GLOBAL _NIRVANAP_spriteT_callee
488   0000              	GLOBAL _NIRVANAP_spriteT
489   0000              	GLOBAL _NIRVANAP_fillC_callee
490   0000              	GLOBAL _NIRVANAP_fillC
491   0000              	GLOBAL _NIRVANAP_readC_callee
492   0000              	GLOBAL _NIRVANAP_readC
493   0000              	GLOBAL _NIRVANAP_paintC_callee
494   0000              	GLOBAL _NIRVANAP_paintC
495   0000              	GLOBAL _NIRVANAP_printC_callee
496   0000              	GLOBAL _NIRVANAP_printC
497   0000              	GLOBAL _NIRVANAP_fillT_raw_callee
498   0000              	GLOBAL _NIRVANAP_fillT_raw
499   0000              	GLOBAL _NIRVANAP_fillT_callee
500   0000              	GLOBAL _NIRVANAP_fillT
501   0000              	GLOBAL _NIRVANAP_drawT_raw_callee
502   0000              	GLOBAL _NIRVANAP_drawT_raw
503   0000              	GLOBAL _NIRVANAP_drawT_callee
504   0000              	GLOBAL _NIRVANAP_drawT
505   0000              	GLOBAL _NIRVANAP_stop
506   0000              	GLOBAL _NIRVANAP_start
507   0000              	GLOBAL _zx_print_str
508   0000              	GLOBAL _zx_print_int
509   0000              	GLOBAL _zx_print_chr
510   0000              	GLOBAL _zx_print_bonus_time
511   0000              	GLOBAL _zx_isr
512   0000              	GLOBAL _z80_otdr_callee
513   0000              	GLOBAL _z80_otdr
514   0000              	GLOBAL _z80_otir_callee
515   0000              	GLOBAL _z80_otir
516   0000              	GLOBAL _z80_outp_callee
517   0000              	GLOBAL _z80_outp
518   0000              	GLOBAL _z80_indr_callee
519   0000              	GLOBAL _z80_indr
520   0000              	GLOBAL _z80_inir_callee
521   0000              	GLOBAL _z80_inir
522   0000              	GLOBAL _z80_inp_fastcall
523   0000              	GLOBAL _z80_inp
524   0000              	GLOBAL _z80_set_int_state_fastcall
525   0000              	GLOBAL _z80_set_int_state
526   0000              	GLOBAL _z80_get_int_state
527   0000              	GLOBAL _z80_delay_tstate_fastcall
528   0000              	GLOBAL _z80_delay_tstate
529   0000              	GLOBAL _z80_delay_ms_fastcall
530   0000              	GLOBAL _z80_delay_ms
531   0000              	GLOBAL _im2_remove_generic_callback_callee
532   0000              	GLOBAL _im2_remove_generic_callback
533   0000              	GLOBAL _im2_prepend_generic_callback_callee
534   0000              	GLOBAL _im2_prepend_generic_callback
535   0000              	GLOBAL _im2_append_generic_callback_callee
536   0000              	GLOBAL _im2_append_generic_callback
537   0000              	GLOBAL _im2_create_generic_isr_8080_callee
538   0000              	GLOBAL _im2_create_generic_isr_8080
539   0000              	GLOBAL _im2_create_generic_isr_callee
540   0000              	GLOBAL _im2_create_generic_isr
541   0000              	GLOBAL _im2_install_isr_callee
542   0000              	GLOBAL _im2_install_isr
543   0000              	GLOBAL _im2_init_fastcall
544   0000              	GLOBAL _im2_init
545   0000              	GLOBAL _intrinsic_swap_word_32_fastcall
546   0000              	GLOBAL _intrinsic_swap_word_32
547   0000              	GLOBAL _intrinsic_swap_endian_32_fastcall
548   0000              	GLOBAL _intrinsic_swap_endian_32
549   0000              	GLOBAL _intrinsic_swap_endian_16_fastcall
550   0000              	GLOBAL _intrinsic_swap_endian_16
551   0000              	GLOBAL _intrinsic_return_de
552   0000              	GLOBAL _intrinsic_return_bc
553   0000              	GLOBAL _intrinsic_exx
554   0000              	GLOBAL _intrinsic_ex_de_hl
555   0000              	GLOBAL _intrinsic_nop
556   0000              	GLOBAL _intrinsic_im_2
557   0000              	GLOBAL _intrinsic_im_1
558   0000              	GLOBAL _intrinsic_im_0
559   0000              	GLOBAL _intrinsic_retn
560   0000              	GLOBAL _intrinsic_reti
561   0000              	GLOBAL _intrinsic_halt
562   0000              	GLOBAL _intrinsic_ei
563   0000              	GLOBAL _intrinsic_di
564   0000              	GLOBAL _intrinsic_stub
565   0000              	GLOBAL _intrinsic_ini
566   0000              	GLOBAL _intrinsic_outi
567   0000              	GLOBAL _intrinsic_ldi
568   0000              	GLOBAL _zx_pattern_fill_callee
569   0000              	GLOBAL _zx_pattern_fill
570   0000              	GLOBAL _zx_saddrpup_fastcall
571   0000              	GLOBAL _zx_saddrpup
572   0000              	GLOBAL _zx_saddrpright_callee
573   0000              	GLOBAL _zx_saddrpright
574   0000              	GLOBAL _zx_saddrpleft_callee
575   0000              	GLOBAL _zx_saddrpleft
576   0000              	GLOBAL _zx_saddrpdown_fastcall
577   0000              	GLOBAL _zx_saddrpdown
578   0000              	GLOBAL _zx_saddrcup_fastcall
579   0000              	GLOBAL _zx_saddrcup
580   0000              	GLOBAL _zx_saddrcright_fastcall
581   0000              	GLOBAL _zx_saddrcright
582   0000              	GLOBAL _zx_saddrcleft_fastcall
583   0000              	GLOBAL _zx_saddrcleft
584   0000              	GLOBAL _zx_saddrcdown_fastcall
585   0000              	GLOBAL _zx_saddrcdown
586   0000              	GLOBAL _zx_saddr2py_fastcall
587   0000              	GLOBAL _zx_saddr2py
588   0000              	GLOBAL _zx_saddr2px_fastcall
589   0000              	GLOBAL _zx_saddr2px
590   0000              	GLOBAL _zx_saddr2cy_fastcall
591   0000              	GLOBAL _zx_saddr2cy
592   0000              	GLOBAL _zx_saddr2cx_fastcall
593   0000              	GLOBAL _zx_saddr2cx
594   0000              	GLOBAL _zx_saddr2aaddr_fastcall
595   0000              	GLOBAL _zx_saddr2aaddr
596   0000              	GLOBAL _zx_py2saddr_fastcall
597   0000              	GLOBAL _zx_py2saddr
598   0000              	GLOBAL _zx_py2aaddr_fastcall
599   0000              	GLOBAL _zx_py2aaddr
600   0000              	GLOBAL _zx_pxy2saddr_callee
601   0000              	GLOBAL _zx_pxy2saddr
602   0000              	GLOBAL _zx_pxy2aaddr_callee
603   0000              	GLOBAL _zx_pxy2aaddr
604   0000              	GLOBAL _zx_px2bitmask_fastcall
605   0000              	GLOBAL _zx_px2bitmask
606   0000              	GLOBAL _zx_cy2saddr_fastcall
607   0000              	GLOBAL _zx_cy2saddr
608   0000              	GLOBAL _zx_cy2aaddr_fastcall
609   0000              	GLOBAL _zx_cy2aaddr
610   0000              	GLOBAL _zx_cxy2saddr_callee
611   0000              	GLOBAL _zx_cxy2saddr
612   0000              	GLOBAL _zx_cxy2aaddr_callee
613   0000              	GLOBAL _zx_cxy2aaddr
614   0000              	GLOBAL _zx_bitmask2px_fastcall
615   0000              	GLOBAL _zx_bitmask2px
616   0000              	GLOBAL _zx_aaddrcup_fastcall
617   0000              	GLOBAL _zx_aaddrcup
618   0000              	GLOBAL _zx_aaddrcright_fastcall
619   0000              	GLOBAL _zx_aaddrcright
620   0000              	GLOBAL _zx_aaddrcleft_fastcall
621   0000              	GLOBAL _zx_aaddrcleft
622   0000              	GLOBAL _zx_aaddrcdown_fastcall
623   0000              	GLOBAL _zx_aaddrcdown
624   0000              	GLOBAL _zx_aaddr2saddr_fastcall
625   0000              	GLOBAL _zx_aaddr2saddr
626   0000              	GLOBAL _zx_aaddr2py_fastcall
627   0000              	GLOBAL _zx_aaddr2py
628   0000              	GLOBAL _zx_aaddr2px_fastcall
629   0000              	GLOBAL _zx_aaddr2px
630   0000              	GLOBAL _zx_aaddr2cy_fastcall
631   0000              	GLOBAL _zx_aaddr2cy
632   0000              	GLOBAL _zx_aaddr2cx_fastcall
633   0000              	GLOBAL _zx_aaddr2cx
634   0000              	GLOBAL _zx_visit_wc_pix_callee
635   0000              	GLOBAL _zx_visit_wc_pix
636   0000              	GLOBAL _zx_visit_wc_attr_callee
637   0000              	GLOBAL _zx_visit_wc_attr
638   0000              	GLOBAL _zx_scroll_wc_up_pix_callee
639   0000              	GLOBAL _zx_scroll_wc_up_pix
640   0000              	GLOBAL _zx_scroll_wc_up_attr_callee
641   0000              	GLOBAL _zx_scroll_wc_up_attr
642   0000              	GLOBAL _zx_scroll_wc_up_callee
643   0000              	GLOBAL _zx_scroll_wc_up
644   0000              	GLOBAL _zx_scroll_up_pix_callee
645   0000              	GLOBAL _zx_scroll_up_pix
646   0000              	GLOBAL _zx_scroll_up_attr_callee
647   0000              	GLOBAL _zx_scroll_up_attr
648   0000              	GLOBAL _zx_scroll_up_callee
649   0000              	GLOBAL _zx_scroll_up
650   0000              	GLOBAL _zx_cls_wc_pix_callee
651   0000              	GLOBAL _zx_cls_wc_pix
652   0000              	GLOBAL _zx_cls_wc_attr_callee
653   0000              	GLOBAL _zx_cls_wc_attr
654   0000              	GLOBAL _zx_cls_wc_callee
655   0000              	GLOBAL _zx_cls_wc
656   0000              	GLOBAL _zx_cls_pix_fastcall
657   0000              	GLOBAL _zx_cls_pix
658   0000              	GLOBAL _zx_cls_attr_fastcall
659   0000              	GLOBAL _zx_cls_attr
660   0000              	GLOBAL _zx_cls_fastcall
661   0000              	GLOBAL _zx_cls
662   0000              	GLOBAL _zx_border_fastcall
663   0000              	GLOBAL _zx_border
664   0000              	GLOBAL _zx_tape_verify_block_callee
665   0000              	GLOBAL _zx_tape_verify_block
666   0000              	GLOBAL _zx_tape_save_block_callee
667   0000              	GLOBAL _zx_tape_save_block
668   0000              	GLOBAL _zx_tape_load_block_callee
669   0000              	GLOBAL _zx_tape_load_block
670   0000              	GLOBAL _spr_destroy
671   0000              	GLOBAL _spr_unflattenP1
672   0000              	GLOBAL _spr_flatten
673   0000              	GLOBAL _spr_btile_paint_back
674   0000              	GLOBAL _spr_init_effects
675   0000              	GLOBAL _spr_turn_horizontal
676   0000              	GLOBAL _spr_play_anim
677   0000              	GLOBAL _spr_add_anim
678   0000              	GLOBAL _spr_clear_scr
679   0000              	GLOBAL _spr_back_repaint
680   0000              	GLOBAL _spr_tile_dir
681   0000              	GLOBAL _spr_tile
682   0000              	GLOBAL _spr_paint_player
683   0000              	GLOBAL _spr_paint
684   0000              	GLOBAL _spr_move_left
685   0000              	GLOBAL _spr_move_right
686   0000              	GLOBAL _spr_move_left_f
687   0000              	GLOBAL _spr_move_right_f
688   0000              	GLOBAL _spr_move_horizontal
689   0000              	GLOBAL _spr_move_down
690   0000              	GLOBAL _spr_move_up
691   0000              	GLOBAL _spr_set_right
692   0000              	GLOBAL _spr_set_left
693   0000              	GLOBAL _spr_set_down
694   0000              	GLOBAL _spr_set_up
695   0000              	GLOBAL _spr_calc_index
696   0000              	GLOBAL _spr_chktime
697   0000              	GLOBAL _player_lost_life
698   0000              	GLOBAL _player_move_jump
699   0000              	GLOBAL _player_tile
700   0000              	GLOBAL _player_pick_deadly
701   0000              	GLOBAL _player_pick_item
702   0000              	GLOBAL _player_check_ceil
703   0000              	GLOBAL _player_check_floor_walk
704   0000              	GLOBAL _player_check_floor_jump
705   0000              	GLOBAL _player_score_add
706   0000              	GLOBAL _player_move_walk
707   0000              	GLOBAL _player_turn
708   0000              	GLOBAL _player_move
709   0000              	GLOBAL _player_check_input
710   0000              	GLOBAL _player_init
711   0000              	GLOBAL _menu_define_key
712   0000              	GLOBAL _menu_redefine
713   0000              	GLOBAL _menu_main_print
714   0000              	GLOBAL _menu_main
715   0000              	GLOBAL _game_fill_row
716   0000              	GLOBAL _enemy_avoid_dead
717   0000              	GLOBAL _enemy_avoid_fall
718   0000              	GLOBAL _enemy_kill
719   0000              	GLOBAL _enemy_init
720   0000              	GLOBAL _enemy_move
721   0000              	GLOBAL _enemy_turn
722   0000              	GLOBAL _enemy_static
723   0000              	GLOBAL _enemy_walk
724   0000              	GLOBAL _enemy_horizontal
725   0000              	GLOBAL _enemy_vertical
726   0000              	GLOBAL _ay_reset
727   0000              	GLOBAL _ay_song_stop
728   0000              	GLOBAL _ay_song_play
729   0000              	GLOBAL _ay_fx_stop
730   0000              	GLOBAL _ay_fx_play
731   0000              	GLOBAL _ay_is_playing
732   0000              	GLOBAL _audio_levelup
733   0000              	GLOBAL _audio_menu
734   0000              	GLOBAL _audio_game_end
735   0000              	GLOBAL _audio_level_complete
736   0000              	GLOBAL _audio_level_start
737   0000              	GLOBAL _audio_lotr_lose_a_life
738   0000              	GLOBAL _audio_puerta
739   0000              	GLOBAL _audio_sin_mana
740   0000              	GLOBAL _audio_magic1
741   0000              	GLOBAL _audio_coin
742   0000              	GLOBAL _audio_golpe
743   0000              	GLOBAL _audio_salto
744   0000              	GLOBAL _audio_efecto
745   0000              	GLOBAL _audio_disparo_fire
746   0000              	GLOBAL _audio_disparo_axe
747   0000              	GLOBAL _audio_disparo2
748   0000              	GLOBAL _audio_disparo1
749   0000              	GLOBAL _audio_explosion1
750   0000              	GLOBAL _audio_explosion
751   0000              	GLOBAL _audio_ingame
752   0000              	GLOBAL _game_sprite_draw8
753   0000              	GLOBAL _test_func
754   0000              	GLOBAL _test_proc
755   0000              	GLOBAL _in_mouse_kempston_wheel_delta
756   0000              	GLOBAL _in_mouse_kempston_wheel
757   0000              	GLOBAL _in_mouse_kempston_callee
758   0000              	GLOBAL _in_mouse_kempston
759   0000              	GLOBAL _in_mouse_kempston_setpos_callee
760   0000              	GLOBAL _in_mouse_kempston_setpos
761   0000              	GLOBAL _in_mouse_kempston_reset
762   0000              	GLOBAL _in_mouse_kempston_init
763   0000              	GLOBAL _in_mouse_amx_wheel_delta
764   0000              	GLOBAL _in_mouse_amx_wheel
765   0000              	GLOBAL _in_mouse_amx_callee
766   0000              	GLOBAL _in_mouse_amx
767   0000              	GLOBAL _in_mouse_amx_setpos_callee
768   0000              	GLOBAL _in_mouse_amx_setpos
769   0000              	GLOBAL _in_mouse_amx_reset
770   0000              	GLOBAL _in_mouse_amx_init_callee
771   0000              	GLOBAL _in_mouse_amx_init
772   0000              	GLOBAL _in_stick_sinclair2
773   0000              	GLOBAL _in_stick_sinclair1
774   0000              	GLOBAL _in_stick_kempston
775   0000              	GLOBAL _in_stick_fuller
776   0000              	GLOBAL _in_stick_cursor
777   0000              	GLOBAL _in_stick_keyboard_fastcall
778   0000              	GLOBAL _in_stick_keyboard
779   0000              	GLOBAL _in_wait_nokey
780   0000              	GLOBAL _in_wait_key
781   0000              	GLOBAL _in_test_key
782   0000              	GLOBAL _in_pause_fastcall
783   0000              	GLOBAL _in_pause
784   0000              	GLOBAL _in_key_scancode_fastcall
785   0000              	GLOBAL _in_key_scancode
786   0000              	GLOBAL _in_key_pressed_fastcall
787   0000              	GLOBAL _in_key_pressed
788   0000              	GLOBAL _in_inkey
789   0000              	GLOBAL _NIRVANAP_CHAR_TABLE
790   0000              	GLOBAL _NIRVANAP_WIDE_IMAGES
791   0000              	GLOBAL _NIRVANAP_TILE_IMAGES
792   0000              	GLOBAL _NIRVANAP_HOLE
793   0000              	GLOBAL _NIRVANAP_ISR_HOOK
794   0000              	GLOBAL _scan_map
795   0000              	GLOBAL _key_map
796   0000              	GLOBAL _map_paper_last_a
797   0000              	GLOBAL _map_paper_last
798   0000              	GLOBAL _map_paper_clr
799   0000              	GLOBAL _map_paper
800   0000              	GLOBAL _anim_count
801   0000              	GLOBAL _anim_respanwn
802   0000              	GLOBAL _anim_loop
803   0000              	GLOBAL _anim_end
804   0000              	GLOBAL _anim_int
805   0000              	GLOBAL _anim_tile
806   0000              	GLOBAL _anim_col
807   0000              	GLOBAL _anim_lin
808   0000              	GLOBAL _map_heigth
809   0000              	GLOBAL _map_width
810   0000              	GLOBAL _scr_curr
811   0000              	GLOBAL _sprite_kind
812   0000              	GLOBAL _scr_map
813   0000              	GLOBAL _spr_init
814   0000              	GLOBAL _spr_map_tile
815   0000              	GLOBAL _sprite_frames
816   0000              	GLOBAL _sprite_base_speed
817   0000              	GLOBAL _sprite_speed
818   0000              	GLOBAL _screen_ink
819   0000              	GLOBAL _screen_paper
820   0000              	GLOBAL _game_start_scr
821   0000              	GLOBAL _game_score_top
822   0000              	GLOBAL _player_coins
823   0000              	GLOBAL _player_lives
824   0000              	GLOBAL _game_over
825   0000              	GLOBAL _game_sound
826   0000              	GLOBAL _game_inf_lives
827   0000              	GLOBAL _game_inmune
828   0000              	GLOBAL _sprite_curr_index
829   0000              	GLOBAL _spr_count
830   0000              	GLOBAL _last_rotated
831   0000              	GLOBAL _anim_time
832   0000              	GLOBAL _frame_time
833   0000              	GLOBAL _curr_time
834   0000              	GLOBAL _game_conveyor_flag
835   0000              	GLOBAL _conv3
836   0000              	GLOBAL _conv2
837   0000              	GLOBAL _conv1
838   0000              	GLOBAL _conv0
839   0000              	GLOBAL _p_state_a
840   0000              	GLOBAL _p_state
841   0000              	GLOBAL _attrib8
842   0000              	GLOBAL _attrib7
843   0000              	GLOBAL _attrib6
844   0000              	GLOBAL _attrib5
845   0000              	GLOBAL _attrib4
846   0000              	GLOBAL _attrib3
847   0000              	GLOBAL _attrib2
848   0000              	GLOBAL _attrib1
849   0000              	GLOBAL _attrib0
850   0000              	GLOBAL _attrib_red
851   0000              	GLOBAL _game_attrib_osd
852   0000              	GLOBAL _attrib_osd
853   0000              	GLOBAL _attrib_hl
854   0000              	GLOBAL _attrib
855   0000              	GLOBAL _zx_val_asm
856   0000              	GLOBAL _enemies
857   0000              	GLOBAL _tmp_ui
858   0000              	GLOBAL _tmp_sc
859   0000              	GLOBAL _tmp_uc
860   0000              	GLOBAL _tmp1
861   0000              	GLOBAL _tmp0
862   0000              	GLOBAL _tmp
863   0000              	GLOBAL _index1
864   0000              	GLOBAL _index0
865   0000              	GLOBAL _loop_count
866   0000              	GLOBAL _s_class
867   0000              	GLOBAL _s_row1
868   0000              	GLOBAL _s_col1
869   0000              	GLOBAL _s_col0
870   0000              	GLOBAL _s_lin1
871   0000              	GLOBAL _s_lin0
872   0000              	GLOBAL _s_tile1
873   0000              	GLOBAL _s_tile0
874   0000              	GLOBAL _player_kill_index
875   0000              	GLOBAL _player_killed
876   0000              	GLOBAL _player_jump_top
877   0000              	GLOBAL _player_hit_count
878   0000              	GLOBAL _game_fps_show
879   0000              	GLOBAL _game_debug
880   0000              	GLOBAL _sprite
881   0000              	GLOBAL _fps
882   0000              	GLOBAL _menu_curr_sel
883   0000              	GLOBAL _game_control_mode
884   0000              	GLOBAL _game_round_up
885   0000              	GLOBAL _game_conveyor_col1
886   0000              	GLOBAL _game_conveyor_col0
887   0000              	GLOBAL _game_conveyor_lin
888   0000              	GLOBAL _game_conveyor_dir
889   0000              	GLOBAL _game_song_play_start
890   0000              	GLOBAL _game_song_play
891   0000              	GLOBAL _game_world
892   0000              	GLOBAL _game_gravity
893   0000              	GLOBAL _player_jumpcount
894   0000              	GLOBAL _player_hit
895   0000              	GLOBAL _player_hit_time
896   0000              	GLOBAL _player_lin_scr
897   0000              	GLOBAL _player_col_scr
898   0000              	GLOBAL _player_max_vita
899   0000              	GLOBAL _player_max_mana
900   0000              	GLOBAL _player_keys
901   0000              	GLOBAL _player_vel_inc
902   0000              	GLOBAL _player_vel_y0
903   0000              	GLOBAL _player_vel_y
904   0000              	GLOBAL _player_score
905   0000              	GLOBAL _last_time
906   0000              	GLOBAL _obj_count
907   0000              	GLOBAL _obj_col
908   0000              	GLOBAL _obj_lin
909   0000              	GLOBAL _spr_timer
910   0000              	GLOBAL _jump_lin
911   0000              	GLOBAL _colint
912   0000              	GLOBAL _col
913   0000              	GLOBAL _tbuffer
914   0000              	GLOBAL _lin
915   0000              	GLOBAL _tile
916   0000              	GLOBAL _value_b
917   0000              	GLOBAL _value_a
918   0000              	GLOBAL _state_a
919   0000              	GLOBAL _state
920   0000              	GLOBAL _class
921   0000              	GLOBAL _dirs
922   0000              	GLOBAL _k2
923   0000              	GLOBAL _k1
924   0000              	GLOBAL _joyfunc2
925   0000              	GLOBAL _joyfunc1
926   0000              	GLOBAL _btiles
927   0000              	GLOBAL _v3
928   0000              	GLOBAL _v2
929   0000              	GLOBAL _v1
930   0000              	GLOBAL _v0
931   0000              	GLOBAL _i
932   0000              	GLOBAL _spec128
933   0000              	GLOBAL _GLOBAL_ZX_PORT_7FFD
934   0000              	GLOBAL _GLOBAL_ZX_PORT_1FFD
935   0000              	GLOBAL _GLOBAL_ZX_PORT_FE
936   0000              	GLOBAL _ay_fx_06_disparo_fire
937   0000              	GLOBAL _ay_fx_06_disparo_axe
938   0000              	GLOBAL _ay_fx_06_explosion1
939   0000              	GLOBAL _ay_fx_06_efecto
940   0000              	GLOBAL _ay_fx_06_disparo2
941   0000              	GLOBAL _ay_fx_06_disparo1
942   0000              	GLOBAL _ay_fx_06_levelup
943   0000              	GLOBAL _ay_fx_06_magic
944   0000              	GLOBAL _ay_fx_06_sin_mana
945   0000              	GLOBAL _ay_fx_06_salto
946   0000              	GLOBAL _ay_fx_06_puerta
947   0000              	GLOBAL _ay_fx_06_magic1
948   0000              	GLOBAL _ay_fx_06_golpe
949   0000              	GLOBAL _ay_fx_06_explosion
950   0000              	GLOBAL _ay_fx_06_dano_por_toque
951   0000              	GLOBAL _ay_fx_06_coin
952   0000              	GLOBAL _ay_song_06_lotr_level_start
953   0000              	GLOBAL _ay_song_06_lotr_level_complete
954   0000              	GLOBAL _ay_song_06_lotr_lose_a_life
955   0000              	GLOBAL _ay_song_04_ingame0
956   0000              	GLOBAL _ay_song_04_ingame
957   0000              	GLOBAL _lenght0
958   0000              	GLOBAL _world0
959   0000              ;--------------------------------------------------------
960   0000              ; special function registers
961   0000              ;--------------------------------------------------------
962   0000              defc _IO_FE	=	0x00fe
963   0000              defc _IO_1FFD	=	0x1ffd
964   0000              defc _IO_7FFD	=	0x7ffd
965   0000              ;--------------------------------------------------------
966   0000              ; ram data
967   0000              ;--------------------------------------------------------
968   0000              	SECTION bss_compiler
969   0000              ;--------------------------------------------------------
970   0000              ; ram data
971   0000              ;--------------------------------------------------------
972   0000              
973   0000              IF 0
974   0000              
975   0000              ; .area _INITIALIZED removed by z88dk
976   0000              
977   0000              
978   0000              ENDIF
979   0000              
980   0000              ;--------------------------------------------------------
981   0000              ; absolute external ram data
982   0000              ;--------------------------------------------------------
983   0000              	SECTION IGNORE
984   0000              ;--------------------------------------------------------
985   0000              ; global & static initialisations
986   0000              ;--------------------------------------------------------
987   0000              	SECTION code_crt_init
988   0000              ;--------------------------------------------------------
989   0000              ; Home
990   0000              ;--------------------------------------------------------
991   0000              	SECTION IGNORE
992   0000              ;--------------------------------------------------------
993   0000              ; code
994   0000              ;--------------------------------------------------------
995   0000              	SECTION code_compiler
996   0000              ;	---------------------------------
997   0000              ; Function game_loop
998   0000              ; ---------------------------------
999   0000              _game_loop:
1000  0000  21 00 00    	ld	hl,_player_lives
1001  0003  36 03       	ld	(hl),0x03
1002  0005  21 00 00    	ld	hl,0x0000
1003  0008  22 00 00    	ld	(_player_score),hl
1004  000B  21 00 00    	ld	hl,_game_over
1005  000E  36 00       	ld	(hl),0x00
1006  0010  21 00 00    	ld	hl,_game_round_up
1007  0013  36 00       	ld	(hl),0x00
1008  0015  21 00 00    	ld	hl,_game_world
1009  0018  36 00       	ld	(hl),0x00
1010  001A  21 00 00    	ld	hl,_scr_curr
1011  001D  36 FF       	ld	(hl),0xff
1012  001F  21 00 00    	ld	hl,_map_paper
1013  0022  36 00       	ld	(hl),0x00
1014  0024  21 00 00    	ld	hl,_player_lin_scr
1015  0027  36 68       	ld	(hl),0x68
1016  0029  21 00 00    	ld	hl,_player_col_scr
1017  002C  36 02       	ld	(hl),0x02
1018  002E  CD 10 05    	call	_game_round_init
1019  0031              l_game_loop_00117:
1020  0031  3A 00 00    	ld	a,(_game_over)
1021  0034  B7          	or	a, a
1022  0035  C2 DC 00    	jp	NZ, l_game_loop_00120
1023  0038  21 00 00    	ld	hl,_dirs
1024  003B  36 00       	ld	(hl),0x00
1025  003D              l_game_loop_00112:
1026  003D  3A 00 00    	ld	a,(_game_round_up)
1027  0040  B7          	or	a, a
1028  0041  20 76       	jr	NZ,l_game_loop_00114
1029  0043  3A 00 00    	ld	a,(_game_over)
1030  0046  B7          	or	a, a
1031  0047  20 70       	jr	NZ,l_game_loop_00114
1032  0049  CD 00 00    	call	_enemy_turn
1033  004C  CD 00 00    	call	_player_turn
1034  004F  3E 08       	ld	a,0x08
1035  0051  F5          	push	af
1036  0052  33          	inc	sp
1037  0053  21 00 00    	ld	hl,_anim_time
1038  0056  E5          	push	hl
1039  0057  CD BB 07    	call	_game_check_time
1040  005A  F1          	pop	af
1041  005B  33          	inc	sp
1042  005C  7D          	ld	a, l
1043  005D  B7          	or	a, a
1044  005E  28 10       	jr	Z,l_game_loop_00104
1045  0060  2A 00 00    	ld	hl,(_curr_time)
1046  0063  22 00 00    	ld	(_anim_time),hl
1047  0066  21 00 00    	ld	hl,_game_conveyor_col0
1048  0069  7E          	ld	a, (hl)
1049  006A  B7          	or	a, a
1050  006B  28 03       	jr	Z,l_game_loop_00104
1051  006D  CD A3 04    	call	_game_anim_conveyor
1052  0070              l_game_loop_00104:
1053  0070  CD E5 07    	call	_game_rotate_attrib
1054  0073  3E 64       	ld	a,0x64
1055  0075  F5          	push	af
1056  0076  33          	inc	sp
1057  0077  21 00 00    	ld	hl,_frame_time
1058  007A  E5          	push	hl
1059  007B  CD BB 07    	call	_game_check_time
1060  007E  F1          	pop	af
1061  007F  33          	inc	sp
1062  0080  7D          	ld	a, l
1063  0081  B7          	or	a, a
1064  0082  28 0F       	jr	Z,l_game_loop_00108
1065  0084  2A 00 00    	ld	hl,(_curr_time)
1066  0087  22 00 00    	ld	(_frame_time),hl
1067  008A  3A 00 00    	ld	a,(_game_fps_show)
1068  008D  B7          	or	a,a
1069  008E  28 03       	jr	Z,l_game_loop_00108
1070  0090  CD DD 00    	call	_game_fps
1071  0093              l_game_loop_00108:
1072  0093  21 00 00    	ld	hl,_loop_count
1073  0096  34          	inc	(hl)
1074  0097  20 02       	jr	NZ,l_game_loop_00166
1075  0099  23          	inc	hl
1076  009A  34          	inc	(hl)
1077  009B              l_game_loop_00166:
1078  009B  21 00 00    	ld	hl,_fps
1079  009E  34          	inc	(hl)
1080  009F  20 02       	jr	NZ,l_game_loop_00167
1081  00A1  23          	inc	hl
1082  00A2  34          	inc	(hl)
1083  00A3              l_game_loop_00167:
1084  00A3  3A 00 00    	ld	a,(_obj_count)
1085  00A6  21 00 00    	ld	hl,_player_coins
1086  00A9  96          	sub	a, (hl)
1087  00AA  20 91       	jr	NZ,l_game_loop_00112
1088  00AC  21 00 00    	ld	hl,_game_over
1089  00AF  36 01       	ld	(hl),0x01
1090  00B1  2E 00       	ld	l,0x00
1091  00B3  CD 00 00    	call	_zx_border_fastcall
1092  00B6  C3 3D 00    	jp	l_game_loop_00112
1093  00B9              l_game_loop_00114:
1094  00B9  21 00 00    	ld	hl,_game_round_up
1095  00BC  7E          	ld	a, (hl)
1096  00BD  B7          	or	a, a
1097  00BE  CA 31 00    	jp	Z, l_game_loop_00117
1098  00C1  36 00       	ld	(hl),0x00
1099  00C3  21 00 00    	ld	hl,_game_world
1100  00C6  34          	inc	(hl)
1101  00C7  21 00 00    	ld	hl,_scr_curr
1102  00CA  36 FF       	ld	(hl),0xff
1103  00CC  21 00 00    	ld	hl,_player_col_scr
1104  00CF  36 02       	ld	(hl),0x02
1105  00D1  21 00 00    	ld	hl,_player_lin_scr
1106  00D4  36 80       	ld	(hl),0x80
1107  00D6  CD 10 05    	call	_game_round_init
1108  00D9  C3 31 00    	jp	l_game_loop_00117
1109  00DC              l_game_loop_00120:
1110  00DC  C9          	ret
1111  00DD              	SECTION code_compiler
1112  00DD              ;	---------------------------------
1113  00DD              ; Function game_fps
1114  00DD              ; ---------------------------------
1115  00DD              _game_fps:
1116  00DD  21 00 00    	ld	hl,_screen_ink
1117  00E0  36 07       	ld	(hl),0x07
1118  00E2  2A 00 00    	ld	hl,(_fps)
1119  00E5  E5          	push	hl
1120  00E6  21 17 18    	ld	hl,0x1817
1121  00E9  E5          	push	hl
1122  00EA  CD 00 00    	call	_zx_print_int
1123  00ED  21 00 00    	ld	hl,0x0000
1124  00F0  22 00 00    	ld	(_fps),hl
1125  00F3  C9          	ret
1126  00F4              	SECTION code_compiler
1127  00F4              ;	---------------------------------
1128  00F4              ; Function game_draw_map
1129  00F4              ; ---------------------------------
1130  00F4              _game_draw_map:
1131  00F4  CD 00 00    	call	___sdcc_enter_ix
1132  00F7  F5          	push	af
1133  00F8  3B          	dec	sp
1134  00F9  76          	halt
1135  00FA  21 00 00    	ld	hl,_spr_count
1136  00FD  36 00       	ld	(hl),0x00
1137  00FF  CD 00 00    	call	_spr_init_effects
1138  0102              l_game_draw_map_00101:
1139  0102  21 00 00    	ld	hl,_spr_count
1140  0105  7E          	ld	a, (hl)
1141  0106  D6 07       	sub	a,0x07
1142  0108  30 24       	jr	NC,l_game_draw_map_00103
1143  010A  3E 00       	ld	a, +((_class) & 0xFF)
1144  010C  86          	add	a, (hl)
1145  010D  4F          	ld	c, a
1146  010E  3E 00       	ld	a, +((_class) / 256)
1147  0110  CE 00       	adc	a,0x00
1148  0112  47          	ld	b, a
1149  0113  AF          	xor	a, a
1150  0114  02          	ld	(bc), a
1151  0115  3E 00       	ld	a, +((_obj_col) & 0xFF)
1152  0117  86          	add	a, (hl)
1153  0118  4F          	ld	c, a
1154  0119  3E 00       	ld	a, +((_obj_col) / 256)
1155  011B  CE 00       	adc	a,0x00
1156  011D  47          	ld	b, a
1157  011E  AF          	xor	a, a
1158  011F  02          	ld	(bc), a
1159  0120  3E 00       	ld	a, +((_obj_lin) & 0xFF)
1160  0122  86          	add	a, (hl)
1161  0123  4F          	ld	c, a
1162  0124  3E 00       	ld	a, +((_obj_lin) / 256)
1163  0126  CE 00       	adc	a,0x00
1164  0128  47          	ld	b, a
1165  0129  AF          	xor	a, a
1166  012A  02          	ld	(bc), a
1167  012B  34          	inc	(hl)
1168  012C  18 D4       	jr	l_game_draw_map_00101
1169  012E              l_game_draw_map_00103:
1170  012E  21 00 00    	ld	hl,_spr_count
1171  0131  36 00       	ld	(hl),0x00
1172  0133  21 00 00    	ld	hl,0x0000
1173  0136  22 00 00    	ld	(_index1),hl
1174  0139  21 00 00    	ld	hl,_s_row1
1175  013C  36 01       	ld	(hl),0x01
1176  013E  21 00 00    	ld	hl,_s_lin1
1177  0141  36 10       	ld	(hl),0x10
1178  0143  21 00 00    	ld	hl,_s_col1
1179  0146  36 00       	ld	(hl),0x00
1180  0148  21 00 00    	ld	hl,_obj_count
1181  014B  36 00       	ld	(hl),0x00
1182  014D  CD 7A 04    	call	_game_cls
1183  0150  CD 00 00    	call	_NIRVANAP_stop
1184  0153  21 00 00    	ld	hl,_screen_ink
1185  0156  36 00       	ld	(hl),0x00
1186  0158  21 00 00    	ld	hl,_game_conveyor_lin
1187  015B  36 00       	ld	(hl),0x00
1188  015D  21 00 00    	ld	hl,_game_conveyor_col0
1189  0160  36 00       	ld	(hl),0x00
1190  0162  21 00 00    	ld	hl,_game_conveyor_col1
1191  0165  36 00       	ld	(hl),0x00
1192  0167              l_game_draw_map_00128:
1193  0167  21 01 00    	ld	hl,_index1 + 1
1194  016A  7E          	ld	a, (hl)
1195  016B  D6 02       	sub	a,0x02
1196  016D  D2 AE 03    	jp	NC, l_game_draw_map_00130
1197  0170  3E 00       	ld	a, +((_scr_map) & 0xFF)
1198  0172  2B          	dec	hl
1199  0173  86          	add	a, (hl)
1200  0174  4F          	ld	c, a
1201  0175  3E 00       	ld	a, +((_scr_map) / 256)
1202  0177  23          	inc	hl
1203  0178  8E          	adc	a, (hl)
1204  0179  47          	ld	b, a
1205  017A  0A          	ld	a, (bc)
1206  017B  DD 77 FD    	ld	(ix-3),a
1207  017E  D6 40       	sub	a,0x40
1208  0180  D2 F0 02    	jp	NC, l_game_draw_map_00124
1209  0183  DD 7E FD    	ld	a,(ix-3)
1210  0186  D6 0E       	sub	a,0x0e
1211  0188  20 1E       	jr	NZ,l_game_draw_map_00105
1212  018A  2A 00 00    	ld	hl,(_obj_count)
1213  018D  26 00       	ld	h,0x00
1214  018F  01 00 00    	ld	bc,_obj_col
1215  0192  09          	add	hl,bc
1216  0193  3A 00 00    	ld	a,(_s_col1)
1217  0196  77          	ld	(hl),a
1218  0197  2A 00 00    	ld	hl,(_obj_count)
1219  019A  26 00       	ld	h,0x00
1220  019C  01 00 00    	ld	bc,_obj_lin
1221  019F  09          	add	hl,bc
1222  01A0  3A 00 00    	ld	a,(_s_lin1)
1223  01A3  77          	ld	(hl),a
1224  01A4  21 00 00    	ld	hl,_obj_count
1225  01A7  34          	inc	(hl)
1226  01A8              l_game_draw_map_00105:
1227  01A8  3A 00 00    	ld	a,(_game_conveyor_col0)
1228  01AB  B7          	or	a, a
1229  01AC  CA 7F 02    	jp	Z, l_game_draw_map_00111
1230  01AF  3A 00 00    	ld	a,(_game_conveyor_col1)
1231  01B2  B7          	or	a, a
1232  01B3  C2 7F 02    	jp	NZ, l_game_draw_map_00111
1233  01B6  2A 00 00    	ld	hl,(_index1)
1234  01B9  01 00 00    	ld	bc,_scr_map
1235  01BC  09          	add	hl,bc
1236  01BD  7E          	ld	a,(hl)
1237  01BE  D6 0B       	sub	a,0x0b
1238  01C0  CA 7F 02    	jp	Z,l_game_draw_map_00111
1239  01C3  3A 00 00    	ld	a,(_index1)
1240  01C6  E6 1F       	and	a,0x1f
1241  01C8  32 00 00    	ld	(_game_conveyor_col1),a
1242  01CB  21 00 00    	ld	hl,_i
1243  01CE  36 00       	ld	(hl),0x00
1244  01D0              l_game_draw_map_00132:
1245  01D0  3A 00 00    	ld	a,(_game_conveyor_col1)
1246  01D3  4F          	ld	c,a
1247  01D4  06 00       	ld	b,0x00
1248  01D6  3A 00 00    	ld	a,(_game_conveyor_col0)
1249  01D9  5F          	ld	e,a
1250  01DA  16 00       	ld	d,0x00
1251  01DC  79          	ld	a, c
1252  01DD  93          	sub	a, e
1253  01DE  DD 77 FE    	ld	(ix-2),a
1254  01E1  78          	ld	a, b
1255  01E2  9A          	sbc	a, d
1256  01E3  DD 77 FF    	ld	(ix-1),a
1257  01E6  21 00 00    	ld	hl,_i
1258  01E9  5E          	ld	e, (hl)
1259  01EA  16 00       	ld	d,0x00
1260  01EC  3E 00       	ld	a, +((_conv0) & 0xFF)
1261  01EE  86          	add	a, (hl)
1262  01EF  4F          	ld	c, a
1263  01F0  3E 00       	ld	a, +((_conv0) / 256)
1264  01F2  CE 00       	adc	a,0x00
1265  01F4  47          	ld	b, a
1266  01F5  7B          	ld	a, e
1267  01F6  DD 96 FE    	sub	a,(ix-2)
1268  01F9  7A          	ld	a, d
1269  01FA  DD 9E FF    	sbc	a,(ix-1)
1270  01FD  E2 02 02    	jp	PO, l_game_draw_map_00207
1271  0200  EE 80       	xor	a,0x80
1272  0202              l_game_draw_map_00207:
1273  0202  F2 5C 02    	jp	P, l_game_draw_map_00109
1274  0205  3A 00 00    	ld	a,(_game_conveyor_dir)
1275  0208  3C          	inc	a
1276  0209  20 26       	jr	NZ,l_game_draw_map_00107
1277  020B  3E 72       	ld	a,0x72
1278  020D  02          	ld	(bc), a
1279  020E  2A 00 00    	ld	hl,(_i)
1280  0211  26 00       	ld	h,0x00
1281  0213  01 00 00    	ld	bc,_conv1
1282  0216  09          	add	hl,bc
1283  0217  36 71       	ld	(hl),0x71
1284  0219  2A 00 00    	ld	hl,(_i)
1285  021C  26 00       	ld	h,0x00
1286  021E  01 00 00    	ld	bc,_conv2
1287  0221  09          	add	hl,bc
1288  0222  36 70       	ld	(hl),0x70
1289  0224  2A 00 00    	ld	hl,(_i)
1290  0227  26 00       	ld	h,0x00
1291  0229  01 00 00    	ld	bc,_conv3
1292  022C  09          	add	hl,bc
1293  022D  36 6C       	ld	(hl),0x6c
1294  022F  18 24       	jr	l_game_draw_map_00133
1295  0231              l_game_draw_map_00107:
1296  0231  3E 6C       	ld	a,0x6c
1297  0233  02          	ld	(bc), a
1298  0234  2A 00 00    	ld	hl,(_i)
1299  0237  26 00       	ld	h,0x00
1300  0239  01 00 00    	ld	bc,_conv1
1301  023C  09          	add	hl,bc
1302  023D  36 70       	ld	(hl),0x70
1303  023F  2A 00 00    	ld	hl,(_i)
1304  0242  26 00       	ld	h,0x00
1305  0244  01 00 00    	ld	bc,_conv2
1306  0247  09          	add	hl,bc
1307  0248  36 71       	ld	(hl),0x71
1308  024A  2A 00 00    	ld	hl,(_i)
1309  024D  26 00       	ld	h,0x00
1310  024F  01 00 00    	ld	bc,_conv3
1311  0252  09          	add	hl,bc
1312  0253  36 72       	ld	(hl),0x72
1313  0255              l_game_draw_map_00133:
1314  0255  21 00 00    	ld	hl,_i
1315  0258  34          	inc	(hl)
1316  0259  C3 D0 01    	jp	l_game_draw_map_00132
1317  025C              l_game_draw_map_00109:
1318  025C  AF          	xor	a, a
1319  025D  02          	ld	(bc), a
1320  025E  2A 00 00    	ld	hl,(_i)
1321  0261  26 00       	ld	h,0x00
1322  0263  01 00 00    	ld	bc,_conv1
1323  0266  09          	add	hl,bc
1324  0267  AF          	xor	a,a
1325  0268  77          	ld	(hl),a
1326  0269  2A 00 00    	ld	hl,(_i)
1327  026C  26 00       	ld	h,0x00
1328  026E  01 00 00    	ld	bc,_conv2
1329  0271  09          	add	hl,bc
1330  0272  AF          	xor	a,a
1331  0273  77          	ld	(hl),a
1332  0274  2A 00 00    	ld	hl,(_i)
1333  0277  26 00       	ld	h,0x00
1334  0279  01 00 00    	ld	bc,_conv3
1335  027C  09          	add	hl,bc
1336  027D  AF          	xor	a,a
1337  027E  77          	ld	(hl),a
1338  027F              l_game_draw_map_00111:
1339  027F  01 00 00    	ld	bc,_scr_map
1340  0282  2A 00 00    	ld	hl,(_index1)
1341  0285  09          	add	hl,bc
1342  0286  7E          	ld	a,(hl)
1343  0287  D6 0B       	sub	a,0x0b
1344  0289  20 5F       	jr	NZ,l_game_draw_map_00120
1345  028B  3A 00 00    	ld	a,(_game_conveyor_col0)
1346  028E  B7          	or	a, a
1347  028F  20 59       	jr	NZ,l_game_draw_map_00120
1348  0291  3A 00 00    	ld	a,(_index1)
1349  0294  E6 1F       	and	a,0x1f
1350  0296  DD 77 FE    	ld	(ix-2),a
1351  0299  DD 36 FF 00 	ld	(ix-1),0x00
1352  029D  32 00 00    	ld	(_game_conveyor_col0),a
1353  02A0  2A 00 00    	ld	hl,(_index1)
1354  02A3  4D          	ld	c,l
1355  02A4  5C          	ld	e,h
1356  02A5  06 05       	ld	b,0x05
1357  02A7  79          	ld	a,c
1358  02A8              l_game_draw_map_00212:
1359  02A8  CB 3B       	srl	e
1360  02AA  1F          	rra
1361  02AB  10 FB       	djnz	l_game_draw_map_00212
1362  02AD  DD 77 FE    	ld	(ix-2),a
1363  02B0  3C          	inc	a
1364  02B1  32 00 00    	ld	(_game_conveyor_lin),a
1365  02B4  21 00 00    	ld	hl,_index1
1366  02B7  7E          	ld	a, (hl)
1367  02B8  C6 01       	add	a,0x01
1368  02BA  DD 77 FE    	ld	(ix-2),a
1369  02BD  23          	inc	hl
1370  02BE  7E          	ld	a, (hl)
1371  02BF  CE 00       	adc	a,0x00
1372  02C1  DD 6E FE    	ld	l,(ix-2)
1373  02C4  DD 77 FF    	ld	(ix-1),a
1374  02C7  67          	ld	h,a
1375  02C8  01 00 00    	ld	bc,_scr_map
1376  02CB  09          	add	hl,bc
1377  02CC  DD 75 FE    	ld	(ix-2),l
1378  02CF  DD 74 FF    	ld	(ix-1),h
1379  02D2  7E          	ld	a,(hl)
1380  02D3  B7          	or	a,a
1381  02D4  28 07       	jr	Z,l_game_draw_map_00115
1382  02D6  21 00 00    	ld	hl,_game_conveyor_dir
1383  02D9  36 FF       	ld	(hl),0xff
1384  02DB  18 05       	jr	l_game_draw_map_00116
1385  02DD              l_game_draw_map_00115:
1386  02DD  21 00 00    	ld	hl,_game_conveyor_dir
1387  02E0  36 01       	ld	(hl),0x01
1388  02E2              l_game_draw_map_00116:
1389  02E2  DD 6E FE    	ld	l,(ix-2)
1390  02E5  DD 66 FF    	ld	h,(ix-1)
1391  02E8  36 0B       	ld	(hl),0x0b
1392  02EA              l_game_draw_map_00120:
1393  02EA  CD E9 03    	call	_game_cell_paint
1394  02ED  C3 87 03    	jp	l_game_draw_map_00125
1395  02F0              l_game_draw_map_00124:
1396  02F0  DD 7E FD    	ld	a,(ix-3)
1397  02F3  D6 40       	sub	a,0x40
1398  02F5  C2 87 03    	jp	NZ,l_game_draw_map_00125
1399  02F8  21 00 00    	ld	hl,_index1
1400  02FB  7E          	ld	a, (hl)
1401  02FC  E6 1F       	and	a,0x1f
1402  02FE  4F          	ld	c, a
1403  02FF  23          	inc	hl
1404  0300  56          	ld	d,(hl)
1405  0301  2B          	dec	hl
1406  0302  7E          	ld	a, (hl)
1407  0303  06 05       	ld	b,0x05
1408  0305              l_game_draw_map_00215:
1409  0305  CB 3A       	srl	d
1410  0307  1F          	rra
1411  0308  10 FB       	djnz	l_game_draw_map_00215
1412  030A  07          	rlca
1413  030B  07          	rlca
1414  030C  07          	rlca
1415  030D  E6 F8       	and	a,0xf8
1416  030F  47          	ld	b, a
1417  0310  21 01 01    	ld	hl,0x0101
1418  0313  E5          	push	hl
1419  0314  79          	ld	a, c
1420  0315  48          	ld	c,b
1421  0316  47          	ld	b,a
1422  0317  C5          	push	bc
1423  0318  CD 00 00    	call	_enemy_init
1424  031B  F1          	pop	af
1425  031C  F1          	pop	af
1426  031D  2A 00 00    	ld	hl,(_sprite)
1427  0320  26 00       	ld	h,0x00
1428  0322  01 00 00    	ld	bc,_value_a
1429  0325  09          	add	hl,bc
1430  0326  4D          	ld	c,l
1431  0327  44          	ld	b,h
1432  0328  2A 00 00    	ld	hl,(_index1)
1433  032B  11 20 00    	ld	de,0x0020
1434  032E  19          	add	hl,de
1435  032F  11 00 00    	ld	de,_scr_map
1436  0332  19          	add	hl, de
1437  0333  7E          	ld	a, (hl)
1438  0334  02          	ld	(bc), a
1439  0335  2A 00 00    	ld	hl,(_sprite)
1440  0338  26 00       	ld	h,0x00
1441  033A  01 00 00    	ld	bc,_value_b
1442  033D  09          	add	hl,bc
1443  033E  4D          	ld	c,l
1444  033F  44          	ld	b,h
1445  0340  2A 00 00    	ld	hl,(_index1)
1446  0343  11 21 00    	ld	de,0x0021
1447  0346  19          	add	hl,de
1448  0347  11 00 00    	ld	de,_scr_map
1449  034A  19          	add	hl, de
1450  034B  7E          	ld	a, (hl)
1451  034C  02          	ld	(bc), a
1452  034D  2A 00 00    	ld	hl,(_index1)
1453  0350  01 00 00    	ld	bc,_scr_map
1454  0353  09          	add	hl,bc
1455  0354  AF          	xor	a,a
1456  0355  77          	ld	(hl),a
1457  0356  ED 4B 00 00 	ld	bc,(_index1)
1458  035A  03          	inc	bc
1459  035B  21 00 00    	ld	hl,_scr_map
1460  035E  09          	add	hl, bc
1461  035F  36 00       	ld	(hl),0x00
1462  0361  ED 4B 00 00 	ld	bc,(_index1)
1463  0365  03          	inc	bc
1464  0366  03          	inc	bc
1465  0367  21 00 00    	ld	hl,_scr_map
1466  036A  09          	add	hl, bc
1467  036B  36 00       	ld	(hl),0x00
1468  036D  2A 00 00    	ld	hl,(_index1)
1469  0370  01 20 00    	ld	bc,0x0020
1470  0373  09          	add	hl,bc
1471  0374  01 00 00    	ld	bc,_scr_map
1472  0377  09          	add	hl,bc
1473  0378  36 00       	ld	(hl),0x00
1474  037A  2A 00 00    	ld	hl,(_index1)
1475  037D  01 21 00    	ld	bc,0x0021
1476  0380  09          	add	hl,bc
1477  0381  01 00 00    	ld	bc,_scr_map
1478  0384  09          	add	hl,bc
1479  0385  36 00       	ld	(hl),0x00
1480  0387              l_game_draw_map_00125:
1481  0387  21 00 00    	ld	hl,_index1
1482  038A  34          	inc	(hl)
1483  038B  20 02       	jr	NZ,l_game_draw_map_00216
1484  038D  23          	inc	hl
1485  038E  34          	inc	(hl)
1486  038F              l_game_draw_map_00216:
1487  038F  21 00 00    	ld	hl,_s_col1
1488  0392  34          	inc	(hl)
1489  0393  3A 00 00    	ld	a,(_index1)
1490  0396  E6 1F       	and	a,0x1f
1491  0398  C2 67 01    	jp	NZ,l_game_draw_map_00128
1492  039B  21 00 00    	ld	hl,_s_row1
1493  039E  34          	inc	(hl)
1494  039F  21 00 00    	ld	hl,_s_lin1
1495  03A2  7E          	ld	a, (hl)
1496  03A3  C6 08       	add	a,0x08
1497  03A5  77          	ld	(hl), a
1498  03A6  21 00 00    	ld	hl,_s_col1
1499  03A9  36 00       	ld	(hl),0x00
1500  03AB  C3 67 01    	jp	l_game_draw_map_00128
1501  03AE              l_game_draw_map_00130:
1502  03AE  CD 00 00    	call	_NIRVANAP_start
1503  03B1  CD 00 00    	call	_game_update_stats
1504  03B4  DD F9       	ld	sp, ix
1505  03B6  DD E1       	pop	ix
1506  03B8  C9          	ret
1507  03B9              	SECTION code_compiler
1508  03B9              ;	---------------------------------
1509  03B9              ; Function game_cell_paint_index
1510  03B9              ; ---------------------------------
1511  03B9              _game_cell_paint_index:
1512  03B9  3A 00 00    	ld	a,(_index1)
1513  03BC  E6 1F       	and	a,0x1f
1514  03BE  32 00 00    	ld	(_s_col1),a
1515  03C1  2A 00 00    	ld	hl,(_index1)
1516  03C4  4D          	ld	c,l
1517  03C5  5C          	ld	e,h
1518  03C6  06 05       	ld	b,0x05
1519  03C8  79          	ld	a,c
1520  03C9              l_game_cell_paint_index_00103:
1521  03C9  CB 3B       	srl	e
1522  03CB  1F          	rra
1523  03CC  10 FB       	djnz	l_game_cell_paint_index_00103
1524  03CE  07          	rlca
1525  03CF  07          	rlca
1526  03D0  07          	rlca
1527  03D1  E6 F8       	and	a,0xf8
1528  03D3  32 00 00    	ld	(_s_lin1),a
1529  03D6  0F          	rrca
1530  03D7  0F          	rrca
1531  03D8  0F          	rrca
1532  03D9  E6 1F       	and	a,0x1f
1533  03DB  3C          	inc	a
1534  03DC  32 00 00    	ld	(_s_row1),a
1535  03DF  21 00 00    	ld	hl,_s_lin1
1536  03E2  7E          	ld	a, (hl)
1537  03E3  C6 10       	add	a,0x10
1538  03E5  77          	ld	(hl), a
1539  03E6  C3 E9 03    	jp  _game_cell_paint
1540  03E9              	SECTION code_compiler
1541  03E9              ;	---------------------------------
1542  03E9              ; Function game_cell_paint
1543  03E9              ; ---------------------------------
1544  03E9              _game_cell_paint:
1545  03E9  3A 00 00    	ld	a,(_s_row1)
1546  03EC  07          	rlca
1547  03ED  07          	rlca
1548  03EE  07          	rlca
1549  03EF  E6 F8       	and	a,0xf8
1550  03F1  57          	ld	d, a
1551  03F2  01 00 00    	ld	bc,_scr_map
1552  03F5  2A 00 00    	ld	hl,(_index1)
1553  03F8  09          	add	hl,bc
1554  03F9  4D          	ld	c,l
1555  03FA  46          	ld	b, (hl)
1556  03FB  3A 00 00    	ld	a,(_s_col1)
1557  03FE  5A          	ld	e,d
1558  03FF  57          	ld	d,a
1559  0400  D5          	push	de
1560  0401  C5          	push	bc
1561  0402  33          	inc	sp
1562  0403  CD 00 00    	call	_game_sprite_draw8
1563  0406  F1          	pop	af
1564  0407  33          	inc	sp
1565  0408  C9          	ret
1566  0409              	SECTION code_compiler
1567  0409              ;	---------------------------------
1568  0409              ; Function game_end is a stub
1569  0409              ; ---------------------------------
1570  0409              EXTERN l_ret
1571  0409              defc _game_end = l_ret
1572  0409              	SECTION code_compiler
1573  0409              ;	---------------------------------
1574  0409              ; Function game_add_enemy
1575  0409              ; ---------------------------------
1576  0409              _game_add_enemy:
1577  0409  4D          	ld	c, l
1578  040A  21 00 00    	ld	hl,_tmp0
1579  040D  36 00       	ld	(hl),0x00
1580  040F              l_game_add_enemy_00104:
1581  040F  3E 08       	ld	a,0x08
1582  0411  21 00 00    	ld	hl,_tmp0
1583  0414  96          	sub	a, (hl)
1584  0415  38 48       	jr	C,l_game_add_enemy_00107
1585  0417  7E          	ld	a, (hl)
1586  0418  5F          	ld	e, a
1587  0419  87          	add	a, a
1588  041A  83          	add	a, e
1589  041B  21 00 00    	ld	hl,_tmp1
1590  041E  77          	ld	(hl), a
1591  041F  C6 00       	add	a,+((_spr_init) & 0xFF)
1592  0421  5F          	ld	e, a
1593  0422  3E 00       	ld	a, +((_spr_init) / 256)
1594  0424  CE 00       	adc	a,0x00
1595  0426  57          	ld	d, a
1596  0427  1A          	ld	a, (de)
1597  0428  91          	sub	a, c
1598  0429  20 2E       	jr	NZ,l_game_add_enemy_00102
1599  042B  6E          	ld	l,(hl)
1600  042C  26 00       	ld	h,0x00
1601  042E  5D          	ld	e,l
1602  042F  54          	ld	d,h
1603  0430  23          	inc	hl
1604  0431  23          	inc	hl
1605  0432  3E 00       	ld	a, +((_spr_init) & 0xFF)
1606  0434  85          	add	a, l
1607  0435  6F          	ld	l, a
1608  0436  3E 00       	ld	a, +((_spr_init) / 256)
1609  0438  8C          	adc	a, h
1610  0439  67          	ld	h, a
1611  043A  46          	ld	b, (hl)
1612  043B  13          	inc	de
1613  043C  21 00 00    	ld	hl,_spr_init
1614  043F  19          	add	hl, de
1615  0440  7E          	ld	a, (hl)
1616  0441  C5          	push	bc
1617  0442  4F          	ld	c,a
1618  0443  C5          	push	bc
1619  0444  2A FF FF    	ld	hl,(_s_col1 - 1)
1620  0447  3A 00 00    	ld	a,(_s_lin1)
1621  044A  6F          	ld	l,a
1622  044B  E5          	push	hl
1623  044C  CD 00 00    	call	_enemy_init
1624  044F  F1          	pop	af
1625  0450  F1          	pop	af
1626  0451  C1          	pop	bc
1627  0452  21 00 00    	ld	hl,_tmp0
1628  0455  36 FF       	ld	(hl),0xff
1629  0457  18 B6       	jr	l_game_add_enemy_00104
1630  0459              l_game_add_enemy_00102:
1631  0459  21 00 00    	ld	hl,_tmp0
1632  045C  34          	inc	(hl)
1633  045D  18 B0       	jr	l_game_add_enemy_00104
1634  045F              l_game_add_enemy_00107:
1635  045F  C9          	ret
1636  0460              	SECTION code_compiler
1637  0460              ;	---------------------------------
1638  0460              ; Function game_print_footer
1639  0460              ; ---------------------------------
1640  0460              _game_print_footer:
1641  0460  3A 00 00    	ld	a,(_game_fps_show)
1642  0463  B7          	or	a, a
1643  0464  28 10       	jr	Z,l_game_print_footer_00102
1644  0466  21 00 00    	ld	hl,_screen_ink
1645  0469  36 07       	ld	(hl),0x07
1646  046B  21 00 00    	ld	hl,___str_0
1647  046E  E5          	push	hl
1648  046F  21 17 14    	ld	hl,0x1417
1649  0472  E5          	push	hl
1650  0473  CD 00 00    	call	_zx_print_str
1651  0476              l_game_print_footer_00102:
1652  0476  CD 00 00    	call	_game_update_stats
1653  0479  C9          	ret
1654  047A              	SECTION rodata_compiler
1655  0000              ___str_0:
1656  0000  4C 50 53 3A 	DEFM "LPS:"
1657  0004  00          	DEFB 0x00
1658  0005              	SECTION code_compiler
1659  047A              ;	---------------------------------
1660  047A              ; Function game_print_score is a stub
1661  047A              ; ---------------------------------
1662  047A              EXTERN l_ret
1663  047A              defc _game_print_score = l_ret
1664  047A              	SECTION code_compiler
1665  047A              ;	---------------------------------
1666  047A              ; Function game_cls
1667  047A              ; ---------------------------------
1668  047A              _game_cls:
1669  047A  CD 00 00    	call	_NIRVANAP_stop
1670  047D  2E 00       	ld	l,0x00
1671  047F  CD 00 00    	call	_zx_cls_fastcall
1672  0482  21 00 00    	ld	hl,_screen_ink
1673  0485  36 07       	ld	(hl),0x07
1674  0487  C3 00 00    	jp  _NIRVANAP_start
1675  048A              	SECTION code_compiler
1676  048A              ;	---------------------------------
1677  048A              ; Function game_update_stats is a stub
1678  048A              ; ---------------------------------
1679  048A              EXTERN l_ret
1680  048A              defc _game_update_stats = l_ret
1681  048A              	SECTION code_compiler
1682  048A              ;	---------------------------------
1683  048A              ; Function game_tick
1684  048A              ; ---------------------------------
1685  048A              _game_tick:
1686  048A  21 00 00    	ld	hl,_curr_time
1687  048D  34          	inc	(hl)
1688  048E  C2 00 00    	jp	NZ,_zx_isr
1689  0491  23          	inc	hl
1690  0492  34          	inc	(hl)
1691  0493  C3 00 00    	jp  _zx_isr
1692  0496              	SECTION code_compiler
1693  0496              ;	---------------------------------
1694  0496              ; Function game_start_timer
1695  0496              ; ---------------------------------
1696  0496              _game_start_timer:
1697  0496  21 00 00    	ld	hl,_NIRVANAP_ISR_HOOK+0
1698  0499  36 CD       	ld	(hl),0xcd
1699  049B  23          	inc	hl
1700  049C  11 8A 04    	ld	de,_game_tick
1701  049F  73          	ld	(hl), e
1702  04A0  23          	inc	hl
1703  04A1  72          	ld	(hl), d
1704  04A2  C9          	ret
1705  04A3              	SECTION code_compiler
1706  04A3              ;	---------------------------------
1707  04A3              ; Function game_anim_conveyor
1708  04A3              ; ---------------------------------
1709  04A3              _game_anim_conveyor:
1710  04A3  3A 00 00    	ld	a,(_game_conveyor_flag)
1711  04A6  B7          	or	a, a
1712  04A7  28 10       	jr	Z,l_game_anim_conveyor_00101
1713  04A9  3D          	dec	a
1714  04AA  28 23       	jr	Z,l_game_anim_conveyor_00102
1715  04AC  3A 00 00    	ld	a,(_game_conveyor_flag)
1716  04AF  FE 02       	cp	a,0x02
1717  04B1  28 32       	jr	Z,l_game_anim_conveyor_00103
1718  04B3  D6 03       	sub	a,0x03
1719  04B5  28 44       	jr	Z,l_game_anim_conveyor_00104
1720  04B7  18 56       	jr	l_game_anim_conveyor_00106
1721  04B9              l_game_anim_conveyor_00101:
1722  04B9  3A 00 00    	ld	a,(_game_conveyor_col0)
1723  04BC  21 00 00    	ld	hl,_conv0
1724  04BF  E5          	push	hl
1725  04C0  2A 00 00    	ld	hl,(_game_conveyor_lin)
1726  04C3  67          	ld	h,a
1727  04C4  E5          	push	hl
1728  04C5  CD 00 00    	call	_zx_print_str
1729  04C8  21 00 00    	ld	hl,_game_conveyor_flag
1730  04CB  36 01       	ld	(hl),0x01
1731  04CD  18 40       	jr	l_game_anim_conveyor_00106
1732  04CF              l_game_anim_conveyor_00102:
1733  04CF  3A 00 00    	ld	a,(_game_conveyor_col0)
1734  04D2  21 00 00    	ld	hl,_conv1
1735  04D5  E5          	push	hl
1736  04D6  2A 00 00    	ld	hl,(_game_conveyor_lin)
1737  04D9  67          	ld	h,a
1738  04DA  E5          	push	hl
1739  04DB  CD 00 00    	call	_zx_print_str
1740  04DE  21 00 00    	ld	hl,_game_conveyor_flag
1741  04E1  36 02       	ld	(hl),0x02
1742  04E3  18 2A       	jr	l_game_anim_conveyor_00106
1743  04E5              l_game_anim_conveyor_00103:
1744  04E5  3A 00 00    	ld	a,(_game_conveyor_col0)
1745  04E8  21 00 00    	ld	hl,_conv2
1746  04EB  E5          	push	hl
1747  04EC  2A 00 00    	ld	hl,(_game_conveyor_lin)
1748  04EF  67          	ld	h,a
1749  04F0  E5          	push	hl
1750  04F1  CD 00 00    	call	_zx_print_str
1751  04F4  21 00 00    	ld	hl,_game_conveyor_flag
1752  04F7  36 03       	ld	(hl),0x03
1753  04F9  18 14       	jr	l_game_anim_conveyor_00106
1754  04FB              l_game_anim_conveyor_00104:
1755  04FB  3A 00 00    	ld	a,(_game_conveyor_col0)
1756  04FE  21 00 00    	ld	hl,_conv3
1757  0501  E5          	push	hl
1758  0502  2A 00 00    	ld	hl,(_game_conveyor_lin)
1759  0505  67          	ld	h,a
1760  0506  E5          	push	hl
1761  0507  CD 00 00    	call	_zx_print_str
1762  050A  21 00 00    	ld	hl,_game_conveyor_flag
1763  050D  36 00       	ld	(hl),0x00
1764  050F              l_game_anim_conveyor_00106:
1765  050F  C9          	ret
1766  0510              	SECTION code_compiler
1767  0510              ;	---------------------------------
1768  0510              ; Function game_round_init
1769  0510              ; ---------------------------------
1770  0510              _game_round_init:
1771  0510  21 00 00    	ld	hl,0x0000
1772  0513  22 00 00    	ld	(_loop_count),hl
1773  0516  21 00 00    	ld	hl,0
1774  0519  22 00 00    	ld	(_curr_time),hl
1775  051C  21 00 00    	ld	hl,0x0000
1776  051F  22 00 00    	ld	(_frame_time),hl
1777  0522  21 00 00    	ld	hl,_player_coins
1778  0525  36 00       	ld	(hl),0x00
1779  0527  21 00 00    	ld	hl,_game_conveyor_flag
1780  052A  36 00       	ld	(hl),0x00
1781  052C  CD 00 00    	call	_spr_init_effects
1782  052F  CD 00 00    	call	_game_print_header
1783  0532  CD 60 04    	call	_game_print_footer
1784  0535  CD FD 09    	call	_game_page_map
1785  0538  CD 00 00    	call	_ay_reset
1786  053B  CD F4 00    	call	_game_draw_map
1787  053E  21 20 90    	ld	hl,0x9020
1788  0541  E5          	push	hl
1789  0542  AF          	xor	a, a
1790  0543  F5          	push	af
1791  0544  33          	inc	sp
1792  0545  21 00 00    	ld	hl,_attrib_hl
1793  0548  E5          	push	hl
1794  0549  CD 50 06    	call	_game_paint_attrib
1795  054C  F1          	pop	af
1796  054D  33          	inc	sp
1797  054E  21 05 00    	ld	hl,___str_1
1798  0551  E3          	ex	(sp),hl
1799  0552  21 11 09    	ld	hl,0x0911
1800  0555  E5          	push	hl
1801  0556  CD 00 00    	call	_zx_print_str
1802  0559  21 0A 98    	ld	hl,0x980a
1803  055C  E5          	push	hl
1804  055D  AF          	xor	a, a
1805  055E  F5          	push	af
1806  055F  33          	inc	sp
1807  0560  21 00 00    	ld	hl,_attrib_red
1808  0563  E5          	push	hl
1809  0564  CD 50 06    	call	_game_paint_attrib
1810  0567  F1          	pop	af
1811  0568  33          	inc	sp
1812  0569  21 20 98    	ld	hl,0x9820
1813  056C  E3          	ex	(sp),hl
1814  056D  3E 0A       	ld	a,0x0a
1815  056F  F5          	push	af
1816  0570  33          	inc	sp
1817  0571  21 00 00    	ld	hl,_attrib_osd
1818  0574  E5          	push	hl
1819  0575  CD 50 06    	call	_game_paint_attrib
1820  0578  F1          	pop	af
1821  0579  33          	inc	sp
1822  057A  21 14 00    	ld	hl,___str_2
1823  057D  E3          	ex	(sp),hl
1824  057E  21 12 00    	ld	hl,0x0012
1825  0581  E5          	push	hl
1826  0582  CD 00 00    	call	_zx_print_str
1827  0585  21 00 00    	ld	hl,_screen_ink
1828  0588  36 06       	ld	(hl),0x06
1829  058A  21 35 00    	ld	hl,___str_3
1830  058D  E5          	push	hl
1831  058E  21 14 00    	ld	hl,0x0014
1832  0591  E5          	push	hl
1833  0592  CD 00 00    	call	_zx_print_str
1834  0595  21 00 00    	ld	hl,_game_song_play_start
1835  0598  36 00       	ld	(hl),0x00
1836  059A  3A 00 00    	ld	a,(_game_over)
1837  059D  B7          	or	a, a
1838  059E  20 10       	jr	NZ,l_game_round_init_00102
1839  05A0  2A 00 00    	ld	hl,(_player_col_scr)
1840  05A3  26 60       	ld	h,0x60
1841  05A5  3A 00 00    	ld	a,(_player_lin_scr)
1842  05A8  E5          	push	hl
1843  05A9  F5          	push	af
1844  05AA  33          	inc	sp
1845  05AB  CD 00 00    	call	_player_init
1846  05AE  F1          	pop	af
1847  05AF  33          	inc	sp
1848  05B0              l_game_round_init_00102:
1849  05B0  CD 00 00    	call	_game_update_stats
1850  05B3  3A 00 00    	ld	a,(_game_debug)
1851  05B6  B7          	or	a, a
1852  05B7  20 3B       	jr	NZ,l_game_round_init_00104
1853  05B9  21 56 00    	ld	hl,___str_4
1854  05BC  E5          	push	hl
1855  05BD  21 0C 06    	ld	hl,0x060c
1856  05C0  E5          	push	hl
1857  05C1  CD 00 00    	call	_zx_print_str
1858  05C4  21 00 00    	ld	hl,_tmp0
1859  05C7  36 0B       	ld	(hl),0x0b
1860  05C9  21 11 68    	ld	hl,0x6811
1861  05CC  E5          	push	hl
1862  05CD  3E 06       	ld	a,0x06
1863  05CF  F5          	push	af
1864  05D0  33          	inc	sp
1865  05D1  21 00 00    	ld	hl,_attrib_osd
1866  05D4  E5          	push	hl
1867  05D5  CD 50 06    	call	_game_paint_attrib
1868  05D8  F1          	pop	af
1869  05D9  F1          	pop	af
1870  05DA  33          	inc	sp
1871  05DB  3A 00 00    	ld	a,(_tmp0)
1872  05DE  C6 06       	add	a,0x06
1873  05E0  47          	ld	b, a
1874  05E1  AF          	xor	a, a
1875  05E2  F5          	push	af
1876  05E3  33          	inc	sp
1877  05E4  21 C8 00    	ld	hl,0x00c8
1878  05E7  E5          	push	hl
1879  05E8  C5          	push	bc
1880  05E9  33          	inc	sp
1881  05EA  21 0C 06    	ld	hl,0x060c
1882  05ED  E5          	push	hl
1883  05EE  CD 7A 06    	call	_game_colour_message
1884  05F1  F1          	pop	af
1885  05F2  F1          	pop	af
1886  05F3  F1          	pop	af
1887  05F4              l_game_round_init_00104:
1888  05F4  CD 00 00    	call	_audio_ingame
1889  05F7  CD 00 00    	call	_spr_btile_paint_back
1890  05FA  21 00 00    	ld	hl,_screen_ink
1891  05FD  36 12       	ld	(hl),0x12
1892  05FF  21 62 00    	ld	hl,___str_5
1893  0602  E5          	push	hl
1894  0603  21 00 00    	ld	hl,0x0000
1895  0606  E5          	push	hl
1896  0607  CD 00 00    	call	_zx_print_str
1897  060A  2E 02       	ld	l,0x02
1898  060C  CD 00 00    	call	_zx_border_fastcall
1899  060F  21 00 00    	ld	hl,_screen_ink
1900  0612  36 07       	ld	(hl),0x07
1901  0614  C9          	ret
1902  0615              	SECTION rodata_compiler
1903  0005              ___str_1:
1904  0005  43 45 4E 54 52 41 4C 20 43 41 56 45 52 4E 
                        	DEFM "CENTRAL CAVERN"
1905  0013  00          	DEFB 0x00
1906  0014              	SECTION rodata_compiler
1907  0014              ___str_2:
1908  0014  41 49 52 20 2D 2D 2D 2D 2D 2D 2D 2D 2D 2D 2D 2D 2D 2D 2D 2D 2D 2D 2D 2D 2D 2D 2D 2D 2D 2D 2D 2D 
                        	DEFM "AIR ----------------------------"
1909  0034  00          	DEFB 0x00
1910  0035              	SECTION rodata_compiler
1911  0035              ___str_3:
1912  0035  48 49 47 48 20 53 43 4F 52 45 20 30 30 30 30 30 30 20 20 20 53 43 4F 52 45 20 30 30 30 30 30 30 
                        	DEFM "HIGH SCORE 000000   SCORE 000000"
1913  0055  00          	DEFB 0x00
1914  0056              	SECTION rodata_compiler
1915  0056              ___str_4:
1916  0056  52 4F 55 4E 44 20 53 54 41 52 54 
                        	DEFM "ROUND START"
1917  0061  00          	DEFB 0x00
1918  0062              	SECTION rodata_compiler
1919  0062              ___str_5:
1920  0062  20 20 20 20 20 20 20 20 20 20 20 20 20 20 20 20 20 20 20 20 20 20 20 20 20 20 20 20 20 20 20 20 
                        	DEFM "                                "
1921  0082  00          	DEFB 0x00
1922  0083              	SECTION code_compiler
1923  0615              ;	---------------------------------
1924  0615              ; Function game_print_header
1925  0615              ; ---------------------------------
1926  0615              	defc _game_print_header	=	_game_print_score
1927  0615              	SECTION code_compiler
1928  0615              ;	---------------------------------
1929  0615              ; Function game_check_map
1930  0615              ; ---------------------------------
1931  0615              _game_check_map:
1932  0615  CD 00 00    	call	___sdcc_enter_ix
1933  0618  DD 66 05    	ld	h,(ix+5)
1934  061B  DD 6E 04    	ld	l,(ix+4)
1935  061E  E5          	push	hl
1936  061F  CD 00 00    	call	_spr_calc_index
1937  0622  F1          	pop	af
1938  0623  22 00 00    	ld	(_index1),hl
1939  0626  21 00 00    	ld	hl,_index1
1940  0629  DD E1       	pop	ix
1941  062B  C3 2E 06    	jp	_game_check_cell
1942  062E              	SECTION code_compiler
1943  062E              ;	---------------------------------
1944  062E              ; Function game_check_cell
1945  062E              ; ---------------------------------
1946  062E              _game_check_cell:
1947  062E  4E          	ld	c, (hl)
1948  062F  23          	inc	hl
1949  0630  46          	ld	b, (hl)
1950  0631  AF          	xor	a, a
1951  0632  B9          	cp	a, c
1952  0633  3E 02       	ld	a,0x02
1953  0635  98          	sbc	a, b
1954  0636  30 04       	jr	NC,l_game_check_cell_00102
1955  0638  2E 01       	ld	l,0x01
1956  063A  18 13       	jr	l_game_check_cell_00106
1957  063C              l_game_check_cell_00102:
1958  063C  21 00 00    	ld	hl,_scr_map
1959  063F  09          	add	hl, bc
1960  0640  5E          	ld	e, (hl)
1961  0641  ED 43 00 00 	ld	(_index1),bc
1962  0645  7B          	ld	a,e
1963  0646  D6 0A       	sub	a,0x0a
1964  0648  28 04       	jr	Z,l_game_check_cell_00104
1965  064A  2E 00       	ld	l,0x00
1966  064C  18 01       	jr	l_game_check_cell_00106
1967  064E              l_game_check_cell_00104:
1968  064E  6B          	ld	l, e
1969  064F              l_game_check_cell_00106:
1970  064F  C9          	ret
1971  0650              	SECTION code_compiler
1972  0650              ;	---------------------------------
1973  0650              ; Function game_paint_attrib
1974  0650              ; ---------------------------------
1975  0650              _game_paint_attrib:
1976  0650  CD 00 00    	call	___sdcc_enter_ix
1977  0653  DD 7E 06    	ld	a,(ix+6)
1978  0656  32 00 00    	ld	(_tmp_uc),a
1979  0659              l_game_paint_attrib_00103:
1980  0659  21 00 00    	ld	hl,_tmp_uc
1981  065C  7E          	ld	a, (hl)
1982  065D  DD 96 07    	sub	a,(ix+7)
1983  0660  30 15       	jr	NC,l_game_paint_attrib_00105
1984  0662  DD 4E 04    	ld	c,(ix+4)
1985  0665  DD 46 05    	ld	b,(ix+5)
1986  0668  66          	ld	h,(hl)
1987  0669  DD 6E 08    	ld	l,(ix+8)
1988  066C  E5          	push	hl
1989  066D  C5          	push	bc
1990  066E  CD 00 00    	call	_NIRVANAP_paintC_callee
1991  0671  21 00 00    	ld	hl,_tmp_uc
1992  0674  34          	inc	(hl)
1993  0675  18 E2       	jr	l_game_paint_attrib_00103
1994  0677              l_game_paint_attrib_00105:
1995  0677  DD E1       	pop	ix
1996  0679  C9          	ret
1997  067A              	SECTION code_compiler
1998  067A              ;	---------------------------------
1999  067A              ; Function game_colour_message
2000  067A              ; ---------------------------------
2001  067A              _game_colour_message:
2002  067A  CD 00 00    	call	___sdcc_enter_ix
2003  067D  F5          	push	af
2004  067E  F5          	push	af
2005  067F  F5          	push	af
2006  0680  F5          	push	af
2007  0681  D1          	pop	de
2008  0682  21 00 00    	ld	hl,_tmp
2009  0685  36 01       	ld	(hl),0x01
2010  0687  2A 00 00    	ld	hl,(_curr_time)
2011  068A  22 00 00    	ld	(_frame_time),hl
2012  068D  E5          	push	hl
2013  068E  DD 7E 04    	ld	a,(ix+4)
2014  0691  4D          	ld	c,l
2015  0692  07          	rlca
2016  0693  07          	rlca
2017  0694  07          	rlca
2018  0695  E6 F8       	and	a,0xf8
2019  0697  DD 77 FF    	ld	(ix-1),a
2020  069A  C6 08       	add	a,0x08
2021  069C  DD 77 FE    	ld	(ix-2),a
2022  069F  DD 77 FD    	ld	(ix-3),a
2023  06A2              l_game_colour_message_00112:
2024  06A2  3A 00 00    	ld	a,(_tmp)
2025  06A5  B7          	or	a, a
2026  06A6  CA 45 07    	jp	Z, l_game_colour_message_00114
2027  06A9  DD 46 07    	ld	b,(ix+7)
2028  06AC  21 00 00    	ld	hl,0x0000
2029  06AF  39          	add	hl, sp
2030  06B0  EB          	ex	de,hl
2031  06B1  C5          	push	bc
2032  06B2  33          	inc	sp
2033  06B3  D5          	push	de
2034  06B4  CD BB 07    	call	_game_check_time
2035  06B7  F1          	pop	af
2036  06B8  33          	inc	sp
2037  06B9  7D          	ld	a, l
2038  06BA  B7          	or	a, a
2039  06BB  C2 45 07    	jp	NZ, l_game_colour_message_00114
2040  06BE  3E 05       	ld	a,0x05
2041  06C0  F5          	push	af
2042  06C1  33          	inc	sp
2043  06C2  21 00 00    	ld	hl,_frame_time
2044  06C5  E5          	push	hl
2045  06C6  CD BB 07    	call	_game_check_time
2046  06C9  F1          	pop	af
2047  06CA  33          	inc	sp
2048  06CB  DD 75 FC    	ld	(ix-4),l
2049  06CE  7D          	ld	a, l
2050  06CF  B7          	or	a, a
2051  06D0  28 4D       	jr	Z,l_game_colour_message_00105
2052  06D2  2A 00 00    	ld	hl,(_curr_time)
2053  06D5  DD 74 FB    	ld	(ix-5),h
2054  06D8  DD 75 FA    	ld	(ix-6),l
2055  06DB  7D          	ld	a, l
2056  06DC  21 00 00    	ld	hl,_frame_time
2057  06DF  77          	ld	(hl), a
2058  06E0  DD 7E FB    	ld	a,(ix-5)
2059  06E3  23          	inc	hl
2060  06E4  77          	ld	(hl), a
2061  06E5  3A 00 00    	ld	a,(_game_over)
2062  06E8  B7          	or	a, a
2063  06E9  28 1B       	jr	Z,l_game_colour_message_00102
2064  06EB  DD 66 FD    	ld	h,(ix-3)
2065  06EE  DD 6E 06    	ld	l,(ix+6)
2066  06F1  E5          	push	hl
2067  06F2  DD 7E 05    	ld	a,(ix+5)
2068  06F5  F5          	push	af
2069  06F6  33          	inc	sp
2070  06F7  21 00 00    	ld	hl,_attrib_hl
2071  06FA  E5          	push	hl
2072  06FB  CD 50 06    	call	_game_paint_attrib
2073  06FE  F1          	pop	af
2074  06FF  F1          	pop	af
2075  0700  33          	inc	sp
2076  0701  CD E5 07    	call	_game_rotate_attrib
2077  0704  18 19       	jr	l_game_colour_message_00105
2078  0706              l_game_colour_message_00102:
2079  0706  DD 66 FE    	ld	h,(ix-2)
2080  0709  DD 6E 06    	ld	l,(ix+6)
2081  070C  E5          	push	hl
2082  070D  DD 7E 05    	ld	a,(ix+5)
2083  0710  F5          	push	af
2084  0711  33          	inc	sp
2085  0712  21 00 00    	ld	hl,_attrib_osd
2086  0715  E5          	push	hl
2087  0716  CD 50 06    	call	_game_paint_attrib
2088  0719  F1          	pop	af
2089  071A  F1          	pop	af
2090  071B  33          	inc	sp
2091  071C  CD 55 08    	call	_game_rotate_attrib_osd
2092  071F              l_game_colour_message_00105:
2093  071F  DD 7E 09    	ld	a,(ix+9)
2094  0722  B7          	or	a, a
2095  0723  CA A2 06    	jp	Z, l_game_colour_message_00112
2096  0726              l_game_colour_message_00106:
2097  0726  21 00 00    	ld	hl,_k1
2098  0729  E5          	push	hl
2099  072A  2A 00 00    	ld	hl,(_joyfunc1)
2100  072D  CD 00 00    	call	___sdcc_call_hl
2101  0730  F1          	pop	af
2102  0731  DD 74 FB    	ld	(ix-5),h
2103  0734  DD 75 FA    	ld	(ix-6),l
2104  0737  7C          	ld	a,h
2105  0738  DD B6 FA    	or	a,(ix-6)
2106  073B  CA A2 06    	jp	Z, l_game_colour_message_00112
2107  073E  21 00 00    	ld	hl,_tmp
2108  0741  36 00       	ld	(hl),0x00
2109  0743  18 E1       	jr	l_game_colour_message_00106
2110  0745              l_game_colour_message_00114:
2111  0745  DD 7E 06    	ld	a,(ix+6)
2112  0748  DD 96 05    	sub	a,(ix+5)
2113  074B  4F          	ld	c, a
2114  074C  3A 00 00    	ld	a,(_game_over)
2115  074F  B7          	or	a, a
2116  0750  28 2F       	jr	Z,l_game_colour_message_00118
2117  0752  21 00 00    	ld	hl,_tmp1
2118  0755  71          	ld	(hl), c
2119  0756  21 00 00    	ld	hl,_tmp0
2120  0759  36 00       	ld	(hl),0x00
2121  075B              l_game_colour_message_00121:
2122  075B  3A 00 00    	ld	a,(_tmp0)
2123  075E  21 00 00    	ld	hl,_tmp1
2124  0761  96          	sub	a, (hl)
2125  0762  30 52       	jr	NC,l_game_colour_message_00126
2126  0764  DD 7E 05    	ld	a,(ix+5)
2127  0767  21 00 00    	ld	hl,_tmp0
2128  076A  86          	add	a, (hl)
2129  076B  4F          	ld	c, a
2130  076C  21 83 00    	ld	hl,___str_6
2131  076F  E5          	push	hl
2132  0770  79          	ld	a, c
2133  0771  F5          	push	af
2134  0772  33          	inc	sp
2135  0773  DD 7E 04    	ld	a,(ix+4)
2136  0776  F5          	push	af
2137  0777  33          	inc	sp
2138  0778  CD 00 00    	call	_zx_print_str
2139  077B  21 00 00    	ld	hl,_tmp0
2140  077E  34          	inc	(hl)
2141  077F  18 DA       	jr	l_game_colour_message_00121
2142  0781              l_game_colour_message_00118:
2143  0781  21 00 00    	ld	hl,_tmp1
2144  0784  71          	ld	(hl), c
2145  0785  DD 7E FF    	ld	a,(ix-1)
2146  0788  32 00 00    	ld	(_s_lin0),a
2147  078B  DD 7E 05    	ld	a,(ix+5)
2148  078E  CB 3F       	srl	a
2149  0790  87          	add	a, a
2150  0791  32 00 00    	ld	(_s_col1),a
2151  0794  21 00 00    	ld	hl,_tmp0
2152  0797  36 00       	ld	(hl),0x00
2153  0799              l_game_colour_message_00124:
2154  0799  3A 00 00    	ld	a,(_tmp0)
2155  079C  21 00 00    	ld	hl,_tmp1
2156  079F  96          	sub	a, (hl)
2157  07A0  30 14       	jr	NC,l_game_colour_message_00126
2158  07A2  3A 00 00    	ld	a,(_s_col1)
2159  07A5  21 00 00    	ld	hl,_tmp0
2160  07A8  86          	add	a, (hl)
2161  07A9  32 00 00    	ld	(_s_col0),a
2162  07AC  CD 00 00    	call	_spr_back_repaint
2163  07AF  21 00 00    	ld	hl,_tmp0
2164  07B2  34          	inc	(hl)
2165  07B3  34          	inc	(hl)
2166  07B4  18 E3       	jr	l_game_colour_message_00124
2167  07B6              l_game_colour_message_00126:
2168  07B6  DD F9       	ld	sp, ix
2169  07B8  DD E1       	pop	ix
2170  07BA  C9          	ret
2171  07BB              	SECTION rodata_compiler
2172  0083              ___str_6:
2173  0083  20          	DEFM " "
2174  0084  00          	DEFB 0x00
2175  0085              	SECTION code_compiler
2176  07BB              ;	---------------------------------
2177  07BB              ; Function game_check_time
2178  07BB              ; ---------------------------------
2179  07BB              _game_check_time:
2180  07BB  CD 00 00    	call	___sdcc_enter_ix
2181  07BE  2A 00 00    	ld	hl,(_curr_time)
2182  07C1  4D          	ld	c, l
2183  07C2  DD 6E 04    	ld	l,(ix+4)
2184  07C5  44          	ld	b,h
2185  07C6  DD 66 05    	ld	h,(ix+5)
2186  07C9  5E          	ld	e, (hl)
2187  07CA  23          	inc	hl
2188  07CB  56          	ld	d, (hl)
2189  07CC  79          	ld	a, c
2190  07CD  93          	sub	a, e
2191  07CE  4F          	ld	c, a
2192  07CF  78          	ld	a, b
2193  07D0  9A          	sbc	a, d
2194  07D1  47          	ld	b, a
2195  07D2  DD 7E 06    	ld	a,(ix+6)
2196  07D5  16 00       	ld	d,0x00
2197  07D7  91          	sub	a, c
2198  07D8  7A          	ld	a, d
2199  07D9  98          	sbc	a, b
2200  07DA  30 04       	jr	NC,l_game_check_time_00102
2201  07DC  2E 01       	ld	l,0x01
2202  07DE  18 02       	jr	l_game_check_time_00104
2203  07E0              l_game_check_time_00102:
2204  07E0  2E 00       	ld	l,0x00
2205  07E2              l_game_check_time_00104:
2206  07E2  DD E1       	pop	ix
2207  07E4  C9          	ret
2208  07E5              	SECTION code_compiler
2209  07E5              ;	---------------------------------
2210  07E5              ; Function game_rotate_attrib
2211  07E5              ; ---------------------------------
2212  07E5              _game_rotate_attrib:
2213  07E5  3E 07       	ld	a,0x07
2214  07E7  21 00 00    	ld	hl,_last_rotated
2215  07EA  96          	sub	a, (hl)
2216  07EB  30 02       	jr	NC,l_game_rotate_attrib_00102
2217  07ED  36 00       	ld	(hl),0x00
2218  07EF              l_game_rotate_attrib_00102:
2219  07EF  3A 00 00    	ld	a,(_last_rotated)
2220  07F2  32 00 00    	ld	(_tmp_uc),a
2221  07F5              l_game_rotate_attrib_00110:
2222  07F5  21 00 00    	ld	hl,_tmp_uc
2223  07F8  7E          	ld	a, (hl)
2224  07F9  D6 08       	sub	a,0x08
2225  07FB  30 57       	jr	NC,l_game_rotate_attrib_00112
2226  07FD  3E 00       	ld	a, +((_obj_col) & 0xFF)
2227  07FF  86          	add	a, (hl)
2228  0800  4F          	ld	c, a
2229  0801  3E 00       	ld	a, +((_obj_col) / 256)
2230  0803  CE 00       	adc	a,0x00
2231  0805  47          	ld	b, a
2232  0806  0A          	ld	a, (bc)
2233  0807  4F          	ld	c,a
2234  0808  B7          	or	a, a
2235  0809  28 3F       	jr	Z,l_game_rotate_attrib_00106
2236  080B  7E          	ld	a, (hl)
2237  080C  3C          	inc	a
2238  080D  32 00 00    	ld	(_last_rotated),a
2239  0810  2A 00 00    	ld	hl,(_tmp_uc)
2240  0813  26 00       	ld	h,0x00
2241  0815  11 00 00    	ld	de,_obj_lin
2242  0818  19          	add	hl,de
2243  0819  46          	ld	b, (hl)
2244  081A  79          	ld	a, c
2245  081B  48          	ld	c,b
2246  081C  47          	ld	b,a
2247  081D  C5          	push	bc
2248  081E  21 00 00    	ld	hl,_attrib8
2249  0821  E5          	push	hl
2250  0822  CD 00 00    	call	_NIRVANAP_paintC_callee
2251  0825  3A 00 00    	ld	a,(_game_attrib_osd)
2252  0828  D6 07       	sub	a,0x07
2253  082A  20 05       	jr	NZ,l_game_rotate_attrib_00104
2254  082C  21 00 00    	ld	hl,_game_attrib_osd
2255  082F  36 01       	ld	(hl),0x01
2256  0831              l_game_rotate_attrib_00104:
2257  0831  21 00 00    	ld	hl,_game_attrib_osd
2258  0834  7E          	ld	a,(hl)
2259  0835  3C          	inc	a
2260  0836  77          	ld	(hl),a
2261  0837  32 00 00    	ld	(_attrib8),a
2262  083A  32 01 00    	ld	((_attrib8 + 0x0001)),a
2263  083D  32 02 00    	ld	((_attrib8 + 0x0002)),a
2264  0840  32 03 00    	ld	((_attrib8 + 0x0003)),a
2265  0843  21 00 00    	ld	hl,_tmp_uc
2266  0846  36 08       	ld	(hl),0x08
2267  0848  18 04       	jr	l_game_rotate_attrib_00111
2268  084A              l_game_rotate_attrib_00106:
2269  084A  21 00 00    	ld	hl,_last_rotated
2270  084D  34          	inc	(hl)
2271  084E              l_game_rotate_attrib_00111:
2272  084E  21 00 00    	ld	hl,_tmp_uc
2273  0851  34          	inc	(hl)
2274  0852  18 A1       	jr	l_game_rotate_attrib_00110
2275  0854              l_game_rotate_attrib_00112:
2276  0854  C9          	ret
2277  0855              	SECTION code_compiler
2278  0855              ;	---------------------------------
2279  0855              ; Function game_rotate_attrib_osd
2280  0855              ; ---------------------------------
2281  0855              _game_rotate_attrib_osd:
2282  0855  3A 00 00    	ld	a,(_game_attrib_osd)
2283  0858  D6 07       	sub	a,0x07
2284  085A  20 05       	jr	NZ,l_game_rotate_attrib_osd_00102
2285  085C  21 00 00    	ld	hl,_game_attrib_osd
2286  085F  36 01       	ld	(hl),0x01
2287  0861              l_game_rotate_attrib_osd_00102:
2288  0861  21 00 00    	ld	hl,_game_attrib_osd
2289  0864  7E          	ld	a,(hl)
2290  0865  3C          	inc	a
2291  0866  77          	ld	(hl),a
2292  0867  32 00 00    	ld	(_attrib_osd),a
2293  086A  32 01 00    	ld	((_attrib_osd + 0x0001)),a
2294  086D  32 02 00    	ld	((_attrib_osd + 0x0002)),a
2295  0870  32 03 00    	ld	((_attrib_osd + 0x0003)),a
2296  0873  C9          	ret
2297  0874              	SECTION code_compiler
2298  0874              ;	---------------------------------
2299  0874              ; Function game_attribs
2300  0874              ; ---------------------------------
2301  0874              _game_attribs:
2302  0874  01 00 00    	ld	bc,_attrib0+0
2303  0877  21 00 00    	ld	hl,_map_paper
2304  087A  7E          	ld	a, (hl)
2305  087B  F6 41       	or	a,0x41
2306  087D  02          	ld	(bc), a
2307  087E  59          	ld	e, c
2308  087F  50          	ld	d, b
2309  0880  13          	inc	de
2310  0881  7E          	ld	a, (hl)
2311  0882  F6 41       	or	a,0x41
2312  0884  12          	ld	(de), a
2313  0885  7E          	ld	a, (hl)
2314  0886  F6 41       	or	a,0x41
2315  0888  32 02 00    	ld	((_attrib0 + 0x0002)),a
2316  088B  03          	inc	bc
2317  088C  03          	inc	bc
2318  088D  03          	inc	bc
2319  088E  21 00 00    	ld	hl,_map_paper
2320  0891  7E          	ld	a, (hl)
2321  0892  F6 43       	or	a,0x43
2322  0894  02          	ld	(bc), a
2323  0895  01 00 00    	ld	bc,_attrib1+0
2324  0898  7E          	ld	a, (hl)
2325  0899  F6 02       	or	a,0x02
2326  089B  02          	ld	(bc), a
2327  089C  59          	ld	e, c
2328  089D  50          	ld	d, b
2329  089E  13          	inc	de
2330  089F  7E          	ld	a, (hl)
2331  08A0  F6 42       	or	a,0x42
2332  08A2  12          	ld	(de), a
2333  08A3  7E          	ld	a, (hl)
2334  08A4  F6 03       	or	a,0x03
2335  08A6  32 02 00    	ld	((_attrib1 + 0x0002)),a
2336  08A9  03          	inc	bc
2337  08AA  03          	inc	bc
2338  08AB  03          	inc	bc
2339  08AC  21 00 00    	ld	hl,_map_paper
2340  08AF  7E          	ld	a, (hl)
2341  08B0  F6 43       	or	a,0x43
2342  08B2  02          	ld	(bc), a
2343  08B3  01 00 00    	ld	bc,_attrib2+0
2344  08B6  7E          	ld	a, (hl)
2345  08B7  F6 02       	or	a,0x02
2346  08B9  02          	ld	(bc), a
2347  08BA  59          	ld	e, c
2348  08BB  50          	ld	d, b
2349  08BC  13          	inc	de
2350  08BD  7E          	ld	a, (hl)
2351  08BE  F6 42       	or	a,0x42
2352  08C0  12          	ld	(de), a
2353  08C1  7E          	ld	a, (hl)
2354  08C2  F6 03       	or	a,0x03
2355  08C4  32 02 00    	ld	((_attrib2 + 0x0002)),a
2356  08C7  03          	inc	bc
2357  08C8  03          	inc	bc
2358  08C9  03          	inc	bc
2359  08CA  21 00 00    	ld	hl,_map_paper
2360  08CD  7E          	ld	a, (hl)
2361  08CE  F6 43       	or	a,0x43
2362  08D0  02          	ld	(bc), a
2363  08D1  01 00 00    	ld	bc,_attrib3+0
2364  08D4  7E          	ld	a, (hl)
2365  08D5  F6 42       	or	a,0x42
2366  08D7  02          	ld	(bc), a
2367  08D8  59          	ld	e, c
2368  08D9  50          	ld	d, b
2369  08DA  13          	inc	de
2370  08DB  7E          	ld	a, (hl)
2371  08DC  F6 02       	or	a,0x02
2372  08DE  12          	ld	(de), a
2373  08DF  7E          	ld	a, (hl)
2374  08E0  F6 03       	or	a,0x03
2375  08E2  32 02 00    	ld	((_attrib3 + 0x0002)),a
2376  08E5  03          	inc	bc
2377  08E6  03          	inc	bc
2378  08E7  03          	inc	bc
2379  08E8  21 00 00    	ld	hl,_map_paper
2380  08EB  7E          	ld	a, (hl)
2381  08EC  F6 43       	or	a,0x43
2382  08EE  02          	ld	(bc), a
2383  08EF  01 00 00    	ld	bc,_attrib4+0
2384  08F2  7E          	ld	a, (hl)
2385  08F3  F6 57       	or	a,0x57
2386  08F5  02          	ld	(bc), a
2387  08F6  59          	ld	e, c
2388  08F7  50          	ld	d, b
2389  08F8  13          	inc	de
2390  08F9  7E          	ld	a, (hl)
2391  08FA  F6 56       	or	a,0x56
2392  08FC  12          	ld	(de), a
2393  08FD  7E          	ld	a, (hl)
2394  08FE  F6 57       	or	a,0x57
2395  0900  32 02 00    	ld	((_attrib4 + 0x0002)),a
2396  0903  03          	inc	bc
2397  0904  03          	inc	bc
2398  0905  03          	inc	bc
2399  0906  21 00 00    	ld	hl,_map_paper
2400  0909  7E          	ld	a, (hl)
2401  090A  F6 56       	or	a,0x56
2402  090C  02          	ld	(bc), a
2403  090D  01 00 00    	ld	bc,_attrib5+0
2404  0910  7E          	ld	a, (hl)
2405  0911  F6 44       	or	a,0x44
2406  0913  02          	ld	(bc), a
2407  0914  59          	ld	e, c
2408  0915  50          	ld	d, b
2409  0916  13          	inc	de
2410  0917  7E          	ld	a, (hl)
2411  0918  F6 44       	or	a,0x44
2412  091A  12          	ld	(de), a
2413  091B  7E          	ld	a, (hl)
2414  091C  F6 45       	or	a,0x45
2415  091E  32 02 00    	ld	((_attrib5 + 0x0002)),a
2416  0921  03          	inc	bc
2417  0922  03          	inc	bc
2418  0923  03          	inc	bc
2419  0924  21 00 00    	ld	hl,_map_paper
2420  0927  7E          	ld	a, (hl)
2421  0928  F6 45       	or	a,0x45
2422  092A  02          	ld	(bc), a
2423  092B  01 00 00    	ld	bc,_attrib6+0
2424  092E  7E          	ld	a, (hl)
2425  092F  F6 46       	or	a,0x46
2426  0931  02          	ld	(bc), a
2427  0932  59          	ld	e, c
2428  0933  50          	ld	d, b
2429  0934  13          	inc	de
2430  0935  7E          	ld	a, (hl)
2431  0936  F6 44       	or	a,0x44
2432  0938  12          	ld	(de), a
2433  0939  7E          	ld	a, (hl)
2434  093A  F6 44       	or	a,0x44
2435  093C  32 02 00    	ld	((_attrib6 + 0x0002)),a
2436  093F  03          	inc	bc
2437  0940  03          	inc	bc
2438  0941  03          	inc	bc
2439  0942  21 00 00    	ld	hl,_map_paper
2440  0945  7E          	ld	a, (hl)
2441  0946  F6 44       	or	a,0x44
2442  0948  02          	ld	(bc), a
2443  0949  01 00 00    	ld	bc,_attrib7+0
2444  094C  7E          	ld	a, (hl)
2445  094D  F6 41       	or	a,0x41
2446  094F  02          	ld	(bc), a
2447  0950  59          	ld	e, c
2448  0951  50          	ld	d, b
2449  0952  13          	inc	de
2450  0953  7E          	ld	a, (hl)
2451  0954  F6 05       	or	a,0x05
2452  0956  12          	ld	(de), a
2453  0957  7E          	ld	a, (hl)
2454  0958  F6 45       	or	a,0x45
2455  095A  32 02 00    	ld	((_attrib7 + 0x0002)),a
2456  095D  03          	inc	bc
2457  095E  03          	inc	bc
2458  095F  03          	inc	bc
2459  0960  21 00 00    	ld	hl,_map_paper
2460  0963  7E          	ld	a, (hl)
2461  0964  F6 47       	or	a,0x47
2462  0966  02          	ld	(bc), a
2463  0967  01 00 00    	ld	bc,_attrib8+0
2464  096A  7E          	ld	a, (hl)
2465  096B  F6 46       	or	a,0x46
2466  096D  02          	ld	(bc), a
2467  096E  59          	ld	e, c
2468  096F  50          	ld	d, b
2469  0970  13          	inc	de
2470  0971  7E          	ld	a, (hl)
2471  0972  F6 42       	or	a,0x42
2472  0974  12          	ld	(de), a
2473  0975  7E          	ld	a, (hl)
2474  0976  F6 46       	or	a,0x46
2475  0978  32 02 00    	ld	((_attrib8 + 0x0002)),a
2476  097B  03          	inc	bc
2477  097C  03          	inc	bc
2478  097D  03          	inc	bc
2479  097E  21 00 00    	ld	hl,_map_paper
2480  0981  7E          	ld	a, (hl)
2481  0982  F6 42       	or	a,0x42
2482  0984  02          	ld	(bc), a
2483  0985  01 00 00    	ld	bc,_attrib+0
2484  0988  7E          	ld	a, (hl)
2485  0989  F6 47       	or	a,0x47
2486  098B  02          	ld	(bc), a
2487  098C  59          	ld	e, c
2488  098D  50          	ld	d, b
2489  098E  13          	inc	de
2490  098F  7E          	ld	a, (hl)
2491  0990  F6 47       	or	a,0x47
2492  0992  12          	ld	(de), a
2493  0993  7E          	ld	a, (hl)
2494  0994  F6 47       	or	a,0x47
2495  0996  32 02 00    	ld	((_attrib + 0x0002)),a
2496  0999  03          	inc	bc
2497  099A  03          	inc	bc
2498  099B  03          	inc	bc
2499  099C  21 00 00    	ld	hl,_map_paper
2500  099F  7E          	ld	a, (hl)
2501  09A0  F6 47       	or	a,0x47
2502  09A2  02          	ld	(bc), a
2503  09A3  01 00 00    	ld	bc,_attrib_hl+0
2504  09A6  7E          	ld	a, (hl)
2505  09A7  F6 30       	or	a,0x30
2506  09A9  02          	ld	(bc), a
2507  09AA  59          	ld	e, c
2508  09AB  50          	ld	d, b
2509  09AC  13          	inc	de
2510  09AD  7E          	ld	a, (hl)
2511  09AE  F6 31       	or	a,0x31
2512  09B0  12          	ld	(de), a
2513  09B1  7E          	ld	a, (hl)
2514  09B2  F6 33       	or	a,0x33
2515  09B4  32 02 00    	ld	((_attrib_hl + 0x0002)),a
2516  09B7  03          	inc	bc
2517  09B8  03          	inc	bc
2518  09B9  03          	inc	bc
2519  09BA  21 00 00    	ld	hl,_map_paper
2520  09BD  7E          	ld	a, (hl)
2521  09BE  F6 30       	or	a,0x30
2522  09C0  02          	ld	(bc), a
2523  09C1  01 00 00    	ld	bc,_attrib_osd+0
2524  09C4  7E          	ld	a, (hl)
2525  09C5  F6 27       	or	a,0x27
2526  09C7  02          	ld	(bc), a
2527  09C8  59          	ld	e, c
2528  09C9  50          	ld	d, b
2529  09CA  13          	inc	de
2530  09CB  7E          	ld	a, (hl)
2531  09CC  F6 27       	or	a,0x27
2532  09CE  12          	ld	(de), a
2533  09CF  7E          	ld	a, (hl)
2534  09D0  F6 27       	or	a,0x27
2535  09D2  32 02 00    	ld	((_attrib_osd + 0x0002)),a
2536  09D5  03          	inc	bc
2537  09D6  03          	inc	bc
2538  09D7  03          	inc	bc
2539  09D8  21 00 00    	ld	hl,_map_paper
2540  09DB  7E          	ld	a, (hl)
2541  09DC  F6 27       	or	a,0x27
2542  09DE  02          	ld	(bc), a
2543  09DF  01 00 00    	ld	bc,_attrib_red+0
2544  09E2  7E          	ld	a, (hl)
2545  09E3  F6 17       	or	a,0x17
2546  09E5  02          	ld	(bc), a
2547  09E6  59          	ld	e, c
2548  09E7  50          	ld	d, b
2549  09E8  13          	inc	de
2550  09E9  7E          	ld	a, (hl)
2551  09EA  F6 17       	or	a,0x17
2552  09EC  12          	ld	(de), a
2553  09ED  7E          	ld	a, (hl)
2554  09EE  F6 17       	or	a,0x17
2555  09F0  32 02 00    	ld	((_attrib_red + 0x0002)),a
2556  09F3  03          	inc	bc
2557  09F4  03          	inc	bc
2558  09F5  03          	inc	bc
2559  09F6  3A 00 00    	ld	a,(_map_paper)
2560  09F9  F6 17       	or	a,0x17
2561  09FB  02          	ld	(bc), a
2562  09FC  C9          	ret
2563  09FD              	SECTION code_compiler
2564  09FD              ;	---------------------------------
2565  09FD              ; Function game_page_map
2566  09FD              ; ---------------------------------
2567  09FD              _game_page_map:
2568  09FD  CD 00 00    	call	___sdcc_enter_ix
2569  0A00  21 F2 FF    	ld	hl, -14
2570  0A03  39          	add	hl, sp
2571  0A04  F9          	ld	sp, hl
2572  0A05  21 00 00    	ld	hl,_game_world
2573  0A08  4E          	ld	c, (hl)
2574  0A09  3A 00 00    	ld	a,(_scr_curr)
2575  0A0C  DD 77 F3    	ld	(ix-13),a
2576  0A0F  79          	ld	a, c
2577  0A10  07          	rlca
2578  0A11  07          	rlca
2579  0A12  07          	rlca
2580  0A13  07          	rlca
2581  0A14  E6 F0       	and	a,0xf0
2582  0A16  4F          	ld	c,a
2583  0A17  DD 86 F3    	add	a,(ix-13)
2584  0A1A  DD 77 F2    	ld	(ix-14),a
2585  0A1D  DD 36 F7 00 	ld	(ix-9),0x00
2586  0A21  DD 36 F8 00 	ld	(ix-8),0x00
2587  0A25  C5          	push	bc
2588  0A26  CD 00 00    	call	_spr_clear_scr
2589  0A29  C1          	pop	bc
2590  0A2A  F3          	di
2591  0A2B  21 00 00    	ld	hl,_GLOBAL_ZX_PORT_7FFD
2592  0A2E  36 16       	ld	(hl),0x16
2593  0A30  C5          	push	bc
2594  0A31  3E 16       	ld	a,0x16
2595  0A33  01 FD 7F    	ld	bc,_IO_7FFD
2596  0A36  ED 79       	out	(c),a
2597  0A38  C1          	pop	bc
2598  0A39  DD 7E F3    	ld	a,(ix-13)
2599  0A3C  3C          	inc	a
2600  0A3D  20 07       	jr	NZ,l_game_page_map_00102
2601  0A3F  DD 36 F3 00 	ld	(ix-13),0x00
2602  0A43  DD 71 F2    	ld	(ix-14),c
2603  0A46              l_game_page_map_00102:
2604  0A46  3E 10       	ld	a,0x10
2605  0A48  32 00 00    	ld	(_GLOBAL_ZX_PORT_7FFD),a
2606  0A4B  01 FD 7F    	ld	bc,_IO_7FFD
2607  0A4E  ED 79       	out	(c),a
2608  0A50  3E 00       	ld	a,0x00
2609  0A52  DD 77 F5    	ld	(ix-11),a
2610  0A55  DD 77 F6    	ld	(ix-10),a
2611  0A58  DD 77 F9    	ld	(ix-7),a
2612  0A5B  DD 77 FA    	ld	(ix-6),a
2613  0A5E              l_game_page_map_00103:
2614  0A5E  DD 4E F2    	ld	c,(ix-14)
2615  0A61  06 00       	ld	b,0x00
2616  0A63  DD 7E F9    	ld	a,(ix-7)
2617  0A66  91          	sub	a, c
2618  0A67  DD 7E FA    	ld	a,(ix-6)
2619  0A6A  98          	sbc	a, b
2620  0A6B  30 40       	jr	NC,l_game_page_map_00105
2621  0A6D  3E 16       	ld	a,0x16
2622  0A6F  01 FD 7F    	ld	bc,_IO_7FFD
2623  0A72  ED 79       	out	(c),a
2624  0A74  DD 6E F9    	ld	l,(ix-7)
2625  0A77  DD 66 FA    	ld	h,(ix-6)
2626  0A7A  01 00 00    	ld	bc,_lenght0
2627  0A7D  09          	add	hl,bc
2628  0A7E  DD 75 FE    	ld	(ix-2),l
2629  0A81  DD 74 FF    	ld	(ix-1),h
2630  0A84  4E          	ld	c, (hl)
2631  0A85  06 00       	ld	b,0x00
2632  0A87  21 00 00    	ld	hl,_GLOBAL_ZX_PORT_7FFD
2633  0A8A  36 10       	ld	(hl),0x10
2634  0A8C  C5          	push	bc
2635  0A8D  3E 10       	ld	a,0x10
2636  0A8F  01 FD 7F    	ld	bc,_IO_7FFD
2637  0A92  ED 79       	out	(c),a
2638  0A94  C1          	pop	bc
2639  0A95  DD 7E F5    	ld	a,(ix-11)
2640  0A98  81          	add	a, c
2641  0A99  DD 77 F5    	ld	(ix-11),a
2642  0A9C  DD 7E F6    	ld	a,(ix-10)
2643  0A9F  88          	adc	a, b
2644  0AA0  DD 77 F6    	ld	(ix-10),a
2645  0AA3  DD 34 F9    	inc	(ix-7)
2646  0AA6  20 B6       	jr	NZ,l_game_page_map_00103
2647  0AA8  DD 34 FA    	inc	(ix-6)
2648  0AAB  18 B1       	jr	l_game_page_map_00103
2649  0AAD              l_game_page_map_00105:
2650  0AAD  01 00 00    	ld	bc,0x0000
2651  0AB0              l_game_page_map_00118:
2652  0AB0  C5          	push	bc
2653  0AB1  3E 16       	ld	a,0x16
2654  0AB3  01 FD 7F    	ld	bc,_IO_7FFD
2655  0AB6  ED 79       	out	(c),a
2656  0AB8  C1          	pop	bc
2657  0AB9  DD 6E F5    	ld	l,(ix-11)
2658  0ABC  DD 66 F6    	ld	h,(ix-10)
2659  0ABF  09          	add	hl,bc
2660  0AC0  EB          	ex	de,hl
2661  0AC1  21 00 00    	ld	hl,_world0
2662  0AC4  19          	add	hl, de
2663  0AC5  7E          	ld	a, (hl)
2664  0AC6  DD 77 FD    	ld	(ix-3),a
2665  0AC9  13          	inc	de
2666  0ACA  21 00 00    	ld	hl,_world0
2667  0ACD  19          	add	hl, de
2668  0ACE  7E          	ld	a, (hl)
2669  0ACF  DD 77 FC    	ld	(ix-4),a
2670  0AD2  21 00 00    	ld	hl,_GLOBAL_ZX_PORT_7FFD
2671  0AD5  36 10       	ld	(hl),0x10
2672  0AD7  C5          	push	bc
2673  0AD8  3E 10       	ld	a,0x10
2674  0ADA  01 FD 7F    	ld	bc,_IO_7FFD
2675  0ADD  ED 79       	out	(c),a
2676  0ADF  C1          	pop	bc
2677  0AE0  DD 7E FD    	ld	a,(ix-3)
2678  0AE3  D6 80       	sub	a,0x80
2679  0AE5  30 1A       	jr	NC,l_game_page_map_00110
2680  0AE7  3E 00       	ld	a, +((_scr_map) & 0xFF)
2681  0AE9  DD 86 F7    	add	a,(ix-9)
2682  0AEC  5F          	ld	e, a
2683  0AED  3E 00       	ld	a, +((_scr_map) / 256)
2684  0AEF  DD 8E F8    	adc	a,(ix-8)
2685  0AF2  57          	ld	d, a
2686  0AF3  DD 7E FD    	ld	a,(ix-3)
2687  0AF6  12          	ld	(de), a
2688  0AF7  DD 34 F7    	inc	(ix-9)
2689  0AFA  20 49       	jr	NZ,l_game_page_map_00111
2690  0AFC  DD 34 F8    	inc	(ix-8)
2691  0AFF  18 44       	jr	l_game_page_map_00111
2692  0B01              l_game_page_map_00110:
2693  0B01  DD 7E FD    	ld	a,(ix-3)
2694  0B04  C6 80       	add	a,0x80
2695  0B06  DD 77 FB    	ld	(ix-5),a
2696  0B09  DD 5E F7    	ld	e,(ix-9)
2697  0B0C  DD 56 F8    	ld	d,(ix-8)
2698  0B0F  DD 36 F9 00 	ld	(ix-7),0x00
2699  0B13  DD 36 FA 00 	ld	(ix-6),0x00
2700  0B17              l_game_page_map_00116:
2701  0B17  DD 6E FB    	ld	l,(ix-5)
2702  0B1A  26 00       	ld	h,0x00
2703  0B1C  DD 7E F9    	ld	a,(ix-7)
2704  0B1F  95          	sub	a, l
2705  0B20  DD 7E FA    	ld	a,(ix-6)
2706  0B23  9C          	sbc	a, h
2707  0B24  30 18       	jr	NC,l_game_page_map_00132
2708  0B26  21 00 00    	ld	hl,_scr_map
2709  0B29  19          	add	hl, de
2710  0B2A  DD 7E FC    	ld	a,(ix-4)
2711  0B2D  77          	ld	(hl), a
2712  0B2E  13          	inc	de
2713  0B2F  7A          	ld	a, d
2714  0B30  D6 02       	sub	a,0x02
2715  0B32  30 0A       	jr	NC,l_game_page_map_00132
2716  0B34  DD 34 F9    	inc	(ix-7)
2717  0B37  20 DE       	jr	NZ,l_game_page_map_00116
2718  0B39  DD 34 FA    	inc	(ix-6)
2719  0B3C  18 D9       	jr	l_game_page_map_00116
2720  0B3E              l_game_page_map_00132:
2721  0B3E  DD 73 F7    	ld	(ix-9),e
2722  0B41  DD 72 F8    	ld	(ix-8),d
2723  0B44  03          	inc	bc
2724  0B45              l_game_page_map_00111:
2725  0B45  DD 7E F8    	ld	a,(ix-8)
2726  0B48  D6 02       	sub	a,0x02
2727  0B4A  30 07       	jr	NC,l_game_page_map_00114
2728  0B4C  03          	inc	bc
2729  0B4D  78          	ld	a, b
2730  0B4E  D6 02       	sub	a,0x02
2731  0B50  DA B0 0A    	jp	C, l_game_page_map_00118
2732  0B53              l_game_page_map_00114:
2733  0B53  DD 7E F3    	ld	a,(ix-13)
2734  0B56  32 00 00    	ld	(_scr_curr),a
2735  0B59  DD 7E F4    	ld	a,(ix-12)
2736  0B5C  32 00 00    	ld	(_map_paper),a
2737  0B5F  FB          	ei
2738  0B60  DD F9       	ld	sp, ix
2739  0B62  DD E1       	pop	ix
2740  0B64  C9          	ret
2741  0B65              	SECTION IGNORE
2742  0000              
