1     0000              MODULE game_engine_c
2     0000              LINE 0, "game_engine.c"
0     0000              
1     0000              ;--------------------------------------------------------
2     0000              ; File Created by SDCC : free open source ANSI-C Compiler
3     0000              ; Version 3.6.9 #9958 (Mac OS X i386)
4     0000              ;--------------------------------------------------------
5     0000              ; Processed by Z88DK
6     0000              ;--------------------------------------------------------
7     0000              
8     0000              	EXTERN __divschar
9     0000              	EXTERN __divschar_callee
10    0000              	EXTERN __divsint
11    0000              	EXTERN __divsint_callee
12    0000              	EXTERN __divslong
13    0000              	EXTERN __divslong_callee
14    0000              	EXTERN __divslonglong
15    0000              	EXTERN __divslonglong_callee
16    0000              	EXTERN __divsuchar
17    0000              	EXTERN __divsuchar_callee
18    0000              	EXTERN __divuchar
19    0000              	EXTERN __divuchar_callee
20    0000              	EXTERN __divuint
21    0000              	EXTERN __divuint_callee
22    0000              	EXTERN __divulong
23    0000              	EXTERN __divulong_callee
24    0000              	EXTERN __divulonglong
25    0000              	EXTERN __divulonglong_callee
26    0000              	EXTERN __divuschar
27    0000              	EXTERN __divuschar_callee
28    0000              	EXTERN __modschar
29    0000              	EXTERN __modschar_callee
30    0000              	EXTERN __modsint
31    0000              	EXTERN __modsint_callee
32    0000              	EXTERN __modslong
33    0000              	EXTERN __modslong_callee
34    0000              	EXTERN __modslonglong
35    0000              	EXTERN __modslonglong_callee
36    0000              	EXTERN __modsuchar
37    0000              	EXTERN __modsuchar_callee
38    0000              	EXTERN __moduchar
39    0000              	EXTERN __moduchar_callee
40    0000              	EXTERN __moduint
41    0000              	EXTERN __moduint_callee
42    0000              	EXTERN __modulong
43    0000              	EXTERN __modulong_callee
44    0000              	EXTERN __modulonglong
45    0000              	EXTERN __modulonglong_callee
46    0000              	EXTERN __moduschar
47    0000              	EXTERN __moduschar_callee
48    0000              	EXTERN __mulint
49    0000              	EXTERN __mulint_callee
50    0000              	EXTERN __mullong
51    0000              	EXTERN __mullong_callee
52    0000              	EXTERN __mullonglong
53    0000              	EXTERN __mullonglong_callee
54    0000              	EXTERN __mulschar
55    0000              	EXTERN __mulschar_callee
56    0000              	EXTERN __mulsuchar
57    0000              	EXTERN __mulsuchar_callee
58    0000              	EXTERN __muluschar
59    0000              	EXTERN __muluschar_callee
60    0000              	EXTERN __rlslonglong
61    0000              	EXTERN __rlslonglong_callee
62    0000              	EXTERN __rlulonglong
63    0000              	EXTERN __rlulonglong_callee
64    0000              	EXTERN __rrslonglong
65    0000              	EXTERN __rrslonglong_callee
66    0000              	EXTERN __rrulonglong
67    0000              	EXTERN __rrulonglong_callee
68    0000              	EXTERN ___sdcc_call_hl
69    0000              	EXTERN ___sdcc_call_iy
70    0000              	EXTERN ___sdcc_enter_ix
71    0000              	EXTERN _banked_call
72    0000              	EXTERN _banked_ret
73    0000              	EXTERN ___fs2schar
74    0000              	EXTERN ___fs2schar_callee
75    0000              	EXTERN ___fs2sint
76    0000              	EXTERN ___fs2sint_callee
77    0000              	EXTERN ___fs2slong
78    0000              	EXTERN ___fs2slong_callee
79    0000              	EXTERN ___fs2slonglong
80    0000              	EXTERN ___fs2slonglong_callee
81    0000              	EXTERN ___fs2uchar
82    0000              	EXTERN ___fs2uchar_callee
83    0000              	EXTERN ___fs2uint
84    0000              	EXTERN ___fs2uint_callee
85    0000              	EXTERN ___fs2ulong
86    0000              	EXTERN ___fs2ulong_callee
87    0000              	EXTERN ___fs2ulonglong
88    0000              	EXTERN ___fs2ulonglong_callee
89    0000              	EXTERN ___fsadd
90    0000              	EXTERN ___fsadd_callee
91    0000              	EXTERN ___fsdiv
92    0000              	EXTERN ___fsdiv_callee
93    0000              	EXTERN ___fseq
94    0000              	EXTERN ___fseq_callee
95    0000              	EXTERN ___fsgt
96    0000              	EXTERN ___fsgt_callee
97    0000              	EXTERN ___fslt
98    0000              	EXTERN ___fslt_callee
99    0000              	EXTERN ___fsmul
100   0000              	EXTERN ___fsmul_callee
101   0000              	EXTERN ___fsneq
102   0000              	EXTERN ___fsneq_callee
103   0000              	EXTERN ___fssub
104   0000              	EXTERN ___fssub_callee
105   0000              	EXTERN ___schar2fs
106   0000              	EXTERN ___schar2fs_callee
107   0000              	EXTERN ___sint2fs
108   0000              	EXTERN ___sint2fs_callee
109   0000              	EXTERN ___slong2fs
110   0000              	EXTERN ___slong2fs_callee
111   0000              	EXTERN ___slonglong2fs
112   0000              	EXTERN ___slonglong2fs_callee
113   0000              	EXTERN ___uchar2fs
114   0000              	EXTERN ___uchar2fs_callee
115   0000              	EXTERN ___uint2fs
116   0000              	EXTERN ___uint2fs_callee
117   0000              	EXTERN ___ulong2fs
118   0000              	EXTERN ___ulong2fs_callee
119   0000              	EXTERN ___ulonglong2fs
120   0000              	EXTERN ___ulonglong2fs_callee
121   0000              	EXTERN ____sdcc_2_copy_src_mhl_dst_deix
122   0000              	EXTERN ____sdcc_2_copy_src_mhl_dst_bcix
123   0000              	EXTERN ____sdcc_4_copy_src_mhl_dst_deix
124   0000              	EXTERN ____sdcc_4_copy_src_mhl_dst_bcix
125   0000              	EXTERN ____sdcc_4_copy_src_mhl_dst_mbc
126   0000              	EXTERN ____sdcc_4_ldi_nosave_bc
127   0000              	EXTERN ____sdcc_4_ldi_save_bc
128   0000              	EXTERN ____sdcc_4_push_hlix
129   0000              	EXTERN ____sdcc_4_push_mhl
130   0000              	EXTERN ____sdcc_lib_setmem_hl
131   0000              	EXTERN ____sdcc_ll_add_de_bc_hl
132   0000              	EXTERN ____sdcc_ll_add_de_bc_hlix
133   0000              	EXTERN ____sdcc_ll_add_de_hlix_bc
134   0000              	EXTERN ____sdcc_ll_add_de_hlix_bcix
135   0000              	EXTERN ____sdcc_ll_add_deix_bc_hl
136   0000              	EXTERN ____sdcc_ll_add_deix_hlix
137   0000              	EXTERN ____sdcc_ll_add_hlix_bc_deix
138   0000              	EXTERN ____sdcc_ll_add_hlix_deix_bc
139   0000              	EXTERN ____sdcc_ll_add_hlix_deix_bcix
140   0000              	EXTERN ____sdcc_ll_asr_hlix_a
141   0000              	EXTERN ____sdcc_ll_asr_mbc_a
142   0000              	EXTERN ____sdcc_ll_copy_src_de_dst_hlix
143   0000              	EXTERN ____sdcc_ll_copy_src_de_dst_hlsp
144   0000              	EXTERN ____sdcc_ll_copy_src_deix_dst_hl
145   0000              	EXTERN ____sdcc_ll_copy_src_deix_dst_hlix
146   0000              	EXTERN ____sdcc_ll_copy_src_deixm_dst_hlsp
147   0000              	EXTERN ____sdcc_ll_copy_src_desp_dst_hlsp
148   0000              	EXTERN ____sdcc_ll_copy_src_hl_dst_de
149   0000              	EXTERN ____sdcc_ll_copy_src_hlsp_dst_de
150   0000              	EXTERN ____sdcc_ll_copy_src_hlsp_dst_deixm
151   0000              	EXTERN ____sdcc_ll_lsl_hlix_a
152   0000              	EXTERN ____sdcc_ll_lsl_mbc_a
153   0000              	EXTERN ____sdcc_ll_lsr_hlix_a
154   0000              	EXTERN ____sdcc_ll_lsr_mbc_a
155   0000              	EXTERN ____sdcc_ll_push_hlix
156   0000              	EXTERN ____sdcc_ll_push_mhl
157   0000              	EXTERN ____sdcc_ll_sub_de_bc_hl
158   0000              	EXTERN ____sdcc_ll_sub_de_bc_hlix
159   0000              	EXTERN ____sdcc_ll_sub_de_hlix_bc
160   0000              	EXTERN ____sdcc_ll_sub_de_hlix_bcix
161   0000              	EXTERN ____sdcc_ll_sub_deix_bc_hl
162   0000              	EXTERN ____sdcc_ll_sub_deix_hlix
163   0000              	EXTERN ____sdcc_ll_sub_hlix_bc_deix
164   0000              	EXTERN ____sdcc_ll_sub_hlix_deix_bc
165   0000              	EXTERN ____sdcc_ll_sub_hlix_deix_bcix
166   0000              	EXTERN ____sdcc_load_debc_deix
167   0000              	EXTERN ____sdcc_load_dehl_deix
168   0000              	EXTERN ____sdcc_load_debc_mhl
169   0000              	EXTERN ____sdcc_load_hlde_mhl
170   0000              	EXTERN ____sdcc_store_dehl_bcix
171   0000              	EXTERN ____sdcc_store_debc_hlix
172   0000              	EXTERN ____sdcc_store_debc_mhl
173   0000              	EXTERN ____sdcc_cpu_pop_ei
174   0000              	EXTERN ____sdcc_cpu_pop_ei_jp
175   0000              	EXTERN ____sdcc_cpu_push_di
176   0000              	EXTERN ____sdcc_outi
177   0000              	EXTERN ____sdcc_outi_128
178   0000              	EXTERN ____sdcc_outi_256
179   0000              	EXTERN ____sdcc_ldi
180   0000              	EXTERN ____sdcc_ldi_128
181   0000              	EXTERN ____sdcc_ldi_256
182   0000              	EXTERN ____sdcc_4_copy_srcd_hlix_dst_deix
183   0000              	EXTERN ____sdcc_4_and_src_mbc_mhl_dst_deix
184   0000              	EXTERN ____sdcc_4_or_src_mbc_mhl_dst_deix
185   0000              	EXTERN ____sdcc_4_xor_src_mbc_mhl_dst_deix
186   0000              	EXTERN ____sdcc_4_or_src_dehl_dst_bcix
187   0000              	EXTERN ____sdcc_4_xor_src_dehl_dst_bcix
188   0000              	EXTERN ____sdcc_4_and_src_dehl_dst_bcix
189   0000              	EXTERN ____sdcc_4_xor_src_mbc_mhl_dst_debc
190   0000              	EXTERN ____sdcc_4_or_src_mbc_mhl_dst_debc
191   0000              	EXTERN ____sdcc_4_and_src_mbc_mhl_dst_debc
192   0000              	EXTERN ____sdcc_4_cpl_src_mhl_dst_debc
193   0000              	EXTERN ____sdcc_4_xor_src_debc_mhl_dst_debc
194   0000              	EXTERN ____sdcc_4_or_src_debc_mhl_dst_debc
195   0000              	EXTERN ____sdcc_4_and_src_debc_mhl_dst_debc
196   0000              	EXTERN ____sdcc_4_and_src_debc_hlix_dst_debc
197   0000              	EXTERN ____sdcc_4_or_src_debc_hlix_dst_debc
198   0000              	EXTERN ____sdcc_4_xor_src_debc_hlix_dst_debc
199   0000              
200   0000              ;--------------------------------------------------------
201   0000              ; Public variables in this module
202   0000              ;--------------------------------------------------------
203   0000              	GLOBAL _game_anim_conveyor
204   0000              	GLOBAL _game_print_lives
205   0000              	GLOBAL _game_end
206   0000              	GLOBAL _game_tick
207   0000              	GLOBAL _game_borders
208   0000              	GLOBAL _game_loop
209   0000              	GLOBAL _game_fps
210   0000              	GLOBAL _game_draw_map
211   0000              	GLOBAL _game_cell_paint_index
212   0000              	GLOBAL _game_cell_paint
213   0000              	GLOBAL _game_print_footer
214   0000              	GLOBAL _game_print_score
215   0000              	GLOBAL _game_cls
216   0000              	GLOBAL _game_start_timer
217   0000              	GLOBAL _game_anim_air
218   0000              	GLOBAL _game_round_init
219   0000              	GLOBAL _game_print_header
220   0000              	GLOBAL _game_check_map
221   0000              	GLOBAL _game_check_cell
222   0000              	GLOBAL _game_paint_attrib
223   0000              	GLOBAL _game_colour_message
224   0000              	GLOBAL _game_check_time
225   0000              	GLOBAL _game_key_paint
226   0000              	GLOBAL _game_rotate_attrib_osd
227   0000              	GLOBAL _game_attribs
228   0000              	GLOBAL _game_page_map
229   0000              	GLOBAL _game_flash_exit
230   0000              	GLOBAL _game_copy_sprite_std
231   0000              	GLOBAL _game_copy_sprite
232   0000              	GLOBAL _reverse
233   0000              	GLOBAL _page
234   0000              ;--------------------------------------------------------
235   0000              ; Externals used
236   0000              ;--------------------------------------------------------
237   0000              	GLOBAL _ffsll_callee
238   0000              	GLOBAL _ffsll
239   0000              	GLOBAL _strxfrm_callee
240   0000              	GLOBAL _strxfrm
241   0000              	GLOBAL _strupr_fastcall
242   0000              	GLOBAL _strupr
243   0000              	GLOBAL _strtok_r_callee
244   0000              	GLOBAL _strtok_r
245   0000              	GLOBAL _strtok_callee
246   0000              	GLOBAL _strtok
247   0000              	GLOBAL _strstrip_fastcall
248   0000              	GLOBAL _strstrip
249   0000              	GLOBAL _strstr_callee
250   0000              	GLOBAL _strstr
251   0000              	GLOBAL _strspn_callee
252   0000              	GLOBAL _strspn
253   0000              	GLOBAL _strsep_callee
254   0000              	GLOBAL _strsep
255   0000              	GLOBAL _strrstrip_fastcall
256   0000              	GLOBAL _strrstrip
257   0000              	GLOBAL _strrstr_callee
258   0000              	GLOBAL _strrstr
259   0000              	GLOBAL _strrspn_callee
260   0000              	GLOBAL _strrspn
261   0000              	GLOBAL _strrev_fastcall
262   0000              	GLOBAL _strrev
263   0000              	GLOBAL _strrcspn_callee
264   0000              	GLOBAL _strrcspn
265   0000              	GLOBAL _strrchr_callee
266   0000              	GLOBAL _strrchr
267   0000              	GLOBAL _strpbrk_callee
268   0000              	GLOBAL _strpbrk
269   0000              	GLOBAL _strnlen_callee
270   0000              	GLOBAL _strnlen
271   0000              	GLOBAL _strnicmp_callee
272   0000              	GLOBAL _strnicmp
273   0000              	GLOBAL _strndup_callee
274   0000              	GLOBAL _strndup
275   0000              	GLOBAL _strncpy_callee
276   0000              	GLOBAL _strncpy
277   0000              	GLOBAL _strncmp_callee
278   0000              	GLOBAL _strncmp
279   0000              	GLOBAL _strnchr_callee
280   0000              	GLOBAL _strnchr
281   0000              	GLOBAL _strncat_callee
282   0000              	GLOBAL _strncat
283   0000              	GLOBAL _strncasecmp_callee
284   0000              	GLOBAL _strncasecmp
285   0000              	GLOBAL _strlwr_fastcall
286   0000              	GLOBAL _strlwr
287   0000              	GLOBAL _strlen_fastcall
288   0000              	GLOBAL _strlen
289   0000              	GLOBAL _strlcpy_callee
290   0000              	GLOBAL _strlcpy
291   0000              	GLOBAL _strlcat_callee
292   0000              	GLOBAL _strlcat
293   0000              	GLOBAL _stricmp_callee
294   0000              	GLOBAL _stricmp
295   0000              	GLOBAL _strerror_fastcall
296   0000              	GLOBAL _strerror
297   0000              	GLOBAL _strdup_fastcall
298   0000              	GLOBAL _strdup
299   0000              	GLOBAL _strcspn_callee
300   0000              	GLOBAL _strcspn
301   0000              	GLOBAL _strcpy_callee
302   0000              	GLOBAL _strcpy
303   0000              	GLOBAL _strcoll_callee
304   0000              	GLOBAL _strcoll
305   0000              	GLOBAL _strcmp_callee
306   0000              	GLOBAL _strcmp
307   0000              	GLOBAL _strchrnul_callee
308   0000              	GLOBAL _strchrnul
309   0000              	GLOBAL _strchr_callee
310   0000              	GLOBAL _strchr
311   0000              	GLOBAL _strcat_callee
312   0000              	GLOBAL _strcat
313   0000              	GLOBAL _strcasecmp_callee
314   0000              	GLOBAL _strcasecmp
315   0000              	GLOBAL _stpncpy_callee
316   0000              	GLOBAL _stpncpy
317   0000              	GLOBAL _stpcpy_callee
318   0000              	GLOBAL _stpcpy
319   0000              	GLOBAL _memswap_callee
320   0000              	GLOBAL _memswap
321   0000              	GLOBAL _memset_callee
322   0000              	GLOBAL _memset
323   0000              	GLOBAL _memrchr_callee
324   0000              	GLOBAL _memrchr
325   0000              	GLOBAL _memmove_callee
326   0000              	GLOBAL _memmove
327   0000              	GLOBAL _memmem_callee
328   0000              	GLOBAL _memmem
329   0000              	GLOBAL _memcpy_callee
330   0000              	GLOBAL _memcpy
331   0000              	GLOBAL _memcmp_callee
332   0000              	GLOBAL _memcmp
333   0000              	GLOBAL _memchr_callee
334   0000              	GLOBAL _memchr
335   0000              	GLOBAL _memccpy_callee
336   0000              	GLOBAL _memccpy
337   0000              	GLOBAL _ffsl_fastcall
338   0000              	GLOBAL _ffsl
339   0000              	GLOBAL _ffs_fastcall
340   0000              	GLOBAL _ffs
341   0000              	GLOBAL __strrstrip__fastcall
342   0000              	GLOBAL __strrstrip_
343   0000              	GLOBAL __memupr__callee
344   0000              	GLOBAL __memupr_
345   0000              	GLOBAL __memstrcpy__callee
346   0000              	GLOBAL __memstrcpy_
347   0000              	GLOBAL __memlwr__callee
348   0000              	GLOBAL __memlwr_
349   0000              	GLOBAL _rawmemchr_callee
350   0000              	GLOBAL _rawmemchr
351   0000              	GLOBAL _strnset_callee
352   0000              	GLOBAL _strnset
353   0000              	GLOBAL _strset_callee
354   0000              	GLOBAL _strset
355   0000              	GLOBAL _rindex_callee
356   0000              	GLOBAL _rindex
357   0000              	GLOBAL _index_callee
358   0000              	GLOBAL _index
359   0000              	GLOBAL _bzero_callee
360   0000              	GLOBAL _bzero
361   0000              	GLOBAL _bcopy_callee
362   0000              	GLOBAL _bcopy
363   0000              	GLOBAL _bcmp_callee
364   0000              	GLOBAL _bcmp
365   0000              	GLOBAL _ulltoa_callee
366   0000              	GLOBAL _ulltoa
367   0000              	GLOBAL _strtoull_callee
368   0000              	GLOBAL _strtoull
369   0000              	GLOBAL _strtoll_callee
370   0000              	GLOBAL _strtoll
371   0000              	GLOBAL _lltoa_callee
372   0000              	GLOBAL _lltoa
373   0000              	GLOBAL _llabs_callee
374   0000              	GLOBAL _llabs
375   0000              	GLOBAL __lldivu__callee
376   0000              	GLOBAL __lldivu_
377   0000              	GLOBAL __lldiv__callee
378   0000              	GLOBAL __lldiv_
379   0000              	GLOBAL _atoll_callee
380   0000              	GLOBAL _atoll
381   0000              	GLOBAL _realloc_unlocked_callee
382   0000              	GLOBAL _realloc_unlocked
383   0000              	GLOBAL _malloc_unlocked_fastcall
384   0000              	GLOBAL _malloc_unlocked
385   0000              	GLOBAL _free_unlocked_fastcall
386   0000              	GLOBAL _free_unlocked
387   0000              	GLOBAL _calloc_unlocked_callee
388   0000              	GLOBAL _calloc_unlocked
389   0000              	GLOBAL _aligned_alloc_unlocked_callee
390   0000              	GLOBAL _aligned_alloc_unlocked
391   0000              	GLOBAL _realloc_callee
392   0000              	GLOBAL _realloc
393   0000              	GLOBAL _malloc_fastcall
394   0000              	GLOBAL _malloc
395   0000              	GLOBAL _free_fastcall
396   0000              	GLOBAL _free
397   0000              	GLOBAL _calloc_callee
398   0000              	GLOBAL _calloc
399   0000              	GLOBAL _aligned_alloc_callee
400   0000              	GLOBAL _aligned_alloc
401   0000              	GLOBAL _utoa_callee
402   0000              	GLOBAL _utoa
403   0000              	GLOBAL _ultoa_callee
404   0000              	GLOBAL _ultoa
405   0000              	GLOBAL _system_fastcall
406   0000              	GLOBAL _system
407   0000              	GLOBAL _strtoul_callee
408   0000              	GLOBAL _strtoul
409   0000              	GLOBAL _strtol_callee
410   0000              	GLOBAL _strtol
411   0000              	GLOBAL _strtof_callee
412   0000              	GLOBAL _strtof
413   0000              	GLOBAL _strtod_callee
414   0000              	GLOBAL _strtod
415   0000              	GLOBAL _srand_fastcall
416   0000              	GLOBAL _srand
417   0000              	GLOBAL _rand
418   0000              	GLOBAL _quick_exit_fastcall
419   0000              	GLOBAL _quick_exit
420   0000              	GLOBAL _qsort_callee
421   0000              	GLOBAL _qsort
422   0000              	GLOBAL _ltoa_callee
423   0000              	GLOBAL _ltoa
424   0000              	GLOBAL _labs_fastcall
425   0000              	GLOBAL _labs
426   0000              	GLOBAL _itoa_callee
427   0000              	GLOBAL _itoa
428   0000              	GLOBAL _ftoh_callee
429   0000              	GLOBAL _ftoh
430   0000              	GLOBAL _ftog_callee
431   0000              	GLOBAL _ftog
432   0000              	GLOBAL _ftoe_callee
433   0000              	GLOBAL _ftoe
434   0000              	GLOBAL _ftoa_callee
435   0000              	GLOBAL _ftoa
436   0000              	GLOBAL _exit_fastcall
437   0000              	GLOBAL _exit
438   0000              	GLOBAL _dtoh_callee
439   0000              	GLOBAL _dtoh
440   0000              	GLOBAL _dtog_callee
441   0000              	GLOBAL _dtog
442   0000              	GLOBAL _dtoe_callee
443   0000              	GLOBAL _dtoe
444   0000              	GLOBAL _dtoa_callee
445   0000              	GLOBAL _dtoa
446   0000              	GLOBAL _bsearch_callee
447   0000              	GLOBAL _bsearch
448   0000              	GLOBAL _atol_fastcall
449   0000              	GLOBAL _atol
450   0000              	GLOBAL _atoi_fastcall
451   0000              	GLOBAL _atoi
452   0000              	GLOBAL _atof_fastcall
453   0000              	GLOBAL _atof
454   0000              	GLOBAL _atexit_fastcall
455   0000              	GLOBAL _atexit
456   0000              	GLOBAL _at_quick_exit_fastcall
457   0000              	GLOBAL _at_quick_exit
458   0000              	GLOBAL _abs_fastcall
459   0000              	GLOBAL _abs
460   0000              	GLOBAL _abort
461   0000              	GLOBAL __strtou__callee
462   0000              	GLOBAL __strtou_
463   0000              	GLOBAL __strtoi__callee
464   0000              	GLOBAL __strtoi_
465   0000              	GLOBAL __random_uniform_xor_8__fastcall
466   0000              	GLOBAL __random_uniform_xor_8_
467   0000              	GLOBAL __random_uniform_xor_32__fastcall
468   0000              	GLOBAL __random_uniform_xor_32_
469   0000              	GLOBAL __random_uniform_cmwc_8__fastcall
470   0000              	GLOBAL __random_uniform_cmwc_8_
471   0000              	GLOBAL __shellsort__callee
472   0000              	GLOBAL __shellsort_
473   0000              	GLOBAL __quicksort__callee
474   0000              	GLOBAL __quicksort_
475   0000              	GLOBAL __insertion_sort__callee
476   0000              	GLOBAL __insertion_sort_
477   0000              	GLOBAL __ldivu__callee
478   0000              	GLOBAL __ldivu_
479   0000              	GLOBAL __ldiv__callee
480   0000              	GLOBAL __ldiv_
481   0000              	GLOBAL __divu__callee
482   0000              	GLOBAL __divu_
483   0000              	GLOBAL __div__callee
484   0000              	GLOBAL __div_
485   0000              	GLOBAL _NIRVANAP_drawTW_raw_callee
486   0000              	GLOBAL _NIRVANAP_drawTW_raw
487   0000              	GLOBAL _NIRVANAP_drawTW_callee
488   0000              	GLOBAL _NIRVANAP_drawTW
489   0000              	GLOBAL _NIRVANAP_drawW_raw_callee
490   0000              	GLOBAL _NIRVANAP_drawW_raw
491   0000              	GLOBAL _NIRVANAP_drawW_callee
492   0000              	GLOBAL _NIRVANAP_drawW
493   0000              	GLOBAL _NIRVANAP_spriteT_callee
494   0000              	GLOBAL _NIRVANAP_spriteT
495   0000              	GLOBAL _NIRVANAP_fillC_callee
496   0000              	GLOBAL _NIRVANAP_fillC
497   0000              	GLOBAL _NIRVANAP_readC_callee
498   0000              	GLOBAL _NIRVANAP_readC
499   0000              	GLOBAL _NIRVANAP_paintC_callee
500   0000              	GLOBAL _NIRVANAP_paintC
501   0000              	GLOBAL _NIRVANAP_printQ_callee
502   0000              	GLOBAL _NIRVANAP_printQ
503   0000              	GLOBAL _NIRVANAP_fillT_raw_callee
504   0000              	GLOBAL _NIRVANAP_fillT_raw
505   0000              	GLOBAL _NIRVANAP_fillT_callee
506   0000              	GLOBAL _NIRVANAP_fillT
507   0000              	GLOBAL _NIRVANAP_drawT_raw_callee
508   0000              	GLOBAL _NIRVANAP_drawT_raw
509   0000              	GLOBAL _NIRVANAP_drawT_callee
510   0000              	GLOBAL _NIRVANAP_drawT
511   0000              	GLOBAL _NIRVANAP_stop
512   0000              	GLOBAL _NIRVANAP_start
513   0000              	GLOBAL _zx_print_str
514   0000              	GLOBAL _zx_print_int
515   0000              	GLOBAL _zx_print_chr
516   0000              	GLOBAL _zx_isr
517   0000              	GLOBAL _z80_otdr_callee
518   0000              	GLOBAL _z80_otdr
519   0000              	GLOBAL _z80_otir_callee
520   0000              	GLOBAL _z80_otir
521   0000              	GLOBAL _z80_outp_callee
522   0000              	GLOBAL _z80_outp
523   0000              	GLOBAL _z80_indr_callee
524   0000              	GLOBAL _z80_indr
525   0000              	GLOBAL _z80_inir_callee
526   0000              	GLOBAL _z80_inir
527   0000              	GLOBAL _z80_inp_fastcall
528   0000              	GLOBAL _z80_inp
529   0000              	GLOBAL _z80_set_int_state_fastcall
530   0000              	GLOBAL _z80_set_int_state
531   0000              	GLOBAL _z80_get_int_state
532   0000              	GLOBAL _z80_delay_tstate_fastcall
533   0000              	GLOBAL _z80_delay_tstate
534   0000              	GLOBAL _z80_delay_ms_fastcall
535   0000              	GLOBAL _z80_delay_ms
536   0000              	GLOBAL _im2_remove_generic_callback_callee
537   0000              	GLOBAL _im2_remove_generic_callback
538   0000              	GLOBAL _im2_prepend_generic_callback_callee
539   0000              	GLOBAL _im2_prepend_generic_callback
540   0000              	GLOBAL _im2_append_generic_callback_callee
541   0000              	GLOBAL _im2_append_generic_callback
542   0000              	GLOBAL _im2_create_generic_isr_8080_callee
543   0000              	GLOBAL _im2_create_generic_isr_8080
544   0000              	GLOBAL _im2_create_generic_isr_callee
545   0000              	GLOBAL _im2_create_generic_isr
546   0000              	GLOBAL _im2_install_isr_callee
547   0000              	GLOBAL _im2_install_isr
548   0000              	GLOBAL _im2_init_fastcall
549   0000              	GLOBAL _im2_init
550   0000              	GLOBAL _intrinsic_swap_word_32_fastcall
551   0000              	GLOBAL _intrinsic_swap_word_32
552   0000              	GLOBAL _intrinsic_swap_endian_32_fastcall
553   0000              	GLOBAL _intrinsic_swap_endian_32
554   0000              	GLOBAL _intrinsic_swap_endian_16_fastcall
555   0000              	GLOBAL _intrinsic_swap_endian_16
556   0000              	GLOBAL _intrinsic_return_de
557   0000              	GLOBAL _intrinsic_return_bc
558   0000              	GLOBAL _intrinsic_exx
559   0000              	GLOBAL _intrinsic_ex_de_hl
560   0000              	GLOBAL _intrinsic_nop
561   0000              	GLOBAL _intrinsic_im_2
562   0000              	GLOBAL _intrinsic_im_1
563   0000              	GLOBAL _intrinsic_im_0
564   0000              	GLOBAL _intrinsic_retn
565   0000              	GLOBAL _intrinsic_reti
566   0000              	GLOBAL _intrinsic_halt
567   0000              	GLOBAL _intrinsic_ei
568   0000              	GLOBAL _intrinsic_di
569   0000              	GLOBAL _intrinsic_stub
570   0000              	GLOBAL _intrinsic_ini
571   0000              	GLOBAL _intrinsic_outi
572   0000              	GLOBAL _intrinsic_ldi
573   0000              	GLOBAL _zx_pattern_fill_callee
574   0000              	GLOBAL _zx_pattern_fill
575   0000              	GLOBAL _zx_saddrpup_fastcall
576   0000              	GLOBAL _zx_saddrpup
577   0000              	GLOBAL _zx_saddrpright_callee
578   0000              	GLOBAL _zx_saddrpright
579   0000              	GLOBAL _zx_saddrpleft_callee
580   0000              	GLOBAL _zx_saddrpleft
581   0000              	GLOBAL _zx_saddrpdown_fastcall
582   0000              	GLOBAL _zx_saddrpdown
583   0000              	GLOBAL _zx_saddrcup_fastcall
584   0000              	GLOBAL _zx_saddrcup
585   0000              	GLOBAL _zx_saddrcright_fastcall
586   0000              	GLOBAL _zx_saddrcright
587   0000              	GLOBAL _zx_saddrcleft_fastcall
588   0000              	GLOBAL _zx_saddrcleft
589   0000              	GLOBAL _zx_saddrcdown_fastcall
590   0000              	GLOBAL _zx_saddrcdown
591   0000              	GLOBAL _zx_saddr2py_fastcall
592   0000              	GLOBAL _zx_saddr2py
593   0000              	GLOBAL _zx_saddr2px_fastcall
594   0000              	GLOBAL _zx_saddr2px
595   0000              	GLOBAL _zx_saddr2cy_fastcall
596   0000              	GLOBAL _zx_saddr2cy
597   0000              	GLOBAL _zx_saddr2cx_fastcall
598   0000              	GLOBAL _zx_saddr2cx
599   0000              	GLOBAL _zx_saddr2aaddr_fastcall
600   0000              	GLOBAL _zx_saddr2aaddr
601   0000              	GLOBAL _zx_py2saddr_fastcall
602   0000              	GLOBAL _zx_py2saddr
603   0000              	GLOBAL _zx_py2aaddr_fastcall
604   0000              	GLOBAL _zx_py2aaddr
605   0000              	GLOBAL _zx_pxy2saddr_callee
606   0000              	GLOBAL _zx_pxy2saddr
607   0000              	GLOBAL _zx_pxy2aaddr_callee
608   0000              	GLOBAL _zx_pxy2aaddr
609   0000              	GLOBAL _zx_px2bitmask_fastcall
610   0000              	GLOBAL _zx_px2bitmask
611   0000              	GLOBAL _zx_cy2saddr_fastcall
612   0000              	GLOBAL _zx_cy2saddr
613   0000              	GLOBAL _zx_cy2aaddr_fastcall
614   0000              	GLOBAL _zx_cy2aaddr
615   0000              	GLOBAL _zx_cxy2saddr_callee
616   0000              	GLOBAL _zx_cxy2saddr
617   0000              	GLOBAL _zx_cxy2aaddr_callee
618   0000              	GLOBAL _zx_cxy2aaddr
619   0000              	GLOBAL _zx_bitmask2px_fastcall
620   0000              	GLOBAL _zx_bitmask2px
621   0000              	GLOBAL _zx_aaddrcup_fastcall
622   0000              	GLOBAL _zx_aaddrcup
623   0000              	GLOBAL _zx_aaddrcright_fastcall
624   0000              	GLOBAL _zx_aaddrcright
625   0000              	GLOBAL _zx_aaddrcleft_fastcall
626   0000              	GLOBAL _zx_aaddrcleft
627   0000              	GLOBAL _zx_aaddrcdown_fastcall
628   0000              	GLOBAL _zx_aaddrcdown
629   0000              	GLOBAL _zx_aaddr2saddr_fastcall
630   0000              	GLOBAL _zx_aaddr2saddr
631   0000              	GLOBAL _zx_aaddr2py_fastcall
632   0000              	GLOBAL _zx_aaddr2py
633   0000              	GLOBAL _zx_aaddr2px_fastcall
634   0000              	GLOBAL _zx_aaddr2px
635   0000              	GLOBAL _zx_aaddr2cy_fastcall
636   0000              	GLOBAL _zx_aaddr2cy
637   0000              	GLOBAL _zx_aaddr2cx_fastcall
638   0000              	GLOBAL _zx_aaddr2cx
639   0000              	GLOBAL _zx_visit_wc_pix_callee
640   0000              	GLOBAL _zx_visit_wc_pix
641   0000              	GLOBAL _zx_visit_wc_attr_callee
642   0000              	GLOBAL _zx_visit_wc_attr
643   0000              	GLOBAL _zx_scroll_wc_up_pix_callee
644   0000              	GLOBAL _zx_scroll_wc_up_pix
645   0000              	GLOBAL _zx_scroll_wc_up_attr_callee
646   0000              	GLOBAL _zx_scroll_wc_up_attr
647   0000              	GLOBAL _zx_scroll_wc_up_callee
648   0000              	GLOBAL _zx_scroll_wc_up
649   0000              	GLOBAL _zx_scroll_up_pix_callee
650   0000              	GLOBAL _zx_scroll_up_pix
651   0000              	GLOBAL _zx_scroll_up_attr_callee
652   0000              	GLOBAL _zx_scroll_up_attr
653   0000              	GLOBAL _zx_scroll_up_callee
654   0000              	GLOBAL _zx_scroll_up
655   0000              	GLOBAL _zx_cls_wc_pix_callee
656   0000              	GLOBAL _zx_cls_wc_pix
657   0000              	GLOBAL _zx_cls_wc_attr_callee
658   0000              	GLOBAL _zx_cls_wc_attr
659   0000              	GLOBAL _zx_cls_wc_callee
660   0000              	GLOBAL _zx_cls_wc
661   0000              	GLOBAL _zx_cls_pix_fastcall
662   0000              	GLOBAL _zx_cls_pix
663   0000              	GLOBAL _zx_cls_attr_fastcall
664   0000              	GLOBAL _zx_cls_attr
665   0000              	GLOBAL _zx_cls_fastcall
666   0000              	GLOBAL _zx_cls
667   0000              	GLOBAL _zx_border_fastcall
668   0000              	GLOBAL _zx_border
669   0000              	GLOBAL _zx_tape_verify_block_callee
670   0000              	GLOBAL _zx_tape_verify_block
671   0000              	GLOBAL _zx_tape_save_block_callee
672   0000              	GLOBAL _zx_tape_save_block
673   0000              	GLOBAL _zx_tape_load_block_callee
674   0000              	GLOBAL _zx_tape_load_block
675   0000              	GLOBAL _spr_draw8
676   0000              	GLOBAL _spr_destroy
677   0000              	GLOBAL _spr_unflattenP1
678   0000              	GLOBAL _spr_flatten
679   0000              	GLOBAL _spr_btile_paint_back
680   0000              	GLOBAL _spr_turn_horizontal
681   0000              	GLOBAL _spr_play_anim
682   0000              	GLOBAL _spr_add_anim
683   0000              	GLOBAL _spr_clear_scr
684   0000              	GLOBAL _spr_back_repaint
685   0000              	GLOBAL _spr_get_tile_dir
686   0000              	GLOBAL _spr_get_tile
687   0000              	GLOBAL _spr_paint_player
688   0000              	GLOBAL _spr_paint
689   0000              	GLOBAL _spr_move_left
690   0000              	GLOBAL _spr_move_right
691   0000              	GLOBAL _spr_move_left_f
692   0000              	GLOBAL _spr_move_right_f
693   0000              	GLOBAL _spr_move_horizontal
694   0000              	GLOBAL _spr_move_down_f
695   0000              	GLOBAL _spr_move_up_f
696   0000              	GLOBAL _spr_move_down
697   0000              	GLOBAL _spr_move_up
698   0000              	GLOBAL _spr_set_right
699   0000              	GLOBAL _spr_set_left
700   0000              	GLOBAL _spr_set_down
701   0000              	GLOBAL _spr_set_up
702   0000              	GLOBAL _spr_calc_index
703   0000              	GLOBAL _spr_chktime
704   0000              	GLOBAL _player_pick
705   0000              	GLOBAL _player_use_floor
706   0000              	GLOBAL _player_lost_life
707   0000              	GLOBAL _player_move_jump
708   0000              	GLOBAL _player_tile
709   0000              	GLOBAL _player_pick_extra
710   0000              	GLOBAL _player_pick_exit
711   0000              	GLOBAL _player_pick_deadly
712   0000              	GLOBAL _player_pick_item
713   0000              	GLOBAL _player_check_ceil
714   0000              	GLOBAL _player_check_floor
715   0000              	GLOBAL _player_score_add
716   0000              	GLOBAL _player_move_walk
717   0000              	GLOBAL _player_turn
718   0000              	GLOBAL _player_move
719   0000              	GLOBAL _player_check_input
720   0000              	GLOBAL _player_init
721   0000              	GLOBAL _menu_define_key
722   0000              	GLOBAL _menu_redefine
723   0000              	GLOBAL _menu_main_print
724   0000              	GLOBAL _menu_main
725   0000              	GLOBAL _game_update_stats
726   0000              	GLOBAL _game_fill_row
727   0000              	GLOBAL _enemy_kill
728   0000              	GLOBAL _enemy_init
729   0000              	GLOBAL _enemy_move
730   0000              	GLOBAL _enemy_turn
731   0000              	GLOBAL _enemy_static
732   0000              	GLOBAL _enemy_walk
733   0000              	GLOBAL _enemy_horizontal
734   0000              	GLOBAL _enemy_vertical
735   0000              	GLOBAL _ay_reset
736   0000              	GLOBAL _ay_song_stop
737   0000              	GLOBAL _ay_song_play
738   0000              	GLOBAL _ay_fx_stop
739   0000              	GLOBAL _ay_fx_play
740   0000              	GLOBAL _ay_is_playing
741   0000              	GLOBAL _audio_levelup
742   0000              	GLOBAL _audio_menu
743   0000              	GLOBAL _audio_game_end
744   0000              	GLOBAL _audio_game_start
745   0000              	GLOBAL _audio_level_complete
746   0000              	GLOBAL _audio_level_start
747   0000              	GLOBAL _audio_puerta
748   0000              	GLOBAL _audio_tick
749   0000              	GLOBAL _audio_door
750   0000              	GLOBAL _audio_coin
751   0000              	GLOBAL _audio_fall
752   0000              	GLOBAL _audio_jump
753   0000              	GLOBAL _audio_dead
754   0000              	GLOBAL _audio_ingame
755   0000              	GLOBAL _test_func
756   0000              	GLOBAL _test_proc
757   0000              	GLOBAL _in_mouse_kempston_wheel_delta
758   0000              	GLOBAL _in_mouse_kempston_wheel
759   0000              	GLOBAL _in_mouse_kempston_callee
760   0000              	GLOBAL _in_mouse_kempston
761   0000              	GLOBAL _in_mouse_kempston_setpos_callee
762   0000              	GLOBAL _in_mouse_kempston_setpos
763   0000              	GLOBAL _in_mouse_kempston_reset
764   0000              	GLOBAL _in_mouse_kempston_init
765   0000              	GLOBAL _in_mouse_amx_wheel_delta
766   0000              	GLOBAL _in_mouse_amx_wheel
767   0000              	GLOBAL _in_mouse_amx_callee
768   0000              	GLOBAL _in_mouse_amx
769   0000              	GLOBAL _in_mouse_amx_setpos_callee
770   0000              	GLOBAL _in_mouse_amx_setpos
771   0000              	GLOBAL _in_mouse_amx_reset
772   0000              	GLOBAL _in_mouse_amx_init_callee
773   0000              	GLOBAL _in_mouse_amx_init
774   0000              	GLOBAL _in_stick_sinclair2
775   0000              	GLOBAL _in_stick_sinclair1
776   0000              	GLOBAL _in_stick_kempston
777   0000              	GLOBAL _in_stick_fuller
778   0000              	GLOBAL _in_stick_cursor
779   0000              	GLOBAL _in_stick_keyboard_fastcall
780   0000              	GLOBAL _in_stick_keyboard
781   0000              	GLOBAL _in_wait_nokey
782   0000              	GLOBAL _in_wait_key
783   0000              	GLOBAL _in_test_key
784   0000              	GLOBAL _in_pause_fastcall
785   0000              	GLOBAL _in_pause
786   0000              	GLOBAL _in_key_scancode_fastcall
787   0000              	GLOBAL _in_key_scancode
788   0000              	GLOBAL _in_key_pressed_fastcall
789   0000              	GLOBAL _in_key_pressed
790   0000              	GLOBAL _in_inkey
791   0000              	GLOBAL _NIRVANAP_CHAR_TABLE
792   0000              	GLOBAL _NIRVANAP_WIDE_IMAGES
793   0000              	GLOBAL _NIRVANAP_TILE_IMAGES
794   0000              	GLOBAL _NIRVANAP_HOLE
795   0000              	GLOBAL _NIRVANAP_ISR_HOOK
796   0000              	GLOBAL _air_curr_byte
797   0000              	GLOBAL _spr_init_bright
798   0000              	GLOBAL _spr_init_cout3
799   0000              	GLOBAL _spr_init_cin3
800   0000              	GLOBAL _spr_init_cout2
801   0000              	GLOBAL _spr_init_cin2
802   0000              	GLOBAL _spr_init_cout1
803   0000              	GLOBAL _spr_init_cin1
804   0000              	GLOBAL _spr_init_cout0
805   0000              	GLOBAL _spr_init_cin0
806   0000              	GLOBAL _scan_map
807   0000              	GLOBAL _map_paper_last
808   0000              	GLOBAL _map_paper_clr
809   0000              	GLOBAL _map_paper
810   0000              	GLOBAL _map_border
811   0000              	GLOBAL _anim_count
812   0000              	GLOBAL _anim_loop
813   0000              	GLOBAL _anim_end
814   0000              	GLOBAL _anim_int
815   0000              	GLOBAL _anim_tile
816   0000              	GLOBAL _anim_col
817   0000              	GLOBAL _anim_lin
818   0000              	GLOBAL _map_heigth
819   0000              	GLOBAL _map_width
820   0000              	GLOBAL _scr_curr
821   0000              	GLOBAL _scr_map
822   0000              	GLOBAL _spr_kind
823   0000              	GLOBAL _spr_frames
824   0000              	GLOBAL _spr_speed
825   0000              	GLOBAL _spr_tile
826   0000              	GLOBAL _screen_ink
827   0000              	GLOBAL _screen_paper
828   0000              	GLOBAL _game_start_scr
829   0000              	GLOBAL _game_score_top
830   0000              	GLOBAL _player_coins
831   0000              	GLOBAL _player_lives
832   0000              	GLOBAL _game_over
833   0000              	GLOBAL _game_tile_cnt
834   0000              	GLOBAL _game_sound
835   0000              	GLOBAL _game_inf_lives
836   0000              	GLOBAL _game_inmune
837   0000              	GLOBAL _sprite_curr_index
838   0000              	GLOBAL _spr_count
839   0000              	GLOBAL _key_ink
840   0000              	GLOBAL _key_last
841   0000              	GLOBAL _anim_time
842   0000              	GLOBAL _air_time
843   0000              	GLOBAL _frame_time
844   0000              	GLOBAL _curr_time
845   0000              	GLOBAL _p_state_a
846   0000              	GLOBAL _p_state
847   0000              	GLOBAL _key_attrib
848   0000              	GLOBAL _game_attrib_osd
849   0000              	GLOBAL _attrib_osd
850   0000              	GLOBAL _attrib_hl
851   0000              	GLOBAL _attrib
852   0000              	GLOBAL _zx_val_asm
853   0000              	GLOBAL _enemies
854   0000              	GLOBAL _tmp_ui
855   0000              	GLOBAL _index1
856   0000              	GLOBAL _index0
857   0000              	GLOBAL _index_tmp
858   0000              	GLOBAL _loop_count
859   0000              	GLOBAL _s_class
860   0000              	GLOBAL _s_row1
861   0000              	GLOBAL _s_col1
862   0000              	GLOBAL _s_col0
863   0000              	GLOBAL _s_lin1
864   0000              	GLOBAL _s_lin0
865   0000              	GLOBAL _s_tile1
866   0000              	GLOBAL _s_tile0
867   0000              	GLOBAL _nirv_sprite_index
868   0000              	GLOBAL _player_kill_index
869   0000              	GLOBAL _player_killed
870   0000              	GLOBAL _player_jump_top
871   0000              	GLOBAL _game_fps_show
872   0000              	GLOBAL _game_debug
873   0000              	GLOBAL _sprite
874   0000              	GLOBAL _fps
875   0000              	GLOBAL _game_mode
876   0000              	GLOBAL _game_tileset
877   0000              	GLOBAL _menu_curr_sel
878   0000              	GLOBAL _game_round_up
879   0000              	GLOBAL _game_playing
880   0000              	GLOBAL _game_exit_lin
881   0000              	GLOBAL _game_exit_col
882   0000              	GLOBAL _game_conveyor_col1
883   0000              	GLOBAL _game_conveyor_col0
884   0000              	GLOBAL _game_conveyor_lin
885   0000              	GLOBAL _game_conveyor_dir
886   0000              	GLOBAL _game_song_play_start
887   0000              	GLOBAL _game_song_play
888   0000              	GLOBAL _game_world
889   0000              	GLOBAL _game_gravity
890   0000              	GLOBAL _player_jumpcount
891   0000              	GLOBAL _player_hit
892   0000              	GLOBAL _player_hit_time
893   0000              	GLOBAL _player_lin_scr
894   0000              	GLOBAL _player_col_scr
895   0000              	GLOBAL _player_fall_start
896   0000              	GLOBAL _player_jump_count
897   0000              	GLOBAL _player_jump_hack
898   0000              	GLOBAL _player_vel_inc
899   0000              	GLOBAL _player_vel_y0
900   0000              	GLOBAL _player_vel_y
901   0000              	GLOBAL _player_score
902   0000              	GLOBAL _tbuffer
903   0000              	GLOBAL _obj_count
904   0000              	GLOBAL _obj_col
905   0000              	GLOBAL _obj_lin
906   0000              	GLOBAL _spr_timer
907   0000              	GLOBAL _last_time
908   0000              	GLOBAL _colint
909   0000              	GLOBAL _col
910   0000              	GLOBAL _lin
911   0000              	GLOBAL _tile
912   0000              	GLOBAL _value_b
913   0000              	GLOBAL _value_a
914   0000              	GLOBAL _state_a
915   0000              	GLOBAL _state
916   0000              	GLOBAL _class
917   0000              	GLOBAL _dirs
918   0000              	GLOBAL _k1
919   0000              	GLOBAL _joyfunc2
920   0000              	GLOBAL _joyfunc1
921   0000              	GLOBAL _btiles
922   0000              	GLOBAL _v3
923   0000              	GLOBAL _v2
924   0000              	GLOBAL _v1
925   0000              	GLOBAL _v0
926   0000              	GLOBAL _i
927   0000              	GLOBAL _spec128
928   0000              	GLOBAL _GLOBAL_ZX_PORT_7FFD
929   0000              	GLOBAL _GLOBAL_ZX_PORT_1FFD
930   0000              	GLOBAL _GLOBAL_ZX_PORT_FE
931   0000              	GLOBAL _hitiles2
932   0000              	GLOBAL _hitiles1
933   0000              	GLOBAL _ay_fx_door
934   0000              	GLOBAL _ay_fx_tick
935   0000              	GLOBAL _ay_fx_game_start
936   0000              	GLOBAL _ay_fx_fall
937   0000              	GLOBAL _ay_fx_jump
938   0000              	GLOBAL _ay_fx_dead
939   0000              	GLOBAL _ay_fx_coin
940   0000              	GLOBAL _ay_song_menu
941   0000              	GLOBAL _ay_song_ingame1
942   0000              	GLOBAL _ay_song_ingame0
943   0000              	GLOBAL _hisprites2
944   0000              	GLOBAL _hisprites1
945   0000              	GLOBAL _air_end_byte
946   0000              	GLOBAL _air_start_byte
947   0000              	GLOBAL _tile_class
948   0000              	GLOBAL _key_map
949   0000              	GLOBAL _paper0
950   0000              	GLOBAL _lenght0
951   0000              	GLOBAL _world0
952   0000              	GLOBAL _spr_init_len
953   0000              	GLOBAL _spr_init
954   0000              ;--------------------------------------------------------
955   0000              ; special function registers
956   0000              ;--------------------------------------------------------
957   0000              defc _IO_FE	=	0x00fe
958   0000              defc _IO_1FFD	=	0x1ffd
959   0000              defc _IO_7FFD	=	0x7ffd
960   0000              ;--------------------------------------------------------
961   0000              ; ram data
962   0000              ;--------------------------------------------------------
963   0000              	SECTION bss_compiler
964   0000              ;--------------------------------------------------------
965   0000              ; ram data
966   0000              ;--------------------------------------------------------
967   0000              
968   0000              IF 0
969   0000              
970   0000              ; .area _INITIALIZED removed by z88dk
971   0000              
972   0000              
973   0000              ENDIF
974   0000              
975   0000              ;--------------------------------------------------------
976   0000              ; absolute external ram data
977   0000              ;--------------------------------------------------------
978   0000              	SECTION IGNORE
979   0000              ;--------------------------------------------------------
980   0000              ; global & static initialisations
981   0000              ;--------------------------------------------------------
982   0000              	SECTION code_crt_init
983   0000              ;--------------------------------------------------------
984   0000              ; Home
985   0000              ;--------------------------------------------------------
986   0000              	SECTION IGNORE
987   0000              ;--------------------------------------------------------
988   0000              ; code
989   0000              ;--------------------------------------------------------
990   0000              	SECTION code_compiler
991   0000              ;	---------------------------------
992   0000              ; Function game_tick
993   0000              ; ---------------------------------
994   0000              _game_tick:
995   0000  21 00 00    	ld	hl,_curr_time
996   0003  34          	inc	(hl)
997   0004  C2 00 00    	jp	NZ,_zx_isr
998   0007  23          	inc	hl
999   0008  34          	inc	(hl)
1000  0009  C3 00 00    	jp  _zx_isr
1001  000C              	SECTION code_compiler
1002  000C              ;	---------------------------------
1003  000C              ; Function game_loop
1004  000C              ; ---------------------------------
1005  000C              _game_loop:
1006  000C  21 00 00    	ld	hl,_player_lives
1007  000F  36 03       	ld	(hl),0x03
1008  0011  21 00 00    	ld	hl,0x0000
1009  0014  22 00 00    	ld	(_player_score),hl
1010  0017  21 00 00    	ld	hl,_game_over
1011  001A  36 00       	ld	(hl),0x00
1012  001C  21 00 00    	ld	hl,_game_round_up
1013  001F  36 00       	ld	(hl),0x00
1014  0021  21 00 00    	ld	hl,_game_world
1015  0024  36 00       	ld	(hl),0x00
1016  0026  21 00 00    	ld	hl,_map_paper
1017  0029  36 00       	ld	(hl),0x00
1018  002B  21 00 00    	ld	hl,_player_lin_scr
1019  002E  36 68       	ld	(hl),0x68
1020  0030  21 00 00    	ld	hl,_player_col_scr
1021  0033  36 02       	ld	(hl),0x02
1022  0035  CD 96 05    	call	_game_round_init
1023  0038              l_game_loop_00119:
1024  0038  3A 00 00    	ld	a,(_game_over)
1025  003B  B7          	or	a, a
1026  003C  C2 08 01    	jp	NZ, l_game_loop_00122
1027  003F  21 00 00    	ld	hl,_dirs
1028  0042  36 00       	ld	(hl),0x00
1029  0044  21 00 00    	ld	hl,_game_playing
1030  0047  36 01       	ld	(hl),0x01
1031  0049              l_game_loop_00114:
1032  0049  3A 00 00    	ld	a,(_game_round_up)
1033  004C  B7          	or	a, a
1034  004D  C2 DC 00    	jp	NZ, l_game_loop_00116
1035  0050  3A 00 00    	ld	a,(_game_over)
1036  0053  B7          	or	a, a
1037  0054  C2 DC 00    	jp	NZ, l_game_loop_00116
1038  0057  2A 00 00    	ld	hl,(_map_border)
1039  005A  CD 00 00    	call	_zx_border_fastcall
1040  005D  CD 00 00    	call	_enemy_turn
1041  0060  CD 00 00    	call	_player_turn
1042  0063  3A 00 00    	ld	a,(_loop_count)
1043  0066  E6 03       	and	a,0x03
1044  0068  20 03       	jr	NZ,l_game_loop_00102
1045  006A  CD 75 0C    	call	_game_key_paint
1046  006D              l_game_loop_00102:
1047  006D  3A 00 00    	ld	a,(_loop_count)
1048  0070  E6 0F       	and	a,0x0f
1049  0072  20 19       	jr	NZ,l_game_loop_00106
1050  0074  21 00 00    	ld	hl,_game_conveyor_col0
1051  0077  7E          	ld	a, (hl)
1052  0078  B7          	or	a, a
1053  0079  28 03       	jr	Z,l_game_loop_00104
1054  007B  CD BE 04    	call	_game_anim_conveyor
1055  007E              l_game_loop_00104:
1056  007E  2A FF FF    	ld	hl,(_game_exit_col - 1)
1057  0081  3A 00 00    	ld	a,(_game_exit_lin)
1058  0084  6F          	ld	l,a
1059  0085  E5          	push	hl
1060  0086  21 06 07    	ld	hl,0x0706
1061  0089  E5          	push	hl
1062  008A  CD 00 00    	call	_NIRVANAP_spriteT_callee
1063  008D              l_game_loop_00106:
1064  008D  3E 19       	ld	a,0x19
1065  008F  F5          	push	af
1066  0090  33          	inc	sp
1067  0091  21 00 00    	ld	hl,_air_time
1068  0094  E5          	push	hl
1069  0095  CD 4B 0C    	call	_game_check_time
1070  0098  F1          	pop	af
1071  0099  33          	inc	sp
1072  009A  7D          	ld	a, l
1073  009B  B7          	or	a, a
1074  009C  28 0A       	jr	Z,l_game_loop_00108
1075  009E  CD 71 04    	call	_game_anim_air
1076  00A1  2A 00 00    	ld	hl,(_curr_time)
1077  00A4  22 00 00    	ld	(_air_time),hl
1078  00A7  76          	halt
1079  00A8              l_game_loop_00108:
1080  00A8  3E 64       	ld	a,0x64
1081  00AA  F5          	push	af
1082  00AB  33          	inc	sp
1083  00AC  21 00 00    	ld	hl,_frame_time
1084  00AF  E5          	push	hl
1085  00B0  CD 4B 0C    	call	_game_check_time
1086  00B3  F1          	pop	af
1087  00B4  33          	inc	sp
1088  00B5  7D          	ld	a, l
1089  00B6  B7          	or	a, a
1090  00B7  28 0F       	jr	Z,l_game_loop_00112
1091  00B9  2A 00 00    	ld	hl,(_curr_time)
1092  00BC  22 00 00    	ld	(_frame_time),hl
1093  00BF  3A 00 00    	ld	a,(_game_debug)
1094  00C2  B7          	or	a,a
1095  00C3  28 03       	jr	Z,l_game_loop_00112
1096  00C5  CD 09 01    	call	_game_fps
1097  00C8              l_game_loop_00112:
1098  00C8  21 00 00    	ld	hl,_loop_count
1099  00CB  34          	inc	(hl)
1100  00CC  20 02       	jr	NZ,l_game_loop_00176
1101  00CE  23          	inc	hl
1102  00CF  34          	inc	(hl)
1103  00D0              l_game_loop_00176:
1104  00D0  21 00 00    	ld	hl,_fps
1105  00D3  34          	inc	(hl)
1106  00D4  C2 49 00    	jp	NZ,l_game_loop_00114
1107  00D7  23          	inc	hl
1108  00D8  34          	inc	(hl)
1109  00D9  C3 49 00    	jp	l_game_loop_00114
1110  00DC              l_game_loop_00116:
1111  00DC  3A 00 00    	ld	a,(_game_round_up)
1112  00DF  B7          	or	a, a
1113  00E0  CA 38 00    	jp	Z, l_game_loop_00119
1114  00E3  21 00 00    	ld	hl,_game_playing
1115  00E6  36 00       	ld	(hl),0x00
1116  00E8  CD 96 05    	call	_game_round_init
1117  00EB  2A FF FF    	ld	hl,(_game_exit_col - 1)
1118  00EE  3A 00 00    	ld	a,(_game_exit_lin)
1119  00F1  6F          	ld	l,a
1120  00F2  E5          	push	hl
1121  00F3  21 06 07    	ld	hl,0x0706
1122  00F6  E5          	push	hl
1123  00F7  CD 00 00    	call	_NIRVANAP_spriteT_callee
1124  00FA  76          	halt
1125  00FB  21 00 00    	ld	hl,_game_round_up
1126  00FE  36 00       	ld	(hl),0x00
1127  0100  21 00 00    	ld	hl,_game_playing
1128  0103  36 01       	ld	(hl),0x01
1129  0105  C3 38 00    	jp	l_game_loop_00119
1130  0108              l_game_loop_00122:
1131  0108  C9          	ret
1132  0109              	SECTION code_compiler
1133  0109              ;	---------------------------------
1134  0109              ; Function game_fps
1135  0109              ; ---------------------------------
1136  0109              _game_fps:
1137  0109  21 00 00    	ld	hl,_screen_ink
1138  010C  36 07       	ld	(hl),0x07
1139  010E  2A 00 00    	ld	hl,(_fps)
1140  0111  E5          	push	hl
1141  0112  21 17 18    	ld	hl,0x1817
1142  0115  E5          	push	hl
1143  0116  CD 00 00    	call	_zx_print_int
1144  0119  21 00 00    	ld	hl,0x0000
1145  011C  22 00 00    	ld	(_fps),hl
1146  011F  C9          	ret
1147  0120              	SECTION code_compiler
1148  0120              ;	---------------------------------
1149  0120              ; Function game_draw_map
1150  0120              ; ---------------------------------
1151  0120              _game_draw_map:
1152  0120  CD 00 00    	call	___sdcc_enter_ix
1153  0123  F5          	push	af
1154  0124  F5          	push	af
1155  0125  76          	halt
1156  0126  21 00 00    	ld	hl,_screen_ink
1157  0129  36 07       	ld	(hl),0x07
1158  012B  21 00 00    	ld	hl,_v0
1159  012E  36 00       	ld	(hl),0x00
1160  0130              l_game_draw_map_00101:
1161  0130  21 00 00    	ld	hl,_v0
1162  0133  7E          	ld	a, (hl)
1163  0134  D6 0F       	sub	a,0x0f
1164  0136  30 0E       	jr	NC,l_game_draw_map_00103
1165  0138  3E 00       	ld	a, +((_class) & 0xFF)
1166  013A  86          	add	a, (hl)
1167  013B  4F          	ld	c, a
1168  013C  3E 00       	ld	a, +((_class) / 256)
1169  013E  CE 00       	adc	a,0x00
1170  0140  47          	ld	b, a
1171  0141  AF          	xor	a, a
1172  0142  02          	ld	(bc), a
1173  0143  34          	inc	(hl)
1174  0144  18 EA       	jr	l_game_draw_map_00101
1175  0146              l_game_draw_map_00103:
1176  0146  21 00 00    	ld	hl,_spr_count
1177  0149  36 00       	ld	(hl),0x00
1178  014B  21 00 00    	ld	hl,0x0000
1179  014E  22 00 00    	ld	(_index1),hl
1180  0151  21 00 00    	ld	hl,_s_row1
1181  0154  36 01       	ld	(hl),0x01
1182  0156  21 00 00    	ld	hl,_s_lin1
1183  0159  36 10       	ld	(hl),0x10
1184  015B  21 00 00    	ld	hl,_s_col1
1185  015E  36 00       	ld	(hl),0x00
1186  0160  21 00 00    	ld	hl,_obj_count
1187  0163  36 00       	ld	(hl),0x00
1188  0165  21 00 00    	ld	hl,_game_conveyor_lin
1189  0168  36 00       	ld	(hl),0x00
1190  016A  21 00 00    	ld	hl,_game_conveyor_col0
1191  016D  36 00       	ld	(hl),0x00
1192  016F  21 00 00    	ld	hl,_game_conveyor_col1
1193  0172  36 00       	ld	(hl),0x00
1194  0174  CD 00 00    	call	_NIRVANAP_stop
1195  0177  21 00 00    	ld	hl,_map_paper
1196  017A  7E          	ld	a, (hl)
1197  017B  0F          	rrca
1198  017C  0F          	rrca
1199  017D  0F          	rrca
1200  017E  E6 1F       	and	a,0x1f
1201  0180  B6          	or	a, (hl)
1202  0181  32 00 00    	ld	(_attrib_hl),a
1203  0184  32 01 00    	ld	((_attrib_hl + 0x0001)),a
1204  0187  32 02 00    	ld	((_attrib_hl + 0x0002)),a
1205  018A  32 03 00    	ld	((_attrib_hl + 0x0003)),a
1206  018D  DD 36 FC 00 	ld	(ix-4),0x00
1207  0191              l_game_draw_map_00132:
1208  0191  21 01 00    	ld	hl,_index1 + 1
1209  0194  7E          	ld	a, (hl)
1210  0195  D6 02       	sub	a,0x02
1211  0197  D2 39 03    	jp	NC, l_game_draw_map_00134
1212  019A  3E 00       	ld	a, +((_scr_map) & 0xFF)
1213  019C  2B          	dec	hl
1214  019D  86          	add	a, (hl)
1215  019E  4F          	ld	c, a
1216  019F  3E 00       	ld	a, +((_scr_map) / 256)
1217  01A1  23          	inc	hl
1218  01A2  8E          	adc	a, (hl)
1219  01A3  47          	ld	b, a
1220  01A4  0A          	ld	a, (bc)
1221  01A5  DD 77 FD    	ld	(ix-3),a
1222  01A8  46          	ld	b,(hl)
1223  01A9  2B          	dec	hl
1224  01AA  4E          	ld	c,(hl)
1225  01AB  03          	inc	bc
1226  01AC  21 00 00    	ld	hl,_scr_map
1227  01AF  09          	add	hl,bc
1228  01B0  DD 75 FE    	ld	(ix-2),l
1229  01B3  DD 74 FF    	ld	(ix-1),h
1230  01B6  4E          	ld	c, (hl)
1231  01B7  DD 7E FD    	ld	a,(ix-3)
1232  01BA  D6 20       	sub	a,0x20
1233  01BC  D2 6E 02    	jp	NC, l_game_draw_map_00128
1234  01BF  3A 00 00    	ld	a,(_s_row1)
1235  01C2  07          	rlca
1236  01C3  07          	rlca
1237  01C4  07          	rlca
1238  01C5  E6 F8       	and	a,0xf8
1239  01C7  47          	ld	b, a
1240  01C8  3A 00 00    	ld	a,(_s_col1)
1241  01CB  C5          	push	bc
1242  01CC  48          	ld	c,b
1243  01CD  47          	ld	b,a
1244  01CE  C5          	push	bc
1245  01CF  DD 7E FD    	ld	a,(ix-3)
1246  01D2  F5          	push	af
1247  01D3  33          	inc	sp
1248  01D4  CD 00 00    	call	_spr_draw8
1249  01D7  F1          	pop	af
1250  01D8  33          	inc	sp
1251  01D9  C1          	pop	bc
1252  01DA  3E 00       	ld	a, +((_tile_class) & 0xFF)
1253  01DC  DD 86 FD    	add	a,(ix-3)
1254  01DF  6F          	ld	l, a
1255  01E0  3E 00       	ld	a, +((_tile_class) / 256)
1256  01E2  CE 00       	adc	a,0x00
1257  01E4  67          	ld	h, a
1258  01E5  5E          	ld	e, (hl)
1259  01E6  06 00       	ld	b,0x00
1260  01E8  21 00 00    	ld	hl,_tile_class
1261  01EB  09          	add	hl, bc
1262  01EC  56          	ld	d, (hl)
1263  01ED  7B          	ld	a, e
1264  01EE  D6 08       	sub	a,0x08
1265  01F0  20 1E       	jr	NZ,l_game_draw_map_00105
1266  01F2  2A 00 00    	ld	hl,(_obj_count)
1267  01F5  26 00       	ld	h,0x00
1268  01F7  01 00 00    	ld	bc,_obj_col
1269  01FA  09          	add	hl,bc
1270  01FB  3A 00 00    	ld	a,(_s_col1)
1271  01FE  77          	ld	(hl),a
1272  01FF  2A 00 00    	ld	hl,(_obj_count)
1273  0202  26 00       	ld	h,0x00
1274  0204  01 00 00    	ld	bc,_obj_lin
1275  0207  09          	add	hl,bc
1276  0208  3A 00 00    	ld	a,(_s_lin1)
1277  020B  77          	ld	(hl),a
1278  020C  21 00 00    	ld	hl,_obj_count
1279  020F  34          	inc	(hl)
1280  0210              l_game_draw_map_00105:
1281  0210  7B          	ld	a, e
1282  0211  D6 04       	sub	a,0x04
1283  0213  20 04       	jr	NZ,l_game_draw_map_00215
1284  0215  3E 01       	ld	a,0x01
1285  0217  18 01       	jr	l_game_draw_map_00216
1286  0219              l_game_draw_map_00215:
1287  0219  AF          	xor	a,a
1288  021A              l_game_draw_map_00216:
1289  021A  47          	ld	b, a
1290  021B  21 00 00    	ld	hl,_s_col1
1291  021E  5E          	ld	e, (hl)
1292  021F  3A 00 00    	ld	a,(_game_conveyor_col0)
1293  0222  B7          	or	a, a
1294  0223  28 0C       	jr	Z,l_game_draw_map_00107
1295  0225  21 00 00    	ld	hl,_game_conveyor_col1
1296  0228  7E          	ld	a, (hl)
1297  0229  B7          	or	a, a
1298  022A  20 05       	jr	NZ,l_game_draw_map_00107
1299  022C  CB 40       	bit	0, b
1300  022E  20 01       	jr	NZ,l_game_draw_map_00107
1301  0230  73          	ld	(hl), e
1302  0231              l_game_draw_map_00107:
1303  0231  CB 40       	bit	0, b
1304  0233  CA 13 03    	jp	Z, l_game_draw_map_00129
1305  0236  7A          	ld	a,d
1306  0237  B7          	or	a, a
1307  0238  28 05       	jr	Z,l_game_draw_map_00115
1308  023A  D6 04       	sub	a,0x04
1309  023C  C2 13 03    	jp	NZ,l_game_draw_map_00129
1310  023F              l_game_draw_map_00115:
1311  023F  21 00 00    	ld	hl,_game_conveyor_col0
1312  0242  7E          	ld	a, (hl)
1313  0243  B7          	or	a, a
1314  0244  C2 13 03    	jp	NZ, l_game_draw_map_00129
1315  0247  73          	ld	(hl), e
1316  0248  3A 00 00    	ld	a,(_s_lin1)
1317  024B  C6 F8       	add	a,0xf8
1318  024D  32 00 00    	ld	(_game_conveyor_lin),a
1319  0250  7A          	ld	a, d
1320  0251  B7          	or	a, a
1321  0252  28 07       	jr	Z,l_game_draw_map_00111
1322  0254  21 00 00    	ld	hl,_game_conveyor_dir
1323  0257  36 01       	ld	(hl),0x01
1324  0259  18 05       	jr	l_game_draw_map_00112
1325  025B              l_game_draw_map_00111:
1326  025B  21 00 00    	ld	hl,_game_conveyor_dir
1327  025E  36 02       	ld	(hl),0x02
1328  0260              l_game_draw_map_00112:
1329  0260  ED 4B 00 00 	ld	bc,(_index1)
1330  0264  03          	inc	bc
1331  0265  21 00 00    	ld	hl,_scr_map
1332  0268  09          	add	hl, bc
1333  0269  36 04       	ld	(hl),0x04
1334  026B  C3 13 03    	jp	l_game_draw_map_00129
1335  026E              l_game_draw_map_00128:
1336  026E  DD 7E FD    	ld	a,(ix-3)
1337  0271  D6 20       	sub	a,0x20
1338  0273  20 38       	jr	NZ,l_game_draw_map_00120
1339  0275  DD 7E FC    	ld	a,(ix-4)
1340  0278  B7          	or	a, a
1341  0279  20 32       	jr	NZ,l_game_draw_map_00120
1342  027B  DD 36 FC 01 	ld	(ix-4),0x01
1343  027F  3A 00 00    	ld	a,(_s_col1)
1344  0282  32 00 00    	ld	(_game_exit_col),a
1345  0285  3A 00 00    	ld	a,(_s_lin1)
1346  0288  32 00 00    	ld	(_game_exit_lin),a
1347  028B  DD 6E FE    	ld	l,(ix-2)
1348  028E  DD 66 FF    	ld	h,(ix-1)
1349  0291  36 20       	ld	(hl),0x20
1350  0293  2A 00 00    	ld	hl,(_index1)
1351  0296  01 20 00    	ld	bc,0x0020
1352  0299  09          	add	hl,bc
1353  029A  01 00 00    	ld	bc,_scr_map
1354  029D  09          	add	hl,bc
1355  029E  36 20       	ld	(hl),0x20
1356  02A0  2A 00 00    	ld	hl,(_index1)
1357  02A3  01 21 00    	ld	bc,0x0021
1358  02A6  09          	add	hl,bc
1359  02A7  01 00 00    	ld	bc,_scr_map
1360  02AA  09          	add	hl,bc
1361  02AB  36 20       	ld	(hl),0x20
1362  02AD              l_game_draw_map_00120:
1363  02AD  DD 7E FD    	ld	a,(ix-3)
1364  02B0  D6 40       	sub	a,0x40
1365  02B2  38 2A       	jr	C,l_game_draw_map_00123
1366  02B4  DD 7E FD    	ld	a,(ix-3)
1367  02B7  D6 78       	sub	a,0x78
1368  02B9  30 23       	jr	NC,l_game_draw_map_00123
1369  02BB  3A 00 00    	ld	a,(_s_row1)
1370  02BE  07          	rlca
1371  02BF  07          	rlca
1372  02C0  07          	rlca
1373  02C1  E6 F8       	and	a,0xf8
1374  02C3  47          	ld	b, a
1375  02C4  3A 00 00    	ld	a,(_s_col1)
1376  02C7  48          	ld	c,b
1377  02C8  47          	ld	b,a
1378  02C9  C5          	push	bc
1379  02CA  AF          	xor	a, a
1380  02CB  F5          	push	af
1381  02CC  33          	inc	sp
1382  02CD  CD 00 00    	call	_spr_draw8
1383  02D0  F1          	pop	af
1384  02D1  33          	inc	sp
1385  02D2  CD 00 00    	call	_enemy_init
1386  02D5  01 00 00    	ld	bc,_scr_map
1387  02D8  2A 00 00    	ld	hl,(_index1)
1388  02DB  09          	add	hl,bc
1389  02DC  AF          	xor	a,a
1390  02DD  77          	ld	(hl),a
1391  02DE              l_game_draw_map_00123:
1392  02DE  DD 7E FD    	ld	a,(ix-3)
1393  02E1  D6 7F       	sub	a,0x7f
1394  02E3  20 2E       	jr	NZ,l_game_draw_map_00129
1395  02E5  3A 00 00    	ld	a,(_s_lin1)
1396  02E8  C6 F0       	add	a,0xf0
1397  02EA  32 00 00    	ld	(_player_lin_scr),a
1398  02ED  3A 00 00    	ld	a,(_s_col1)
1399  02F0  32 00 00    	ld	(_player_col_scr),a
1400  02F3  01 00 00    	ld	bc,_scr_map
1401  02F6  2A 00 00    	ld	hl,(_index1)
1402  02F9  09          	add	hl,bc
1403  02FA  AF          	xor	a,a
1404  02FB  77          	ld	(hl),a
1405  02FC  3A 00 00    	ld	a,(_s_row1)
1406  02FF  07          	rlca
1407  0300  07          	rlca
1408  0301  07          	rlca
1409  0302  E6 F8       	and	a,0xf8
1410  0304  47          	ld	b, a
1411  0305  3A 00 00    	ld	a,(_s_col1)
1412  0308  48          	ld	c,b
1413  0309  47          	ld	b,a
1414  030A  C5          	push	bc
1415  030B  AF          	xor	a, a
1416  030C  F5          	push	af
1417  030D  33          	inc	sp
1418  030E  CD 00 00    	call	_spr_draw8
1419  0311  F1          	pop	af
1420  0312  33          	inc	sp
1421  0313              l_game_draw_map_00129:
1422  0313  21 00 00    	ld	hl,_index1
1423  0316  34          	inc	(hl)
1424  0317  20 02       	jr	NZ,l_game_draw_map_00223
1425  0319  23          	inc	hl
1426  031A  34          	inc	(hl)
1427  031B              l_game_draw_map_00223:
1428  031B  21 00 00    	ld	hl,_s_col1
1429  031E  7E          	ld	a,(hl)
1430  031F  3C          	inc	a
1431  0320  77          	ld	(hl),a
1432  0321  D6 20       	sub	a,0x20
1433  0323  C2 91 01    	jp	NZ,l_game_draw_map_00132
1434  0326  21 00 00    	ld	hl,_s_row1
1435  0329  34          	inc	(hl)
1436  032A  21 00 00    	ld	hl,_s_lin1
1437  032D  7E          	ld	a, (hl)
1438  032E  C6 08       	add	a,0x08
1439  0330  77          	ld	(hl), a
1440  0331  21 00 00    	ld	hl,_s_col1
1441  0334  36 00       	ld	(hl),0x00
1442  0336  C3 91 01    	jp	l_game_draw_map_00132
1443  0339              l_game_draw_map_00134:
1444  0339  CD 00 00    	call	_NIRVANAP_start
1445  033C  DD F9       	ld	sp, ix
1446  033E  DD E1       	pop	ix
1447  0340  C9          	ret
1448  0341              	SECTION code_compiler
1449  0341              ;	---------------------------------
1450  0341              ; Function game_cell_paint_index
1451  0341              ; ---------------------------------
1452  0341              _game_cell_paint_index:
1453  0341  3A 00 00    	ld	a,(_index1)
1454  0344  E6 1F       	and	a,0x1f
1455  0346  32 00 00    	ld	(_s_col1),a
1456  0349  2A 00 00    	ld	hl,(_index1)
1457  034C  4D          	ld	c,l
1458  034D  5C          	ld	e,h
1459  034E  06 05       	ld	b,0x05
1460  0350  79          	ld	a,c
1461  0351              l_game_cell_paint_index_00103:
1462  0351  CB 3B       	srl	e
1463  0353  1F          	rra
1464  0354  10 FB       	djnz	l_game_cell_paint_index_00103
1465  0356  07          	rlca
1466  0357  07          	rlca
1467  0358  07          	rlca
1468  0359  E6 F8       	and	a,0xf8
1469  035B  32 00 00    	ld	(_s_lin1),a
1470  035E  0F          	rrca
1471  035F  0F          	rrca
1472  0360  0F          	rrca
1473  0361  E6 1F       	and	a,0x1f
1474  0363  3C          	inc	a
1475  0364  32 00 00    	ld	(_s_row1),a
1476  0367  21 00 00    	ld	hl,_s_lin1
1477  036A  7E          	ld	a, (hl)
1478  036B  C6 10       	add	a,0x10
1479  036D  77          	ld	(hl), a
1480  036E  3A 00 00    	ld	a,(_s_row1)
1481  0371  07          	rlca
1482  0372  07          	rlca
1483  0373  07          	rlca
1484  0374  E6 F8       	and	a,0xf8
1485  0376  4F          	ld	c, a
1486  0377  11 00 00    	ld	de,_scr_map
1487  037A  2A 00 00    	ld	hl,(_index1)
1488  037D  19          	add	hl,de
1489  037E  46          	ld	b, (hl)
1490  037F  3A 00 00    	ld	a,(_s_col1)
1491  0382  F5          	push	af
1492  0383  33          	inc	sp
1493  0384  79          	ld	a, c
1494  0385  48          	ld	c,b
1495  0386  47          	ld	b,a
1496  0387  C5          	push	bc
1497  0388  CD 00 00    	call	_spr_draw8
1498  038B  F1          	pop	af
1499  038C  33          	inc	sp
1500  038D  C9          	ret
1501  038E              	SECTION code_compiler
1502  038E              ;	---------------------------------
1503  038E              ; Function game_cell_paint
1504  038E              ; ---------------------------------
1505  038E              _game_cell_paint:
1506  038E  3A 00 00    	ld	a,(_s_row1)
1507  0391  07          	rlca
1508  0392  07          	rlca
1509  0393  07          	rlca
1510  0394  E6 F8       	and	a,0xf8
1511  0396  57          	ld	d, a
1512  0397  01 00 00    	ld	bc,_scr_map
1513  039A  2A 00 00    	ld	hl,(_index1)
1514  039D  09          	add	hl,bc
1515  039E  4D          	ld	c,l
1516  039F  46          	ld	b, (hl)
1517  03A0  3A 00 00    	ld	a,(_s_col1)
1518  03A3  5A          	ld	e,d
1519  03A4  57          	ld	d,a
1520  03A5  D5          	push	de
1521  03A6  C5          	push	bc
1522  03A7  33          	inc	sp
1523  03A8  CD 00 00    	call	_spr_draw8
1524  03AB  F1          	pop	af
1525  03AC  33          	inc	sp
1526  03AD  C9          	ret
1527  03AE              	SECTION code_compiler
1528  03AE              ;	---------------------------------
1529  03AE              ; Function game_end is a stub
1530  03AE              ; ---------------------------------
1531  03AE              EXTERN l_ret
1532  03AE              defc _game_end = l_ret
1533  03AE              	SECTION code_compiler
1534  03AE              ;	---------------------------------
1535  03AE              ; Function game_print_footer
1536  03AE              ; ---------------------------------
1537  03AE              _game_print_footer:
1538  03AE  3A 00 00    	ld	a,(_game_fps_show)
1539  03B1  B7          	or	a, a
1540  03B2  C8          	ret	Z
1541  03B3  21 00 00    	ld	hl,_screen_ink
1542  03B6  36 07       	ld	(hl),0x07
1543  03B8  21 00 00    	ld	hl,___str_0
1544  03BB  E5          	push	hl
1545  03BC  21 17 14    	ld	hl,0x1417
1546  03BF  E5          	push	hl
1547  03C0  CD 00 00    	call	_zx_print_str
1548  03C3  C9          	ret
1549  03C4              	SECTION rodata_compiler
1550  0000              ___str_0:
1551  0000  4C 50 53 3A 	DEFM "LPS:"
1552  0004  00          	DEFB 0x00
1553  0005              	SECTION code_compiler
1554  03C4              ;	---------------------------------
1555  03C4              ; Function game_print_score
1556  03C4              ; ---------------------------------
1557  03C4              _game_print_score:
1558  03C4  21 00 00    	ld	hl,_screen_ink
1559  03C7  36 06       	ld	(hl),0x06
1560  03C9  21 00 00    	ld	hl,_screen_paper
1561  03CC  36 00       	ld	(hl),0x00
1562  03CE  2A 00 00    	ld	hl,(_player_score)
1563  03D1  E5          	push	hl
1564  03D2  21 14 1B    	ld	hl,0x1b14
1565  03D5  E5          	push	hl
1566  03D6  CD 00 00    	call	_zx_print_int
1567  03D9  2A 00 00    	ld	hl,(_game_score_top)
1568  03DC  E5          	push	hl
1569  03DD  21 14 0C    	ld	hl,0x0c14
1570  03E0  E5          	push	hl
1571  03E1  CD 00 00    	call	_zx_print_int
1572  03E4  C9          	ret
1573  03E5              	SECTION code_compiler
1574  03E5              ;	---------------------------------
1575  03E5              ; Function game_print_lives
1576  03E5              ; ---------------------------------
1577  03E5              _game_print_lives:
1578  03E5  21 00 00    	ld	hl,_v0
1579  03E8  36 00       	ld	(hl),0x00
1580  03EA  21 16 20    	ld	hl,0x2016
1581  03ED  E5          	push	hl
1582  03EE  CD 00 00    	call	_game_fill_row
1583  03F1              l_game_print_lives_00101:
1584  03F1  3A 00 00    	ld	a,(_v0)
1585  03F4  21 00 00    	ld	hl,_player_lives
1586  03F7  96          	sub	a, (hl)
1587  03F8  D0          	ret	NC
1588  03F9  21 00 00    	ld	hl,_screen_ink
1589  03FC  36 05       	ld	(hl),0x05
1590  03FE  3A 00 00    	ld	a,(_v0)
1591  0401  21 05 00    	ld	hl,___str_1
1592  0404  E5          	push	hl
1593  0405  57          	ld	d,a
1594  0406  1E 16       	ld	e,0x16
1595  0408  D5          	push	de
1596  0409  CD 00 00    	call	_zx_print_str
1597  040C  21 00 00    	ld	hl,_v0
1598  040F  34          	inc	(hl)
1599  0410  18 DF       	jr	l_game_print_lives_00101
1600  0412              	SECTION rodata_compiler
1601  0005              ___str_1:
1602  0005  3C          	DEFM "<"
1603  0006  00          	DEFB 0x00
1604  0007              	SECTION code_compiler
1605  0412              ;	---------------------------------
1606  0412              ; Function game_cls
1607  0412              ; ---------------------------------
1608  0412              _game_cls:
1609  0412  CD 00 00    	call	_NIRVANAP_stop
1610  0415  2E 00       	ld	l,0x00
1611  0417  CD 00 00    	call	_zx_cls_fastcall
1612  041A  2E 00       	ld	l,0x00
1613  041C  CD 00 00    	call	_zx_border_fastcall
1614  041F  F3          	di
1615  0420  21 00 00    	ld	hl,_v0
1616  0423  36 00       	ld	(hl),0x00
1617  0425              l_game_cls_00104:
1618  0425  3E 08       	ld	a,0x08
1619  0427  21 00 00    	ld	hl,_v0
1620  042A  96          	sub	a, (hl)
1621  042B  38 32       	jr	C,l_game_cls_00106
1622  042D  21 00 00    	ld	hl,_v1
1623  0430  36 00       	ld	(hl),0x00
1624  0432              l_game_cls_00101:
1625  0432  3A 00 00    	ld	a,(_v1)
1626  0435  D6 1F       	sub	a,0x1f
1627  0437  30 20       	jr	NC,l_game_cls_00103
1628  0439  3A 00 00    	ld	a,(_v0)
1629  043C  07          	rlca
1630  043D  07          	rlca
1631  043E  07          	rlca
1632  043F  07          	rlca
1633  0440  E6 F0       	and	a,0xf0
1634  0442  C6 08       	add	a,0x08
1635  0444  47          	ld	b, a
1636  0445  3A 00 00    	ld	a,(_v1)
1637  0448  48          	ld	c,b
1638  0449  47          	ld	b,a
1639  044A  C5          	push	bc
1640  044B  3E 5E       	ld	a,0x5e
1641  044D  F5          	push	af
1642  044E  33          	inc	sp
1643  044F  CD 00 00    	call	_NIRVANAP_drawT_raw_callee
1644  0452  21 00 00    	ld	hl,_v1
1645  0455  34          	inc	(hl)
1646  0456  34          	inc	(hl)
1647  0457  18 D9       	jr	l_game_cls_00101
1648  0459              l_game_cls_00103:
1649  0459  21 00 00    	ld	hl,_v0
1650  045C  34          	inc	(hl)
1651  045D  18 C6       	jr	l_game_cls_00104
1652  045F              l_game_cls_00106:
1653  045F  FB          	ei
1654  0460  CD 00 00    	call	_NIRVANAP_start
1655  0463  C9          	ret
1656  0464              	SECTION code_compiler
1657  0464              ;	---------------------------------
1658  0464              ; Function game_start_timer
1659  0464              ; ---------------------------------
1660  0464              _game_start_timer:
1661  0464  21 00 00    	ld	hl,_NIRVANAP_ISR_HOOK+0
1662  0467  36 CD       	ld	(hl),0xcd
1663  0469  23          	inc	hl
1664  046A  11 00 00    	ld	de,_game_tick
1665  046D  73          	ld	(hl), e
1666  046E  23          	inc	hl
1667  046F  72          	ld	(hl), d
1668  0470  C9          	ret
1669  0471              	SECTION code_compiler
1670  0471              ;	---------------------------------
1671  0471              ; Function game_anim_air
1672  0471              ; ---------------------------------
1673  0471              _game_anim_air:
1674  0471  ED 4B 00 00 	ld	bc,(_air_curr_byte)
1675  0475  0A          	ld	a,(bc)
1676  0476  B7          	or	a, a
1677  0477  28 28       	jr	Z,l_game_anim_air_00105
1678  0479  87          	add	a, a
1679  047A  32 00 00    	ld	(_v0),a
1680  047D  02          	ld	(bc), a
1681  047E  2A 00 00    	ld	hl,(_air_curr_byte)
1682  0481  01 00 01    	ld	bc,0x0100
1683  0484  09          	add	hl,bc
1684  0485  3A 00 00    	ld	a,(_v0)
1685  0488  77          	ld	(hl),a
1686  0489  2A 00 00    	ld	hl,(_air_curr_byte)
1687  048C  01 00 02    	ld	bc,0x0200
1688  048F  09          	add	hl,bc
1689  0490  3A 00 00    	ld	a,(_v0)
1690  0493  77          	ld	(hl),a
1691  0494  2A 00 00    	ld	hl,(_air_curr_byte)
1692  0497  01 00 03    	ld	bc,0x0300
1693  049A  09          	add	hl,bc
1694  049B  3A 00 00    	ld	a,(_v0)
1695  049E  77          	ld	(hl),a
1696  049F  18 1C       	jr	l_game_anim_air_00107
1697  04A1              l_game_anim_air_00105:
1698  04A1  ED 4B 00 00 	ld	bc,(_air_curr_byte)
1699  04A5  ED 5B 00 00 	ld	de,(_air_end_byte)
1700  04A9  7B          	ld	a,e
1701  04AA  91          	sub	a,c
1702  04AB  7A          	ld	a,d
1703  04AC  98          	sbc	a,b
1704  04AD  30 09       	jr	NC,l_game_anim_air_00102
1705  04AF  2A 00 00    	ld	hl,(_air_curr_byte)
1706  04B2  2B          	dec	hl
1707  04B3  22 00 00    	ld	(_air_curr_byte),hl
1708  04B6  18 05       	jr	l_game_anim_air_00107
1709  04B8              l_game_anim_air_00102:
1710  04B8  21 00 00    	ld	hl,_player_killed
1711  04BB  36 01       	ld	(hl),0x01
1712  04BD              l_game_anim_air_00107:
1713  04BD  C9          	ret
1714  04BE              	SECTION code_compiler
1715  04BE              ;	---------------------------------
1716  04BE              ; Function game_anim_conveyor
1717  04BE              ; ---------------------------------
1718  04BE              _game_anim_conveyor:
1719  04BE  CD 00 00    	call	___sdcc_enter_ix
1720  04C1  F5          	push	af
1721  04C2  F5          	push	af
1722  04C3  3B          	dec	sp
1723  04C4  01 60 00    	ld	bc,_btiles+96
1724  04C7  3A 00 00    	ld	a,(_game_conveyor_lin)
1725  04CA  32 00 00    	ld	(_i),a
1726  04CD  C6 08       	add	a,0x08
1727  04CF  DD 77 FB    	ld	(ix-5),a
1728  04D2  0A          	ld	a, (bc)
1729  04D3  5F          	ld	e, a
1730  04D4  3A 00 00    	ld	a,(_game_conveyor_dir)
1731  04D7  3D          	dec	a
1732  04D8  20 14       	jr	NZ,l_game_anim_conveyor_00102
1733  04DA  7B          	ld	a, e
1734  04DB  87          	add	a, a
1735  04DC  57          	ld	d, a
1736  04DD  7B          	ld	a, e
1737  04DE  07          	rlca
1738  04DF  E6 01       	and	a,0x01
1739  04E1  B2          	or	a, d
1740  04E2  57          	ld	d,a
1741  04E3  02          	ld	(bc),a
1742  04E4  87          	add	a, a
1743  04E5  5F          	ld	e, a
1744  04E6  7A          	ld	a, d
1745  04E7  07          	rlca
1746  04E8  E6 01       	and	a,0x01
1747  04EA  B3          	or	a, e
1748  04EB  02          	ld	(bc), a
1749  04EC  18 14       	jr	l_game_anim_conveyor_00121
1750  04EE              l_game_anim_conveyor_00102:
1751  04EE  7B          	ld	a, e
1752  04EF  0F          	rrca
1753  04F0  E6 80       	and	a,0x80
1754  04F2  6F          	ld	l, a
1755  04F3  7B          	ld	a,e
1756  04F4  CB 3F       	srl	a
1757  04F6  B5          	or	a, l
1758  04F7  5F          	ld	e,a
1759  04F8  02          	ld	(bc),a
1760  04F9  0F          	rrca
1761  04FA  E6 80       	and	a,0x80
1762  04FC  6F          	ld	l, a
1763  04FD  CB 3B       	srl	e
1764  04FF  7D          	ld	a, l
1765  0500  B3          	or	a, e
1766  0501  02          	ld	(bc), a
1767  0502              l_game_anim_conveyor_00121:
1768  0502              l_game_anim_conveyor_00112:
1769  0502  3A 00 00    	ld	a,(_i)
1770  0505  DD 96 FB    	sub	a,(ix-5)
1771  0508  D2 91 05    	jp	NC, l_game_anim_conveyor_00115
1772  050B  3A 00 00    	ld	a,(_game_conveyor_col0)
1773  050E  DD 77 FC    	ld	(ix-4),a
1774  0511  2A 00 00    	ld	hl,(_i)
1775  0514  CD 00 00    	call	_zx_py2saddr_fastcall
1776  0517  EB          	ex	de,hl
1777  0518  7B          	ld	a, e
1778  0519  DD 86 FC    	add	a,(ix-4)
1779  051C  5F          	ld	e, a
1780  051D  7A          	ld	a, d
1781  051E  CE 00       	adc	a,0x00
1782  0520  57          	ld	d, a
1783  0521  DD 7E FC    	ld	a,(ix-4)
1784  0524  DD 77 FF    	ld	(ix-1),a
1785  0527              l_game_anim_conveyor_00104:
1786  0527  DD 7E FF    	ld	a,(ix-1)
1787  052A  21 00 00    	ld	hl,_game_conveyor_col1
1788  052D  96          	sub	a, (hl)
1789  052E  30 08       	jr	NC,l_game_anim_conveyor_00106
1790  0530  0A          	ld	a, (bc)
1791  0531  12          	ld	(de), a
1792  0532  13          	inc	de
1793  0533  DD 34 FF    	inc	(ix-1)
1794  0536  18 EF       	jr	l_game_anim_conveyor_00104
1795  0538              l_game_anim_conveyor_00106:
1796  0538  03          	inc	bc
1797  0539  03          	inc	bc
1798  053A  21 00 00    	ld	hl,_i
1799  053D  34          	inc	(hl)
1800  053E  3A 00 00    	ld	a,(_game_conveyor_lin)
1801  0541  5F          	ld	e,a
1802  0542  16 00       	ld	d,0x00
1803  0544  13          	inc	de
1804  0545  13          	inc	de
1805  0546  DD 73 FD    	ld	(ix-3),e
1806  0549  DD 72 FE    	ld	(ix-2),d
1807  054C  3A 00 00    	ld	a,(_i)
1808  054F  5F          	ld	e,a
1809  0550  16 00       	ld	d,0x00
1810  0552  DD 7E FD    	ld	a,(ix-3)
1811  0555  93          	sub	a, e
1812  0556  20 AA       	jr	NZ,l_game_anim_conveyor_00112
1813  0558  DD 7E FE    	ld	a,(ix-2)
1814  055B  92          	sub	a, d
1815  055C  20 A4       	jr	NZ,l_game_anim_conveyor_00112
1816  055E  0A          	ld	a, (bc)
1817  055F  5F          	ld	e, a
1818  0560  3A 00 00    	ld	a,(_game_conveyor_dir)
1819  0563  3D          	dec	a
1820  0564  20 16       	jr	NZ,l_game_anim_conveyor_00108
1821  0566  7B          	ld	a, e
1822  0567  0F          	rrca
1823  0568  E6 80       	and	a,0x80
1824  056A  57          	ld	d, a
1825  056B  CB 3B       	srl	e
1826  056D  7A          	ld	a, d
1827  056E  B3          	or	a, e
1828  056F  57          	ld	d,a
1829  0570  02          	ld	(bc),a
1830  0571  0F          	rrca
1831  0572  E6 80       	and	a,0x80
1832  0574  5F          	ld	e, a
1833  0575  CB 3A       	srl	d
1834  0577  7B          	ld	a, e
1835  0578  B2          	or	a, d
1836  0579  02          	ld	(bc), a
1837  057A  18 86       	jr	l_game_anim_conveyor_00112
1838  057C              l_game_anim_conveyor_00108:
1839  057C  7B          	ld	a, e
1840  057D  87          	add	a, a
1841  057E  57          	ld	d, a
1842  057F  7B          	ld	a, e
1843  0580  07          	rlca
1844  0581  E6 01       	and	a,0x01
1845  0583  B2          	or	a, d
1846  0584  5F          	ld	e,a
1847  0585  02          	ld	(bc),a
1848  0586  87          	add	a, a
1849  0587  57          	ld	d, a
1850  0588  7B          	ld	a, e
1851  0589  07          	rlca
1852  058A  E6 01       	and	a,0x01
1853  058C  B2          	or	a, d
1854  058D  02          	ld	(bc), a
1855  058E  C3 02 05    	jp	l_game_anim_conveyor_00112
1856  0591              l_game_anim_conveyor_00115:
1857  0591  DD F9       	ld	sp, ix
1858  0593  DD E1       	pop	ix
1859  0595  C9          	ret
1860  0596              	SECTION code_compiler
1861  0596              ;	---------------------------------
1862  0596              ; Function game_round_init
1863  0596              ; ---------------------------------
1864  0596              _game_round_init:
1865  0596  CD 00 00    	call	___sdcc_enter_ix
1866  0599  21 AE FF    	ld	hl, -82
1867  059C  39          	add	hl, sp
1868  059D  F9          	ld	sp, hl
1869  059E  21 00 00    	ld	hl,0x0000
1870  05A1  39          	add	hl, sp
1871  05A2  DD 75 FE    	ld	(ix-2),l
1872  05A5  DD 74 FF    	ld	(ix-1),h
1873  05A8  36 1B       	ld	(hl), +((___str_2) & 0xFF)
1874  05AA  23          	inc	hl
1875  05AB  36 00       	ld	(hl), +((___str_2) / 256)
1876  05AD  DD 4E FE    	ld	c,(ix-2)
1877  05B0  DD 46 FF    	ld	b,(ix-1)
1878  05B3  03          	inc	bc
1879  05B4  03          	inc	bc
1880  05B5  3E 33       	ld	a, +((___str_3) & 0xFF)
1881  05B7  02          	ld	(bc), a
1882  05B8  03          	inc	bc
1883  05B9  3E 00       	ld	a, +((___str_3) / 256)
1884  05BB  02          	ld	(bc), a
1885  05BC  DD 7E FE    	ld	a,(ix-2)
1886  05BF  C6 04       	add	a,0x04
1887  05C1  4F          	ld	c, a
1888  05C2  DD 7E FF    	ld	a,(ix-1)
1889  05C5  CE 00       	adc	a,0x00
1890  05C7  47          	ld	b, a
1891  05C8  3E 4B       	ld	a, +((___str_4) & 0xFF)
1892  05CA  02          	ld	(bc), a
1893  05CB  03          	inc	bc
1894  05CC  3E 00       	ld	a, +((___str_4) / 256)
1895  05CE  02          	ld	(bc), a
1896  05CF  DD 7E FE    	ld	a,(ix-2)
1897  05D2  C6 06       	add	a,0x06
1898  05D4  4F          	ld	c, a
1899  05D5  DD 7E FF    	ld	a,(ix-1)
1900  05D8  CE 00       	adc	a,0x00
1901  05DA  47          	ld	b, a
1902  05DB  3E 63       	ld	a, +((___str_5) & 0xFF)
1903  05DD  02          	ld	(bc), a
1904  05DE  03          	inc	bc
1905  05DF  3E 00       	ld	a, +((___str_5) / 256)
1906  05E1  02          	ld	(bc), a
1907  05E2  DD 7E FE    	ld	a,(ix-2)
1908  05E5  C6 08       	add	a,0x08
1909  05E7  4F          	ld	c, a
1910  05E8  DD 7E FF    	ld	a,(ix-1)
1911  05EB  CE 00       	adc	a,0x00
1912  05ED  47          	ld	b, a
1913  05EE  3E 81       	ld	a, +((___str_6) & 0xFF)
1914  05F0  02          	ld	(bc), a
1915  05F1  03          	inc	bc
1916  05F2  3E 00       	ld	a, +((___str_6) / 256)
1917  05F4  02          	ld	(bc), a
1918  05F5  DD 7E FE    	ld	a,(ix-2)
1919  05F8  C6 0A       	add	a,0x0a
1920  05FA  4F          	ld	c, a
1921  05FB  DD 7E FF    	ld	a,(ix-1)
1922  05FE  CE 00       	adc	a,0x00
1923  0600  47          	ld	b, a
1924  0601  3E 98       	ld	a, +((___str_7) & 0xFF)
1925  0603  02          	ld	(bc), a
1926  0604  03          	inc	bc
1927  0605  3E 00       	ld	a, +((___str_7) / 256)
1928  0607  02          	ld	(bc), a
1929  0608  DD 7E FE    	ld	a,(ix-2)
1930  060B  C6 0C       	add	a,0x0c
1931  060D  4F          	ld	c, a
1932  060E  DD 7E FF    	ld	a,(ix-1)
1933  0611  CE 00       	adc	a,0x00
1934  0613  47          	ld	b, a
1935  0614  3E B0       	ld	a, +((___str_8) & 0xFF)
1936  0616  02          	ld	(bc), a
1937  0617  03          	inc	bc
1938  0618  3E 00       	ld	a, +((___str_8) / 256)
1939  061A  02          	ld	(bc), a
1940  061B  DD 7E FE    	ld	a,(ix-2)
1941  061E  C6 0E       	add	a,0x0e
1942  0620  4F          	ld	c, a
1943  0621  DD 7E FF    	ld	a,(ix-1)
1944  0624  CE 00       	adc	a,0x00
1945  0626  47          	ld	b, a
1946  0627  3E C4       	ld	a, +((___str_9) & 0xFF)
1947  0629  02          	ld	(bc), a
1948  062A  03          	inc	bc
1949  062B  3E 00       	ld	a, +((___str_9) / 256)
1950  062D  02          	ld	(bc), a
1951  062E  DD 7E FE    	ld	a,(ix-2)
1952  0631  C6 10       	add	a,0x10
1953  0633  4F          	ld	c, a
1954  0634  DD 7E FF    	ld	a,(ix-1)
1955  0637  CE 00       	adc	a,0x00
1956  0639  47          	ld	b, a
1957  063A  3E E5       	ld	a, +((___str_10) & 0xFF)
1958  063C  02          	ld	(bc), a
1959  063D  03          	inc	bc
1960  063E  3E 00       	ld	a, +((___str_10) / 256)
1961  0640  02          	ld	(bc), a
1962  0641  DD 7E FE    	ld	a,(ix-2)
1963  0644  C6 12       	add	a,0x12
1964  0646  4F          	ld	c, a
1965  0647  DD 7E FF    	ld	a,(ix-1)
1966  064A  CE 00       	adc	a,0x00
1967  064C  47          	ld	b, a
1968  064D  3E FF       	ld	a, +((___str_11) & 0xFF)
1969  064F  02          	ld	(bc), a
1970  0650  03          	inc	bc
1971  0651  3E 00       	ld	a, +((___str_11) / 256)
1972  0653  02          	ld	(bc), a
1973  0654  DD 7E FE    	ld	a,(ix-2)
1974  0657  C6 14       	add	a,0x14
1975  0659  4F          	ld	c, a
1976  065A  DD 7E FF    	ld	a,(ix-1)
1977  065D  CE 00       	adc	a,0x00
1978  065F  47          	ld	b, a
1979  0660  3E 1A       	ld	a, +((___str_12) & 0xFF)
1980  0662  02          	ld	(bc), a
1981  0663  03          	inc	bc
1982  0664  3E 01       	ld	a, +((___str_12) / 256)
1983  0666  02          	ld	(bc), a
1984  0667  DD 7E FE    	ld	a,(ix-2)
1985  066A  C6 16       	add	a,0x16
1986  066C  4F          	ld	c, a
1987  066D  DD 7E FF    	ld	a,(ix-1)
1988  0670  CE 00       	adc	a,0x00
1989  0672  47          	ld	b, a
1990  0673  3E 3A       	ld	a, +((___str_13) & 0xFF)
1991  0675  02          	ld	(bc), a
1992  0676  03          	inc	bc
1993  0677  3E 01       	ld	a, +((___str_13) / 256)
1994  0679  02          	ld	(bc), a
1995  067A  DD 7E FE    	ld	a,(ix-2)
1996  067D  C6 18       	add	a,0x18
1997  067F  4F          	ld	c, a
1998  0680  DD 7E FF    	ld	a,(ix-1)
1999  0683  CE 00       	adc	a,0x00
2000  0685  47          	ld	b, a
2001  0686  3E 5A       	ld	a, +((___str_14) & 0xFF)
2002  0688  02          	ld	(bc), a
2003  0689  03          	inc	bc
2004  068A  3E 01       	ld	a, +((___str_14) / 256)
2005  068C  02          	ld	(bc), a
2006  068D  DD 7E FE    	ld	a,(ix-2)
2007  0690  C6 1A       	add	a,0x1a
2008  0692  4F          	ld	c, a
2009  0693  DD 7E FF    	ld	a,(ix-1)
2010  0696  CE 00       	adc	a,0x00
2011  0698  47          	ld	b, a
2012  0699  3E 71       	ld	a, +((___str_15) & 0xFF)
2013  069B  02          	ld	(bc), a
2014  069C  03          	inc	bc
2015  069D  3E 01       	ld	a, +((___str_15) / 256)
2016  069F  02          	ld	(bc), a
2017  06A0  DD 7E FE    	ld	a,(ix-2)
2018  06A3  C6 1C       	add	a,0x1c
2019  06A5  4F          	ld	c, a
2020  06A6  DD 7E FF    	ld	a,(ix-1)
2021  06A9  CE 00       	adc	a,0x00
2022  06AB  47          	ld	b, a
2023  06AC  3E 8B       	ld	a, +((___str_16) & 0xFF)
2024  06AE  02          	ld	(bc), a
2025  06AF  03          	inc	bc
2026  06B0  3E 01       	ld	a, +((___str_16) / 256)
2027  06B2  02          	ld	(bc), a
2028  06B3  DD 7E FE    	ld	a,(ix-2)
2029  06B6  C6 1E       	add	a,0x1e
2030  06B8  4F          	ld	c, a
2031  06B9  DD 7E FF    	ld	a,(ix-1)
2032  06BC  CE 00       	adc	a,0x00
2033  06BE  47          	ld	b, a
2034  06BF  3E A1       	ld	a, +((___str_17) & 0xFF)
2035  06C1  02          	ld	(bc), a
2036  06C2  03          	inc	bc
2037  06C3  3E 01       	ld	a, +((___str_17) / 256)
2038  06C5  02          	ld	(bc), a
2039  06C6  DD 7E FE    	ld	a,(ix-2)
2040  06C9  C6 20       	add	a,0x20
2041  06CB  4F          	ld	c, a
2042  06CC  DD 7E FF    	ld	a,(ix-1)
2043  06CF  CE 00       	adc	a,0x00
2044  06D1  47          	ld	b, a
2045  06D2  3E BC       	ld	a, +((___str_18) & 0xFF)
2046  06D4  02          	ld	(bc), a
2047  06D5  03          	inc	bc
2048  06D6  3E 01       	ld	a, +((___str_18) / 256)
2049  06D8  02          	ld	(bc), a
2050  06D9  DD 7E FE    	ld	a,(ix-2)
2051  06DC  C6 22       	add	a,0x22
2052  06DE  4F          	ld	c, a
2053  06DF  DD 7E FF    	ld	a,(ix-1)
2054  06E2  CE 00       	adc	a,0x00
2055  06E4  47          	ld	b, a
2056  06E5  3E D3       	ld	a, +((___str_19) & 0xFF)
2057  06E7  02          	ld	(bc), a
2058  06E8  03          	inc	bc
2059  06E9  3E 01       	ld	a, +((___str_19) / 256)
2060  06EB  02          	ld	(bc), a
2061  06EC  DD 7E FE    	ld	a,(ix-2)
2062  06EF  C6 24       	add	a,0x24
2063  06F1  4F          	ld	c, a
2064  06F2  DD 7E FF    	ld	a,(ix-1)
2065  06F5  CE 00       	adc	a,0x00
2066  06F7  47          	ld	b, a
2067  06F8  3E ED       	ld	a, +((___str_20) & 0xFF)
2068  06FA  02          	ld	(bc), a
2069  06FB  03          	inc	bc
2070  06FC  3E 01       	ld	a, +((___str_20) / 256)
2071  06FE  02          	ld	(bc), a
2072  06FF  DD 7E FE    	ld	a,(ix-2)
2073  0702  C6 26       	add	a,0x26
2074  0704  4F          	ld	c, a
2075  0705  DD 7E FF    	ld	a,(ix-1)
2076  0708  CE 00       	adc	a,0x00
2077  070A  47          	ld	b, a
2078  070B  3E 08       	ld	a, +((___str_21) & 0xFF)
2079  070D  02          	ld	(bc), a
2080  070E  03          	inc	bc
2081  070F  3E 02       	ld	a, +((___str_21) / 256)
2082  0711  02          	ld	(bc), a
2083  0712  DD 7E FE    	ld	a,(ix-2)
2084  0715  C6 28       	add	a,0x28
2085  0717  4F          	ld	c, a
2086  0718  DD 7E FF    	ld	a,(ix-1)
2087  071B  CE 00       	adc	a,0x00
2088  071D  47          	ld	b, a
2089  071E  3E 22       	ld	a, +((___str_22) & 0xFF)
2090  0720  02          	ld	(bc), a
2091  0721  03          	inc	bc
2092  0722  3E 02       	ld	a, +((___str_22) / 256)
2093  0724  02          	ld	(bc), a
2094  0725  DD 7E FE    	ld	a,(ix-2)
2095  0728  C6 2A       	add	a,0x2a
2096  072A  4F          	ld	c, a
2097  072B  DD 7E FF    	ld	a,(ix-1)
2098  072E  CE 00       	adc	a,0x00
2099  0730  47          	ld	b, a
2100  0731  3E 3D       	ld	a, +((___str_23) & 0xFF)
2101  0733  02          	ld	(bc), a
2102  0734  03          	inc	bc
2103  0735  3E 02       	ld	a, +((___str_23) / 256)
2104  0737  02          	ld	(bc), a
2105  0738  DD 7E FE    	ld	a,(ix-2)
2106  073B  C6 2C       	add	a,0x2c
2107  073D  4F          	ld	c, a
2108  073E  DD 7E FF    	ld	a,(ix-1)
2109  0741  CE 00       	adc	a,0x00
2110  0743  47          	ld	b, a
2111  0744  3E 55       	ld	a, +((___str_24) & 0xFF)
2112  0746  02          	ld	(bc), a
2113  0747  03          	inc	bc
2114  0748  3E 02       	ld	a, +((___str_24) / 256)
2115  074A  02          	ld	(bc), a
2116  074B  DD 7E FE    	ld	a,(ix-2)
2117  074E  C6 2E       	add	a,0x2e
2118  0750  4F          	ld	c, a
2119  0751  DD 7E FF    	ld	a,(ix-1)
2120  0754  CE 00       	adc	a,0x00
2121  0756  47          	ld	b, a
2122  0757  3E 72       	ld	a, +((___str_25) & 0xFF)
2123  0759  02          	ld	(bc), a
2124  075A  03          	inc	bc
2125  075B  3E 02       	ld	a, +((___str_25) / 256)
2126  075D  02          	ld	(bc), a
2127  075E  DD 7E FE    	ld	a,(ix-2)
2128  0761  C6 30       	add	a,0x30
2129  0763  4F          	ld	c, a
2130  0764  DD 7E FF    	ld	a,(ix-1)
2131  0767  CE 00       	adc	a,0x00
2132  0769  47          	ld	b, a
2133  076A  3E 88       	ld	a, +((___str_26) & 0xFF)
2134  076C  02          	ld	(bc), a
2135  076D  03          	inc	bc
2136  076E  3E 02       	ld	a, +((___str_26) / 256)
2137  0770  02          	ld	(bc), a
2138  0771  DD 7E FE    	ld	a,(ix-2)
2139  0774  C6 32       	add	a,0x32
2140  0776  4F          	ld	c, a
2141  0777  DD 7E FF    	ld	a,(ix-1)
2142  077A  CE 00       	adc	a,0x00
2143  077C  47          	ld	b, a
2144  077D  3E A4       	ld	a, +((___str_27) & 0xFF)
2145  077F  02          	ld	(bc), a
2146  0780  03          	inc	bc
2147  0781  3E 02       	ld	a, +((___str_27) / 256)
2148  0783  02          	ld	(bc), a
2149  0784  DD 7E FE    	ld	a,(ix-2)
2150  0787  C6 34       	add	a,0x34
2151  0789  4F          	ld	c, a
2152  078A  DD 7E FF    	ld	a,(ix-1)
2153  078D  CE 00       	adc	a,0x00
2154  078F  47          	ld	b, a
2155  0790  3E BC       	ld	a, +((___str_28) & 0xFF)
2156  0792  02          	ld	(bc), a
2157  0793  03          	inc	bc
2158  0794  3E 02       	ld	a, +((___str_28) / 256)
2159  0796  02          	ld	(bc), a
2160  0797  DD 7E FE    	ld	a,(ix-2)
2161  079A  C6 36       	add	a,0x36
2162  079C  4F          	ld	c, a
2163  079D  DD 7E FF    	ld	a,(ix-1)
2164  07A0  CE 00       	adc	a,0x00
2165  07A2  47          	ld	b, a
2166  07A3  3E D1       	ld	a, +((___str_29) & 0xFF)
2167  07A5  02          	ld	(bc), a
2168  07A6  03          	inc	bc
2169  07A7  3E 02       	ld	a, +((___str_29) / 256)
2170  07A9  02          	ld	(bc), a
2171  07AA  DD 7E FE    	ld	a,(ix-2)
2172  07AD  C6 38       	add	a,0x38
2173  07AF  4F          	ld	c, a
2174  07B0  DD 7E FF    	ld	a,(ix-1)
2175  07B3  CE 00       	adc	a,0x00
2176  07B5  47          	ld	b, a
2177  07B6  3E E6       	ld	a, +((___str_30) & 0xFF)
2178  07B8  02          	ld	(bc), a
2179  07B9  03          	inc	bc
2180  07BA  3E 02       	ld	a, +((___str_30) / 256)
2181  07BC  02          	ld	(bc), a
2182  07BD  DD 7E FE    	ld	a,(ix-2)
2183  07C0  C6 3A       	add	a,0x3a
2184  07C2  4F          	ld	c, a
2185  07C3  DD 7E FF    	ld	a,(ix-1)
2186  07C6  CE 00       	adc	a,0x00
2187  07C8  47          	ld	b, a
2188  07C9  3E FB       	ld	a, +((___str_31) & 0xFF)
2189  07CB  02          	ld	(bc), a
2190  07CC  03          	inc	bc
2191  07CD  3E 02       	ld	a, +((___str_31) / 256)
2192  07CF  02          	ld	(bc), a
2193  07D0  DD 7E FE    	ld	a,(ix-2)
2194  07D3  C6 3C       	add	a,0x3c
2195  07D5  4F          	ld	c, a
2196  07D6  DD 7E FF    	ld	a,(ix-1)
2197  07D9  CE 00       	adc	a,0x00
2198  07DB  47          	ld	b, a
2199  07DC  3E 10       	ld	a, +((___str_32) & 0xFF)
2200  07DE  02          	ld	(bc), a
2201  07DF  03          	inc	bc
2202  07E0  3E 03       	ld	a, +((___str_32) / 256)
2203  07E2  02          	ld	(bc), a
2204  07E3  DD 7E FE    	ld	a,(ix-2)
2205  07E6  C6 3E       	add	a,0x3e
2206  07E8  4F          	ld	c, a
2207  07E9  DD 7E FF    	ld	a,(ix-1)
2208  07EC  CE 00       	adc	a,0x00
2209  07EE  47          	ld	b, a
2210  07EF  3E 25       	ld	a, +((___str_33) & 0xFF)
2211  07F1  02          	ld	(bc), a
2212  07F2  03          	inc	bc
2213  07F3  3E 03       	ld	a, +((___str_33) / 256)
2214  07F5  02          	ld	(bc), a
2215  07F6  DD 7E FE    	ld	a,(ix-2)
2216  07F9  C6 40       	add	a,0x40
2217  07FB  4F          	ld	c, a
2218  07FC  DD 7E FF    	ld	a,(ix-1)
2219  07FF  CE 00       	adc	a,0x00
2220  0801  47          	ld	b, a
2221  0802  3E 3A       	ld	a, +((___str_34) & 0xFF)
2222  0804  02          	ld	(bc), a
2223  0805  03          	inc	bc
2224  0806  3E 03       	ld	a, +((___str_34) / 256)
2225  0808  02          	ld	(bc), a
2226  0809  DD 7E FE    	ld	a,(ix-2)
2227  080C  C6 42       	add	a,0x42
2228  080E  4F          	ld	c, a
2229  080F  DD 7E FF    	ld	a,(ix-1)
2230  0812  CE 00       	adc	a,0x00
2231  0814  47          	ld	b, a
2232  0815  3E 4F       	ld	a, +((___str_35) & 0xFF)
2233  0817  02          	ld	(bc), a
2234  0818  03          	inc	bc
2235  0819  3E 03       	ld	a, +((___str_35) / 256)
2236  081B  02          	ld	(bc), a
2237  081C  DD 7E FE    	ld	a,(ix-2)
2238  081F  C6 44       	add	a,0x44
2239  0821  4F          	ld	c, a
2240  0822  DD 7E FF    	ld	a,(ix-1)
2241  0825  CE 00       	adc	a,0x00
2242  0827  47          	ld	b, a
2243  0828  3E 64       	ld	a, +((___str_36) & 0xFF)
2244  082A  02          	ld	(bc), a
2245  082B  03          	inc	bc
2246  082C  3E 03       	ld	a, +((___str_36) / 256)
2247  082E  02          	ld	(bc), a
2248  082F  DD 7E FE    	ld	a,(ix-2)
2249  0832  C6 46       	add	a,0x46
2250  0834  4F          	ld	c, a
2251  0835  DD 7E FF    	ld	a,(ix-1)
2252  0838  CE 00       	adc	a,0x00
2253  083A  47          	ld	b, a
2254  083B  3E 79       	ld	a, +((___str_37) & 0xFF)
2255  083D  02          	ld	(bc), a
2256  083E  03          	inc	bc
2257  083F  3E 03       	ld	a, +((___str_37) / 256)
2258  0841  02          	ld	(bc), a
2259  0842  DD 7E FE    	ld	a,(ix-2)
2260  0845  C6 48       	add	a,0x48
2261  0847  4F          	ld	c, a
2262  0848  DD 7E FF    	ld	a,(ix-1)
2263  084B  CE 00       	adc	a,0x00
2264  084D  47          	ld	b, a
2265  084E  3E 8E       	ld	a, +((___str_38) & 0xFF)
2266  0850  02          	ld	(bc), a
2267  0851  03          	inc	bc
2268  0852  3E 03       	ld	a, +((___str_38) / 256)
2269  0854  02          	ld	(bc), a
2270  0855  DD 7E FE    	ld	a,(ix-2)
2271  0858  C6 4A       	add	a,0x4a
2272  085A  4F          	ld	c, a
2273  085B  DD 7E FF    	ld	a,(ix-1)
2274  085E  CE 00       	adc	a,0x00
2275  0860  47          	ld	b, a
2276  0861  3E A3       	ld	a, +((___str_39) & 0xFF)
2277  0863  02          	ld	(bc), a
2278  0864  03          	inc	bc
2279  0865  3E 03       	ld	a, +((___str_39) / 256)
2280  0867  02          	ld	(bc), a
2281  0868  DD 7E FE    	ld	a,(ix-2)
2282  086B  C6 4C       	add	a,0x4c
2283  086D  4F          	ld	c, a
2284  086E  DD 7E FF    	ld	a,(ix-1)
2285  0871  CE 00       	adc	a,0x00
2286  0873  47          	ld	b, a
2287  0874  3E B8       	ld	a, +((___str_40) & 0xFF)
2288  0876  02          	ld	(bc), a
2289  0877  03          	inc	bc
2290  0878  3E 03       	ld	a, +((___str_40) / 256)
2291  087A  02          	ld	(bc), a
2292  087B  DD 7E FE    	ld	a,(ix-2)
2293  087E  C6 4E       	add	a,0x4e
2294  0880  4F          	ld	c, a
2295  0881  DD 7E FF    	ld	a,(ix-1)
2296  0884  CE 00       	adc	a,0x00
2297  0886  47          	ld	b, a
2298  0887  3E CD       	ld	a, +((___str_41) & 0xFF)
2299  0889  02          	ld	(bc), a
2300  088A  03          	inc	bc
2301  088B  3E 03       	ld	a, +((___str_41) / 256)
2302  088D  02          	ld	(bc), a
2303  088E  CD 00 00    	call	_ay_reset
2304  0891  CD 00 00    	call	_spr_clear_scr
2305  0894  21 00 00    	ld	hl,_i
2306  0897  36 00       	ld	(hl),0x00
2307  0899              l_game_round_init_00121:
2308  0899  21 00 00    	ld	hl,0x0000
2309  089C  E5          	push	hl
2310  089D  AF          	xor	a, a
2311  089E  2A 00 00    	ld	hl,(_i)
2312  08A1  67          	ld	h,a
2313  08A2  E5          	push	hl
2314  08A3  CD 00 00    	call	_NIRVANAP_spriteT_callee
2315  08A6  21 00 00    	ld	hl,_i
2316  08A9  7E          	ld	a,(hl)
2317  08AA  3C          	inc	a
2318  08AB  77          	ld	(hl),a
2319  08AC  D6 07       	sub	a,0x07
2320  08AE  38 E9       	jr	C,l_game_round_init_00121
2321  08B0  76          	halt
2322  08B1  CD 00 00    	call	_NIRVANAP_stop
2323  08B4  2A 00 00    	ld	hl,(_scr_curr)
2324  08B7  26 00       	ld	h,0x00
2325  08B9  01 07 00    	ld	bc,_game_borders
2326  08BC  09          	add	hl,bc
2327  08BD  7E          	ld	a,(hl)
2328  08BE  32 00 00    	ld	(_map_border),a
2329  08C1  21 00 00    	ld	hl,0x0000
2330  08C4  22 00 00    	ld	(_loop_count),hl
2331  08C7  21 00 00    	ld	hl,0
2332  08CA  22 00 00    	ld	(_curr_time),hl
2333  08CD  21 00 00    	ld	hl,0x0000
2334  08D0  22 00 00    	ld	(_frame_time),hl
2335  08D3  21 00 00    	ld	hl,_player_coins
2336  08D6  36 00       	ld	(hl),0x00
2337  08D8  2A 00 00    	ld	hl,(_air_start_byte)
2338  08DB  22 00 00    	ld	(_air_curr_byte),hl
2339  08DE  21 00 00    	ld	hl,_key_last
2340  08E1  36 00       	ld	(hl),0x00
2341  08E3  21 00 00    	ld	hl,_key_ink
2342  08E6  36 06       	ld	(hl),0x06
2343  08E8  21 00 00    	ld	hl,_i
2344  08EB  36 00       	ld	(hl),0x00
2345  08ED              l_game_round_init_00102:
2346  08ED  21 00 00    	ld	hl,_i
2347  08F0  7E          	ld	a, (hl)
2348  08F1  D6 08       	sub	a,0x08
2349  08F3  30 1B       	jr	NC,l_game_round_init_00104
2350  08F5  3E 00       	ld	a, +((_obj_col) & 0xFF)
2351  08F7  86          	add	a, (hl)
2352  08F8  4F          	ld	c, a
2353  08F9  3E 00       	ld	a, +((_obj_col) / 256)
2354  08FB  CE 00       	adc	a,0x00
2355  08FD  47          	ld	b, a
2356  08FE  3E FF       	ld	a,0xff
2357  0900  02          	ld	(bc), a
2358  0901  3E 00       	ld	a, +((_obj_lin) & 0xFF)
2359  0903  86          	add	a, (hl)
2360  0904  4F          	ld	c, a
2361  0905  3E 00       	ld	a, +((_obj_lin) / 256)
2362  0907  CE 00       	adc	a,0x00
2363  0909  47          	ld	b, a
2364  090A  3E FF       	ld	a,0xff
2365  090C  02          	ld	(bc), a
2366  090D  34          	inc	(hl)
2367  090E  18 DD       	jr	l_game_round_init_00102
2368  0910              l_game_round_init_00104:
2369  0910  2A 00 00    	ld	hl,(_map_border)
2370  0913  CD 00 00    	call	_zx_border_fastcall
2371  0916  21 00 00    	ld	hl,_map_border
2372  0919  7E          	ld	a, (hl)
2373  091A  07          	rlca
2374  091B  07          	rlca
2375  091C  07          	rlca
2376  091D  E6 F8       	and	a,0xf8
2377  091F  B6          	or	a, (hl)
2378  0920  32 00 00    	ld	(_screen_ink),a
2379  0923  21 00 20    	ld	hl,0x2000
2380  0926  E5          	push	hl
2381  0927  CD 00 00    	call	_game_fill_row
2382  092A  3A 00 00    	ld	a,(_scr_curr)
2383  092D  B7          	or	a, a
2384  092E  28 0C       	jr	Z,l_game_round_init_00106
2385  0930  21 00 00    	ld	hl,_screen_ink
2386  0933  36 30       	ld	(hl),0x30
2387  0935  21 11 20    	ld	hl,0x2011
2388  0938  E5          	push	hl
2389  0939  CD 00 00    	call	_game_fill_row
2390  093C              l_game_round_init_00106:
2391  093C  3A 00 00    	ld	a,(_scr_curr)
2392  093F  D6 14       	sub	a,0x14
2393  0941  30 0C       	jr	NC,l_game_round_init_00108
2394  0943  21 00 00    	ld	hl,_game_tileset
2395  0946  36 00       	ld	(hl),0x00
2396  0948  21 00 00    	ld	hl,_game_mode
2397  094B  36 00       	ld	(hl),0x00
2398  094D  18 0A       	jr	l_game_round_init_00109
2399  094F              l_game_round_init_00108:
2400  094F  21 00 00    	ld	hl,_game_tileset
2401  0952  36 01       	ld	(hl),0x01
2402  0954  21 00 00    	ld	hl,_game_mode
2403  0957  36 01       	ld	(hl),0x01
2404  0959              l_game_round_init_00109:
2405  0959  CD 68 0D    	call	_game_page_map
2406  095C  21 00 00    	ld	hl,_spr_init_bright
2407  095F  36 00       	ld	(hl),0x00
2408  0961  3A 00 00    	ld	a,(_scr_curr)
2409  0964  D6 14       	sub	a,0x14
2410  0966  30 13       	jr	NC,l_game_round_init_00117
2411  0968  3A 00 00    	ld	a,(_map_paper)
2412  096B  D6 10       	sub	a,0x10
2413  096D  20 65       	jr	NZ,l_game_round_init_00118
2414  096F  21 00 00    	ld	hl,_spr_init_cin0
2415  0972  36 02       	ld	(hl),0x02
2416  0974  21 00 00    	ld	hl,_spr_init_cout0
2417  0977  36 03       	ld	(hl),0x03
2418  0979  18 59       	jr	l_game_round_init_00118
2419  097B              l_game_round_init_00117:
2420  097B  3A 00 00    	ld	a,(_map_paper)
2421  097E  D6 08       	sub	a,0x08
2422  0980  20 1E       	jr	NZ,l_game_round_init_00113
2423  0982  21 00 00    	ld	hl,_spr_init_cin0
2424  0985  36 01       	ld	(hl),0x01
2425  0987  21 00 00    	ld	hl,_spr_init_cout0
2426  098A  36 07       	ld	(hl),0x07
2427  098C  21 00 00    	ld	hl,_spr_init_cin1
2428  098F  36 02       	ld	(hl),0x02
2429  0991  21 00 00    	ld	hl,_spr_init_cout1
2430  0994  36 04       	ld	(hl),0x04
2431  0996  21 00 00    	ld	hl,_spr_init_cin2
2432  0999  36 16       	ld	(hl),0x16
2433  099B  21 00 00    	ld	hl,_spr_init_cout2
2434  099E  36 27       	ld	(hl),0x27
2435  09A0              l_game_round_init_00113:
2436  09A0  3A 00 00    	ld	a,(_map_paper)
2437  09A3  D6 78       	sub	a,0x78
2438  09A5  20 2D       	jr	NZ,l_game_round_init_00118
2439  09A7  21 00 00    	ld	hl,_spr_init_bright
2440  09AA  36 40       	ld	(hl),0x40
2441  09AC  21 00 00    	ld	hl,_spr_init_cin0
2442  09AF  36 06       	ld	(hl),0x06
2443  09B1  21 00 00    	ld	hl,_spr_init_cout0
2444  09B4  36 00       	ld	(hl),0x00
2445  09B6  21 00 00    	ld	hl,_spr_init_cin1
2446  09B9  36 01       	ld	(hl),0x01
2447  09BB  21 00 00    	ld	hl,_spr_init_cout1
2448  09BE  36 01       	ld	(hl),0x01
2449  09C0  21 00 00    	ld	hl,_spr_init_cin2
2450  09C3  36 02       	ld	(hl),0x02
2451  09C5  21 00 00    	ld	hl,_spr_init_cout2
2452  09C8  36 03       	ld	(hl),0x03
2453  09CA  21 00 00    	ld	hl,_spr_init_cin3
2454  09CD  36 16       	ld	(hl),0x16
2455  09CF  21 00 00    	ld	hl,_spr_init_cout3
2456  09D2  36 08       	ld	(hl),0x08
2457  09D4              l_game_round_init_00118:
2458  09D4  21 00 08    	ld	hl,0x0800
2459  09D7  E5          	push	hl
2460  09D8  CD 7F 10    	call	_game_copy_sprite_std
2461  09DB  F1          	pop	af
2462  09DC  7D          	ld	a,l
2463  09DD  32 00 00    	ld	(_game_tile_cnt),a
2464  09E0  21 00 00    	ld	hl,_spr_init_cin1
2465  09E3  36 00       	ld	(hl),0x00
2466  09E5  21 00 00    	ld	hl,_spr_init_cout1
2467  09E8  36 00       	ld	(hl),0x00
2468  09EA  21 00 00    	ld	hl,_spr_init_cin2
2469  09ED  36 00       	ld	(hl),0x00
2470  09EF  21 00 00    	ld	hl,_spr_init_cout2
2471  09F2  36 00       	ld	(hl),0x00
2472  09F4  21 00 00    	ld	hl,_spr_init_cin3
2473  09F7  36 00       	ld	(hl),0x00
2474  09F9  21 00 00    	ld	hl,_spr_init_cout3
2475  09FC  36 00       	ld	(hl),0x00
2476  09FE  CD 00 00    	call	_spr_btile_paint_back
2477  0A01  3A 00 00    	ld	a,(_map_paper)
2478  0A04  21 00 00    	ld	hl,_key_ink
2479  0A07  B6          	or	a, (hl)
2480  0A08  32 00 00    	ld	(_key_attrib),a
2481  0A0B  32 01 00    	ld	((_key_attrib + 0x0001)),a
2482  0A0E  32 02 00    	ld	((_key_attrib + 0x0002)),a
2483  0A11  32 03 00    	ld	((_key_attrib + 0x0003)),a
2484  0A14  21 00 00    	ld	hl,_game_song_play_start
2485  0A17  36 00       	ld	(hl),0x00
2486  0A19  CD 00 00    	call	_audio_ingame
2487  0A1C  CD 00 00    	call	_NIRVANAP_start
2488  0A1F  CD 20 01    	call	_game_draw_map
2489  0A22  AF          	xor	a, a
2490  0A23  F5          	push	af
2491  0A24  33          	inc	sp
2492  0A25  CD 46 10    	call	_game_flash_exit
2493  0A28  33          	inc	sp
2494  0A29  3A 00 00    	ld	a,(_game_over)
2495  0A2C  B7          	or	a, a
2496  0A2D  20 15       	jr	NZ,l_game_round_init_00120
2497  0A2F  2A 00 00    	ld	hl,(_player_col_scr)
2498  0A32  26 08       	ld	h,0x08
2499  0A34  3A 00 00    	ld	a,(_player_lin_scr)
2500  0A37  E5          	push	hl
2501  0A38  F5          	push	af
2502  0A39  33          	inc	sp
2503  0A3A  CD 00 00    	call	_player_init
2504  0A3D  F1          	pop	af
2505  0A3E  33          	inc	sp
2506  0A3F  21 00 00    	ld	hl,_player_killed
2507  0A42  36 00       	ld	(hl),0x00
2508  0A44              l_game_round_init_00120:
2509  0A44  21 00 00    	ld	hl,_screen_ink
2510  0A47  36 30       	ld	(hl),0x30
2511  0A49  21 11 20    	ld	hl,0x2011
2512  0A4C  E5          	push	hl
2513  0A4D  CD 00 00    	call	_game_fill_row
2514  0A50  2A 00 00    	ld	hl,(_scr_curr)
2515  0A53  26 00       	ld	h,0x00
2516  0A55  29          	add	hl, hl
2517  0A56  DD 5E FE    	ld	e,(ix-2)
2518  0A59  DD 56 FF    	ld	d,(ix-1)
2519  0A5C  19          	add	hl, de
2520  0A5D  4E          	ld	c, (hl)
2521  0A5E  23          	inc	hl
2522  0A5F  46          	ld	b, (hl)
2523  0A60  C5          	push	bc
2524  0A61  21 11 00    	ld	hl,0x0011
2525  0A64  E5          	push	hl
2526  0A65  CD 00 00    	call	_zx_print_str
2527  0A68  21 00 00    	ld	hl,_screen_ink
2528  0A6B  36 57       	ld	(hl),0x57
2529  0A6D  21 E3 03    	ld	hl,___str_42
2530  0A70  E5          	push	hl
2531  0A71  21 12 00    	ld	hl,0x0012
2532  0A74  E5          	push	hl
2533  0A75  CD 00 00    	call	_zx_print_str
2534  0A78  21 00 00    	ld	hl,_screen_ink
2535  0A7B  36 67       	ld	(hl),0x67
2536  0A7D  21 EE 03    	ld	hl,___str_43
2537  0A80  E5          	push	hl
2538  0A81  21 12 0A    	ld	hl,0x0a12
2539  0A84  E5          	push	hl
2540  0A85  CD 00 00    	call	_zx_print_str
2541  0A88  21 00 00    	ld	hl,_screen_ink
2542  0A8B  36 06       	ld	(hl),0x06
2543  0A8D  21 05 04    	ld	hl,___str_44
2544  0A90  E5          	push	hl
2545  0A91  21 14 00    	ld	hl,0x0014
2546  0A94  E5          	push	hl
2547  0A95  CD 00 00    	call	_zx_print_str
2548  0A98  CD C4 03    	call	_game_print_score
2549  0A9B  CD E5 03    	call	_game_print_lives
2550  0A9E  21 00 00    	ld	hl,_screen_ink
2551  0AA1  36 07       	ld	(hl),0x07
2552  0AA3  76          	halt
2553  0AA4  DD F9       	ld	sp, ix
2554  0AA6  DD E1       	pop	ix
2555  0AA8  C9          	ret
2556  0AA9              	SECTION rodata_compiler
2557  0007              _game_borders:
2558  0007  02          	DEFB +0x02
2559  0008  02          	DEFB +0x02
2560  0009  02          	DEFB +0x02
2561  000A  02          	DEFB +0x02
2562  000B  01          	DEFB +0x01
2563  000C  02          	DEFB +0x02
2564  000D  04          	DEFB +0x04
2565  000E  02          	DEFB +0x02
2566  000F  01          	DEFB +0x01
2567  0010  02          	DEFB +0x02
2568  0011  02          	DEFB +0x02
2569  0012  02          	DEFB +0x02
2570  0013  01          	DEFB +0x01
2571  0014  06          	DEFB +0x06
2572  0015  02          	DEFB +0x02
2573  0016  02          	DEFB +0x02
2574  0017  02          	DEFB +0x02
2575  0018  01          	DEFB +0x01
2576  0019  03          	DEFB +0x03
2577  001A  02          	DEFB +0x02
2578  001B              	SECTION rodata_compiler
2579  001B              ___str_2:
2580  001B  20 20 20 20 20 20 20 20 20 43 65 6E 74 72 61 6C 20 43 61 76 65 72 6E 
                        	DEFM "         Central Cavern"
2581  0032  00          	DEFB 0x00
2582  0033              	SECTION rodata_compiler
2583  0033              ___str_3:
2584  0033  20 20 20 20 20 20 20 20 20 20 54 68 65 20 43 6F 6C 64 20 52 6F 6F 6D 
                        	DEFM "          The Cold Room"
2585  004A  00          	DEFB 0x00
2586  004B              	SECTION rodata_compiler
2587  004B              ___str_4:
2588  004B  20 20 20 20 20 20 20 20 20 20 54 68 65 20 4D 65 6E 61 67 65 72 69 65 
                        	DEFM "          The Menagerie"
2589  0062  00          	DEFB 0x00
2590  0063              	SECTION rodata_compiler
2591  0063              ___str_5:
2592  0063  20 20 20 41 62 61 6E 64 6F 6E 65 64 20 55 72 61 6E 69 75 6D 20 57 6F 72 6B 69 6E 67 73 
                        	DEFM "   Abandoned Uranium Workings"
2593  0080  00          	DEFB 0x00
2594  0081              	SECTION rodata_compiler
2595  0081              ___str_6:
2596  0081  20 20 20 20 20 20 20 20 20 45 75 67 65 6E 65 27 73 20 4C 61 69 72 
                        	DEFM "         Eugene's Lair"
2597  0097  00          	DEFB 0x00
2598  0098              	SECTION rodata_compiler
2599  0098              ___str_7:
2600  0098  20 20 20 20 20 20 20 50 72 6F 63 65 73 73 69 6E 67 20 50 6C 61 6E 74 
                        	DEFM "       Processing Plant"
2601  00AF  00          	DEFB 0x00
2602  00B0              	SECTION rodata_compiler
2603  00B0              ___str_8:
2604  00B0  20 20 20 20 20 20 20 20 20 20 20 20 54 68 65 20 56 61 74 
                        	DEFM "            The Vat"
2605  00C3  00          	DEFB 0x00
2606  00C4              	SECTION rodata_compiler
2607  00C4              ___str_9:
2608  00C4  4D 69 6E 65 72 20 57 69 6C 6C 79 20 6D 65 65 74 73 20 74 68 65 20 4B 6F 6E 67 20 42 65 61 73 74 
                        	DEFM "Miner Willy meets the Kong Beast"
2609  00E4  00          	DEFB 0x00
2610  00E5              	SECTION rodata_compiler
2611  00E5              ___str_10:
2612  00E5  20 20 20 20 20 20 20 20 57 61 63 6B 79 20 41 6D 6F 65 62 61 74 72 6F 6E 73 
                        	DEFM "        Wacky Amoebatrons"
2613  00FE  00          	DEFB 0x00
2614  00FF              	SECTION rodata_compiler
2615  00FF              ___str_11:
2616  00FF  20 20 20 20 20 20 20 54 68 65 20 45 6E 64 6F 72 69 61 6E 20 46 6F 72 65 73 74 
                        	DEFM "       The Endorian Forest"
2617  0119  00          	DEFB 0x00
2618  011A              	SECTION rodata_compiler
2619  011A              ___str_12:
2620  011A  41 74 74 61 63 6B 20 6F 66 20 74 68 65 20 4D 75 74 61 6E 74 20 54 65 6C 65 70 68 6F 6E 65 73 
                        	DEFM "Attack of the Mutant Telephones"
2621  0139  00          	DEFB 0x00
2622  013A              	SECTION rodata_compiler
2623  013A              ___str_13:
2624  013A  20 52 65 74 75 72 6E 20 6F 66 20 74 68 65 20 41 6C 69 65 6E 20 4B 6F 6E 67 20 42 65 61 73 74 
                        	DEFM " Return of the Alien Kong Beast"
2625  0159  00          	DEFB 0x00
2626  015A              	SECTION rodata_compiler
2627  015A              ___str_14:
2628  015A  20 20 20 20 20 20 20 20 20 20 4F 72 65 20 52 65 66 69 6E 65 72 79 
                        	DEFM "          Ore Refinery"
2629  0170  00          	DEFB 0x00
2630  0171              	SECTION rodata_compiler
2631  0171              ___str_15:
2632  0171  20 20 20 20 20 20 20 53 6B 79 6C 61 62 20 4C 61 6E 64 69 6E 67 20 42 61 79 
                        	DEFM "       Skylab Landing Bay"
2633  018A  00          	DEFB 0x00
2634  018B              	SECTION rodata_compiler
2635  018B              ___str_16:
2636  018B  20 20 20 20 20 20 20 20 20 20 20 20 20 54 68 65 20 42 61 6E 6B 
                        	DEFM "             The Bank"
2637  01A0  00          	DEFB 0x00
2638  01A1              	SECTION rodata_compiler
2639  01A1              ___str_17:
2640  01A1  20 20 20 20 20 20 54 68 65 20 53 69 78 74 65 65 6E 74 68 20 43 61 76 65 72 6E 
                        	DEFM "      The Sixteenth Cavern"
2641  01BB  00          	DEFB 0x00
2642  01BC              	SECTION rodata_compiler
2643  01BC              ___str_18:
2644  01BC  20 20 20 20 20 20 20 20 20 54 68 65 20 57 61 72 65 68 6F 75 73 65 
                        	DEFM "         The Warehouse"
2645  01D2  00          	DEFB 0x00
2646  01D3              	SECTION rodata_compiler
2647  01D3              ___str_19:
2648  01D3  20 20 20 20 20 20 41 6D 6F 65 62 61 74 72 6F 6E 73 20 52 65 76 65 6E 67 65 
                        	DEFM "      Amoebatrons Revenge"
2649  01EC  00          	DEFB 0x00
2650  01ED              	SECTION rodata_compiler
2651  01ED              ___str_20:
2652  01ED  20 20 20 20 20 53 6F 6C 61 72 20 50 6F 77 65 72 20 47 65 6E 65 72 61 74 6F 72 
                        	DEFM "     Solar Power Generator"
2653  0207  00          	DEFB 0x00
2654  0208              	SECTION rodata_compiler
2655  0208              ___str_21:
2656  0208  20 20 20 20 20 20 20 20 54 68 65 20 46 69 6E 61 6C 20 42 61 72 72 69 65 72 
                        	DEFM "        The Final Barrier"
2657  0221  00          	DEFB 0x00
2658  0222              	SECTION rodata_compiler
2659  0222              ___str_22:
2660  0222  20 20 20 20 20 20 20 46 72 6F 7A 65 6E 20 43 65 6E 74 72 61 6C 20 50 69 70 65 
                        	DEFM "       Frozen Central Pipe"
2661  023C  00          	DEFB 0x00
2662  023D              	SECTION rodata_compiler
2663  023D              ___str_23:
2664  023D  20 20 20 20 20 20 20 20 53 75 70 65 72 20 4C 75 69 7A 6F 20 42 72 6F 
                        	DEFM "        Super Luizo Bro"
2665  0254  00          	DEFB 0x00
2666  0255              	SECTION rodata_compiler
2667  0255              ___str_24:
2668  0255  20 20 20 20 50 69 65 74 72 6F 20 6D 65 65 74 73 20 4D 6F 6E 6B 65 79 20 4B 6F 6E 67 
                        	DEFM "    Pietro meets Monkey Kong"
2669  0271  00          	DEFB 0x00
2670  0272              	SECTION rodata_compiler
2671  0272              ___str_25:
2672  0272  20 20 20 20 20 20 20 20 20 43 68 75 6E 74 65 79 20 43 72 65 77 
                        	DEFM "         Chuntey Crew"
2673  0287  00          	DEFB 0x00
2674  0288              	SECTION rodata_compiler
2675  0288              ___str_26:
2676  0288  20 20 20 20 20 4B 6F 6E 67 20 4A 72 20 57 61 74 63 68 20 74 68 65 20 47 61 6D 65 
                        	DEFM "     Kong Jr Watch the Game"
2677  02A3  00          	DEFB 0x00
2678  02A4              	SECTION rodata_compiler
2679  02A4              ___str_27:
2680  02A4  20 20 20 20 20 20 20 20 20 20 44 72 2E 20 45 72 72 61 7A 6B 69 6E 67 
                        	DEFM "          Dr. Errazking"
2681  02BB  00          	DEFB 0x00
2682  02BC              	SECTION rodata_compiler
2683  02BC              ___str_28:
2684  02BC  20 20 20 20 20 20 20 20 20 20 20 20 53 74 61 67 65 20 32 36 
                        	DEFM "            Stage 26"
2685  02D0  00          	DEFB 0x00
2686  02D1              	SECTION rodata_compiler
2687  02D1              ___str_29:
2688  02D1  20 20 20 20 20 20 20 20 20 20 20 20 53 74 61 67 65 20 32 37 
                        	DEFM "            Stage 27"
2689  02E5  00          	DEFB 0x00
2690  02E6              	SECTION rodata_compiler
2691  02E6              ___str_30:
2692  02E6  20 20 20 20 20 20 20 20 20 20 20 20 53 74 61 67 65 20 32 38 
                        	DEFM "            Stage 28"
2693  02FA  00          	DEFB 0x00
2694  02FB              	SECTION rodata_compiler
2695  02FB              ___str_31:
2696  02FB  20 20 20 20 20 20 20 20 20 20 20 20 53 74 61 67 65 20 32 39 
                        	DEFM "            Stage 29"
2697  030F  00          	DEFB 0x00
2698  0310              	SECTION rodata_compiler
2699  0310              ___str_32:
2700  0310  20 20 20 20 20 20 20 20 20 20 20 20 53 74 61 67 65 20 33 30 
                        	DEFM "            Stage 30"
2701  0324  00          	DEFB 0x00
2702  0325              	SECTION rodata_compiler
2703  0325              ___str_33:
2704  0325  20 20 20 20 20 20 20 20 20 20 20 20 53 74 61 67 65 20 33 31 
                        	DEFM "            Stage 31"
2705  0339  00          	DEFB 0x00
2706  033A              	SECTION rodata_compiler
2707  033A              ___str_34:
2708  033A  20 20 20 20 20 20 20 20 20 20 20 20 53 74 61 67 65 20 33 32 
                        	DEFM "            Stage 32"
2709  034E  00          	DEFB 0x00
2710  034F              	SECTION rodata_compiler
2711  034F              ___str_35:
2712  034F  20 20 20 20 20 20 20 20 20 20 20 20 53 74 61 67 65 20 33 33 
                        	DEFM "            Stage 33"
2713  0363  00          	DEFB 0x00
2714  0364              	SECTION rodata_compiler
2715  0364              ___str_36:
2716  0364  20 20 20 20 20 20 20 20 20 20 20 20 53 74 61 67 65 20 33 34 
                        	DEFM "            Stage 34"
2717  0378  00          	DEFB 0x00
2718  0379              	SECTION rodata_compiler
2719  0379              ___str_37:
2720  0379  20 20 20 20 20 20 20 20 20 20 20 20 53 74 61 67 65 20 33 35 
                        	DEFM "            Stage 35"
2721  038D  00          	DEFB 0x00
2722  038E              	SECTION rodata_compiler
2723  038E              ___str_38:
2724  038E  20 20 20 20 20 20 20 20 20 20 20 20 53 74 61 67 65 20 33 36 
                        	DEFM "            Stage 36"
2725  03A2  00          	DEFB 0x00
2726  03A3              	SECTION rodata_compiler
2727  03A3              ___str_39:
2728  03A3  20 20 20 20 20 20 20 20 20 20 20 20 53 74 61 67 65 20 33 37 
                        	DEFM "            Stage 37"
2729  03B7  00          	DEFB 0x00
2730  03B8              	SECTION rodata_compiler
2731  03B8              ___str_40:
2732  03B8  20 20 20 20 20 20 20 20 20 20 20 20 53 74 61 67 65 20 33 38 
                        	DEFM "            Stage 38"
2733  03CC  00          	DEFB 0x00
2734  03CD              	SECTION rodata_compiler
2735  03CD              ___str_41:
2736  03CD  20 20 20 20 20 20 20 20 20 20 20 4E 6F 65 6E 74 69 65 6E 64 6F 
                        	DEFM "           Noentiendo"
2737  03E2  00          	DEFB 0x00
2738  03E3              	SECTION rodata_compiler
2739  03E3              ___str_42:
2740  03E3  41 49 52 20 2D 2D 2D 2D 2D 2D 
                        	DEFM "AIR ------"
2741  03ED  00          	DEFB 0x00
2742  03EE              	SECTION rodata_compiler
2743  03EE              ___str_43:
2744  03EE  2D 2D 2D 2D 2D 2D 2D 2D 2D 2D 2D 2D 2D 2D 2D 2D 2D 2D 2D 2D 2D 2D 
                        	DEFM "----------------------"
2745  0404  00          	DEFB 0x00
2746  0405              	SECTION rodata_compiler
2747  0405              ___str_44:
2748  0405  48 69 67 68 20 53 63 6F 72 65 20 20 20 20 20 20 20 20 20 53 63 6F 72 65 20 20 20 20 20 20 
                        	DEFM "High Score         Score      "
2749  0423  00          	DEFB 0x00
2750  0424              	SECTION code_compiler
2751  0AA9              ;	---------------------------------
2752  0AA9              ; Function game_print_header
2753  0AA9              ; ---------------------------------
2754  0AA9              	defc _game_print_header	=	_game_print_score
2755  0AA9              	SECTION code_compiler
2756  0AA9              ;	---------------------------------
2757  0AA9              ; Function game_check_map
2758  0AA9              ; ---------------------------------
2759  0AA9              _game_check_map:
2760  0AA9  CD 00 00    	call	___sdcc_enter_ix
2761  0AAC  DD 66 05    	ld	h,(ix+5)
2762  0AAF  DD 6E 04    	ld	l,(ix+4)
2763  0AB2  E5          	push	hl
2764  0AB3  CD 00 00    	call	_spr_calc_index
2765  0AB6  F1          	pop	af
2766  0AB7  22 00 00    	ld	(_index1),hl
2767  0ABA  21 00 00    	ld	hl,_index1
2768  0ABD  DD E1       	pop	ix
2769  0ABF  C3 C2 0A    	jp	_game_check_cell
2770  0AC2              	SECTION code_compiler
2771  0AC2              ;	---------------------------------
2772  0AC2              ; Function game_check_cell
2773  0AC2              ; ---------------------------------
2774  0AC2              _game_check_cell:
2775  0AC2  4E          	ld	c, (hl)
2776  0AC3  23          	inc	hl
2777  0AC4  46          	ld	b, (hl)
2778  0AC5  AF          	xor	a, a
2779  0AC6  B9          	cp	a, c
2780  0AC7  3E 02       	ld	a,0x02
2781  0AC9  98          	sbc	a, b
2782  0ACA  30 04       	jr	NC,l_game_check_cell_00102
2783  0ACC  2E 01       	ld	l,0x01
2784  0ACE  18 1A       	jr	l_game_check_cell_00106
2785  0AD0              l_game_check_cell_00102:
2786  0AD0  21 00 00    	ld	hl,_scr_map
2787  0AD3  09          	add	hl, bc
2788  0AD4  5E          	ld	e, (hl)
2789  0AD5  16 00       	ld	d,0x00
2790  0AD7  21 00 00    	ld	hl,_tile_class
2791  0ADA  19          	add	hl, de
2792  0ADB  5E          	ld	e, (hl)
2793  0ADC  ED 43 00 00 	ld	(_index1),bc
2794  0AE0  7B          	ld	a,e
2795  0AE1  D6 03       	sub	a,0x03
2796  0AE3  28 04       	jr	Z,l_game_check_cell_00104
2797  0AE5  2E 00       	ld	l,0x00
2798  0AE7  18 01       	jr	l_game_check_cell_00106
2799  0AE9              l_game_check_cell_00104:
2800  0AE9  6B          	ld	l, e
2801  0AEA              l_game_check_cell_00106:
2802  0AEA  C9          	ret
2803  0AEB              	SECTION code_compiler
2804  0AEB              ;	---------------------------------
2805  0AEB              ; Function game_paint_attrib
2806  0AEB              ; ---------------------------------
2807  0AEB              _game_paint_attrib:
2808  0AEB  CD 00 00    	call	___sdcc_enter_ix
2809  0AEE  DD 46 06    	ld	b,(ix+6)
2810  0AF1              l_game_paint_attrib_00103:
2811  0AF1  78          	ld	a, b
2812  0AF2  DD 96 07    	sub	a,(ix+7)
2813  0AF5  30 13       	jr	NC,l_game_paint_attrib_00105
2814  0AF7  DD 5E 04    	ld	e,(ix+4)
2815  0AFA  DD 56 05    	ld	d,(ix+5)
2816  0AFD  C5          	push	bc
2817  0AFE  DD 4E 08    	ld	c,(ix+8)
2818  0B01  C5          	push	bc
2819  0B02  D5          	push	de
2820  0B03  CD 00 00    	call	_NIRVANAP_paintC_callee
2821  0B06  C1          	pop	bc
2822  0B07  04          	inc	b
2823  0B08  18 E7       	jr	l_game_paint_attrib_00103
2824  0B0A              l_game_paint_attrib_00105:
2825  0B0A  DD E1       	pop	ix
2826  0B0C  C9          	ret
2827  0B0D              	SECTION code_compiler
2828  0B0D              ;	---------------------------------
2829  0B0D              ; Function game_colour_message
2830  0B0D              ; ---------------------------------
2831  0B0D              _game_colour_message:
2832  0B0D  CD 00 00    	call	___sdcc_enter_ix
2833  0B10  F5          	push	af
2834  0B11  F5          	push	af
2835  0B12  F5          	push	af
2836  0B13  F5          	push	af
2837  0B14  D1          	pop	de
2838  0B15  21 00 00    	ld	hl,_v0
2839  0B18  36 01       	ld	(hl),0x01
2840  0B1A  2A 00 00    	ld	hl,(_curr_time)
2841  0B1D  22 00 00    	ld	(_frame_time),hl
2842  0B20  E5          	push	hl
2843  0B21  DD 7E 04    	ld	a,(ix+4)
2844  0B24  4D          	ld	c,l
2845  0B25  07          	rlca
2846  0B26  07          	rlca
2847  0B27  07          	rlca
2848  0B28  E6 F8       	and	a,0xf8
2849  0B2A  DD 77 FF    	ld	(ix-1),a
2850  0B2D  C6 08       	add	a,0x08
2851  0B2F  DD 77 FE    	ld	(ix-2),a
2852  0B32  DD 77 FD    	ld	(ix-3),a
2853  0B35              l_game_colour_message_00112:
2854  0B35  3A 00 00    	ld	a,(_v0)
2855  0B38  B7          	or	a, a
2856  0B39  CA D5 0B    	jp	Z, l_game_colour_message_00114
2857  0B3C  DD 46 07    	ld	b,(ix+7)
2858  0B3F  21 00 00    	ld	hl,0x0000
2859  0B42  39          	add	hl, sp
2860  0B43  EB          	ex	de,hl
2861  0B44  C5          	push	bc
2862  0B45  33          	inc	sp
2863  0B46  D5          	push	de
2864  0B47  CD 4B 0C    	call	_game_check_time
2865  0B4A  F1          	pop	af
2866  0B4B  33          	inc	sp
2867  0B4C  7D          	ld	a, l
2868  0B4D  B7          	or	a, a
2869  0B4E  C2 D5 0B    	jp	NZ, l_game_colour_message_00114
2870  0B51  3E 05       	ld	a,0x05
2871  0B53  F5          	push	af
2872  0B54  33          	inc	sp
2873  0B55  21 00 00    	ld	hl,_frame_time
2874  0B58  E5          	push	hl
2875  0B59  CD 4B 0C    	call	_game_check_time
2876  0B5C  F1          	pop	af
2877  0B5D  33          	inc	sp
2878  0B5E  DD 75 FC    	ld	(ix-4),l
2879  0B61  7D          	ld	a, l
2880  0B62  B7          	or	a, a
2881  0B63  28 4A       	jr	Z,l_game_colour_message_00105
2882  0B65  2A 00 00    	ld	hl,(_curr_time)
2883  0B68  DD 74 FB    	ld	(ix-5),h
2884  0B6B  DD 75 FA    	ld	(ix-6),l
2885  0B6E  7D          	ld	a, l
2886  0B6F  21 00 00    	ld	hl,_frame_time
2887  0B72  77          	ld	(hl), a
2888  0B73  DD 7E FB    	ld	a,(ix-5)
2889  0B76  23          	inc	hl
2890  0B77  77          	ld	(hl), a
2891  0B78  3A 00 00    	ld	a,(_game_over)
2892  0B7B  B7          	or	a, a
2893  0B7C  28 18       	jr	Z,l_game_colour_message_00102
2894  0B7E  DD 66 FD    	ld	h,(ix-3)
2895  0B81  DD 6E 06    	ld	l,(ix+6)
2896  0B84  E5          	push	hl
2897  0B85  DD 7E 05    	ld	a,(ix+5)
2898  0B88  F5          	push	af
2899  0B89  33          	inc	sp
2900  0B8A  21 00 00    	ld	hl,_attrib_hl
2901  0B8D  E5          	push	hl
2902  0B8E  CD EB 0A    	call	_game_paint_attrib
2903  0B91  F1          	pop	af
2904  0B92  F1          	pop	af
2905  0B93  33          	inc	sp
2906  0B94  18 19       	jr	l_game_colour_message_00105
2907  0B96              l_game_colour_message_00102:
2908  0B96  DD 66 FE    	ld	h,(ix-2)
2909  0B99  DD 6E 06    	ld	l,(ix+6)
2910  0B9C  E5          	push	hl
2911  0B9D  DD 7E 05    	ld	a,(ix+5)
2912  0BA0  F5          	push	af
2913  0BA1  33          	inc	sp
2914  0BA2  21 00 00    	ld	hl,_attrib_osd
2915  0BA5  E5          	push	hl
2916  0BA6  CD EB 0A    	call	_game_paint_attrib
2917  0BA9  F1          	pop	af
2918  0BAA  F1          	pop	af
2919  0BAB  33          	inc	sp
2920  0BAC  CD F3 0C    	call	_game_rotate_attrib_osd
2921  0BAF              l_game_colour_message_00105:
2922  0BAF  DD 7E 09    	ld	a,(ix+9)
2923  0BB2  B7          	or	a, a
2924  0BB3  CA 35 0B    	jp	Z, l_game_colour_message_00112
2925  0BB6              l_game_colour_message_00106:
2926  0BB6  21 00 00    	ld	hl,_k1
2927  0BB9  E5          	push	hl
2928  0BBA  2A 00 00    	ld	hl,(_joyfunc1)
2929  0BBD  CD 00 00    	call	___sdcc_call_hl
2930  0BC0  F1          	pop	af
2931  0BC1  DD 74 FB    	ld	(ix-5),h
2932  0BC4  DD 75 FA    	ld	(ix-6),l
2933  0BC7  7C          	ld	a,h
2934  0BC8  DD B6 FA    	or	a,(ix-6)
2935  0BCB  CA 35 0B    	jp	Z, l_game_colour_message_00112
2936  0BCE  21 00 00    	ld	hl,_v0
2937  0BD1  36 00       	ld	(hl),0x00
2938  0BD3  18 E1       	jr	l_game_colour_message_00106
2939  0BD5              l_game_colour_message_00114:
2940  0BD5  DD 7E 06    	ld	a,(ix+6)
2941  0BD8  DD 96 05    	sub	a,(ix+5)
2942  0BDB  4F          	ld	c, a
2943  0BDC  3A 00 00    	ld	a,(_game_over)
2944  0BDF  B7          	or	a, a
2945  0BE0  28 2F       	jr	Z,l_game_colour_message_00118
2946  0BE2  21 00 00    	ld	hl,_v1
2947  0BE5  71          	ld	(hl), c
2948  0BE6  21 00 00    	ld	hl,_v0
2949  0BE9  36 00       	ld	(hl),0x00
2950  0BEB              l_game_colour_message_00121:
2951  0BEB  3A 00 00    	ld	a,(_v0)
2952  0BEE  21 00 00    	ld	hl,_v1
2953  0BF1  96          	sub	a, (hl)
2954  0BF2  30 52       	jr	NC,l_game_colour_message_00126
2955  0BF4  DD 7E 05    	ld	a,(ix+5)
2956  0BF7  21 00 00    	ld	hl,_v0
2957  0BFA  86          	add	a, (hl)
2958  0BFB  4F          	ld	c, a
2959  0BFC  21 24 04    	ld	hl,___str_45
2960  0BFF  E5          	push	hl
2961  0C00  79          	ld	a, c
2962  0C01  F5          	push	af
2963  0C02  33          	inc	sp
2964  0C03  DD 7E 04    	ld	a,(ix+4)
2965  0C06  F5          	push	af
2966  0C07  33          	inc	sp
2967  0C08  CD 00 00    	call	_zx_print_str
2968  0C0B  21 00 00    	ld	hl,_v0
2969  0C0E  34          	inc	(hl)
2970  0C0F  18 DA       	jr	l_game_colour_message_00121
2971  0C11              l_game_colour_message_00118:
2972  0C11  21 00 00    	ld	hl,_v1
2973  0C14  71          	ld	(hl), c
2974  0C15  DD 7E FF    	ld	a,(ix-1)
2975  0C18  32 00 00    	ld	(_s_lin0),a
2976  0C1B  DD 7E 05    	ld	a,(ix+5)
2977  0C1E  CB 3F       	srl	a
2978  0C20  87          	add	a, a
2979  0C21  32 00 00    	ld	(_s_col1),a
2980  0C24  21 00 00    	ld	hl,_v2
2981  0C27  36 00       	ld	(hl),0x00
2982  0C29              l_game_colour_message_00124:
2983  0C29  3A 00 00    	ld	a,(_v2)
2984  0C2C  21 00 00    	ld	hl,_v1
2985  0C2F  96          	sub	a, (hl)
2986  0C30  30 14       	jr	NC,l_game_colour_message_00126
2987  0C32  3A 00 00    	ld	a,(_s_col1)
2988  0C35  21 00 00    	ld	hl,_v2
2989  0C38  86          	add	a, (hl)
2990  0C39  32 00 00    	ld	(_s_col0),a
2991  0C3C  CD 00 00    	call	_spr_back_repaint
2992  0C3F  21 00 00    	ld	hl,_v2
2993  0C42  34          	inc	(hl)
2994  0C43  34          	inc	(hl)
2995  0C44  18 E3       	jr	l_game_colour_message_00124
2996  0C46              l_game_colour_message_00126:
2997  0C46  DD F9       	ld	sp, ix
2998  0C48  DD E1       	pop	ix
2999  0C4A  C9          	ret
3000  0C4B              	SECTION rodata_compiler
3001  0424              ___str_45:
3002  0424  20          	DEFM " "
3003  0425  00          	DEFB 0x00
3004  0426              	SECTION code_compiler
3005  0C4B              ;	---------------------------------
3006  0C4B              ; Function game_check_time
3007  0C4B              ; ---------------------------------
3008  0C4B              _game_check_time:
3009  0C4B  CD 00 00    	call	___sdcc_enter_ix
3010  0C4E  2A 00 00    	ld	hl,(_curr_time)
3011  0C51  4D          	ld	c, l
3012  0C52  DD 6E 04    	ld	l,(ix+4)
3013  0C55  44          	ld	b,h
3014  0C56  DD 66 05    	ld	h,(ix+5)
3015  0C59  5E          	ld	e, (hl)
3016  0C5A  23          	inc	hl
3017  0C5B  56          	ld	d, (hl)
3018  0C5C  79          	ld	a, c
3019  0C5D  93          	sub	a, e
3020  0C5E  4F          	ld	c, a
3021  0C5F  78          	ld	a, b
3022  0C60  9A          	sbc	a, d
3023  0C61  47          	ld	b, a
3024  0C62  DD 7E 06    	ld	a,(ix+6)
3025  0C65  16 00       	ld	d,0x00
3026  0C67  91          	sub	a, c
3027  0C68  7A          	ld	a, d
3028  0C69  98          	sbc	a, b
3029  0C6A  30 04       	jr	NC,l_game_check_time_00102
3030  0C6C  2E 01       	ld	l,0x01
3031  0C6E  18 02       	jr	l_game_check_time_00104
3032  0C70              l_game_check_time_00102:
3033  0C70  2E 00       	ld	l,0x00
3034  0C72              l_game_check_time_00104:
3035  0C72  DD E1       	pop	ix
3036  0C74  C9          	ret
3037  0C75              	SECTION code_compiler
3038  0C75              ;	---------------------------------
3039  0C75              ; Function game_key_paint
3040  0C75              ; ---------------------------------
3041  0C75              _game_key_paint:
3042  0C75  3A 00 00    	ld	a,(_game_playing)
3043  0C78  B7          	or	a, a
3044  0C79  CA F2 0C    	jp	Z, l_game_key_paint_00117
3045  0C7C  3A 00 00    	ld	a,(_obj_count)
3046  0C7F  B7          	or	a, a
3047  0C80  28 70       	jr	Z,l_game_key_paint_00117
3048  0C82  21 00 00    	ld	hl,_key_last
3049  0C85  4E          	ld	c, (hl)
3050  0C86  59          	ld	e, c
3051  0C87              l_game_key_paint_00105:
3052  0C87  7B          	ld	a, e
3053  0C88  D6 08       	sub	a,0x08
3054  0C8A  30 4A       	jr	NC,l_game_key_paint_00107
3055  0C8C  16 00       	ld	d,0x00
3056  0C8E  21 00 00    	ld	hl,_obj_col
3057  0C91  19          	add	hl, de
3058  0C92  7E          	ld	a,(hl)
3059  0C93  47          	ld	b,a
3060  0C94  3C          	inc	a
3061  0C95  28 3B       	jr	Z,l_game_key_paint_00104
3062  0C97  11 00 00    	ld	de,_obj_lin+0
3063  0C9A  69          	ld	l,c
3064  0C9B  26 00       	ld	h,0x00
3065  0C9D  19          	add	hl, de
3066  0C9E  5E          	ld	e, (hl)
3067  0C9F  C5          	push	bc
3068  0CA0  C5          	push	bc
3069  0CA1  33          	inc	sp
3070  0CA2  7B          	ld	a, e
3071  0CA3  F5          	push	af
3072  0CA4  33          	inc	sp
3073  0CA5  21 00 00    	ld	hl,_key_attrib
3074  0CA8  E5          	push	hl
3075  0CA9  CD 00 00    	call	_NIRVANAP_paintC_callee
3076  0CAC  C1          	pop	bc
3077  0CAD  3A 00 00    	ld	a,(_map_paper)
3078  0CB0  21 00 00    	ld	hl,_key_ink
3079  0CB3  B6          	or	a, (hl)
3080  0CB4  32 00 00    	ld	(_key_attrib),a
3081  0CB7  32 01 00    	ld	((_key_attrib + 0x0001)),a
3082  0CBA  32 02 00    	ld	((_key_attrib + 0x0002)),a
3083  0CBD  32 03 00    	ld	((_key_attrib + 0x0003)),a
3084  0CC0  21 00 00    	ld	hl,_key_ink
3085  0CC3  34          	inc	(hl)
3086  0CC4  3E 06       	ld	a,0x06
3087  0CC6  96          	sub	a, (hl)
3088  0CC7  30 02       	jr	NC,l_game_key_paint_00102
3089  0CC9  36 03       	ld	(hl),0x03
3090  0CCB              l_game_key_paint_00102:
3091  0CCB  79          	ld	a, c
3092  0CCC  3C          	inc	a
3093  0CCD  32 00 00    	ld	(_key_last),a
3094  0CD0  18 04       	jr	l_game_key_paint_00107
3095  0CD2              l_game_key_paint_00104:
3096  0CD2  1C          	inc	e
3097  0CD3  4B          	ld	c, e
3098  0CD4  18 B1       	jr	l_game_key_paint_00105
3099  0CD6              l_game_key_paint_00107:
3100  0CD6  79          	ld	a, c
3101  0CD7  D6 08       	sub	a,0x08
3102  0CD9  38 17       	jr	C,l_game_key_paint_00117
3103  0CDB  3A 00 00    	ld	a,(_obj_count)
3104  0CDE  D6 04       	sub	a,0x04
3105  0CE0  20 0B       	jr	NZ,l_game_key_paint_00111
3106  0CE2  21 00 00    	ld	hl,_key_ink
3107  0CE5  34          	inc	(hl)
3108  0CE6  3E 06       	ld	a,0x06
3109  0CE8  96          	sub	a, (hl)
3110  0CE9  30 02       	jr	NC,l_game_key_paint_00111
3111  0CEB  36 03       	ld	(hl),0x03
3112  0CED              l_game_key_paint_00111:
3113  0CED  21 00 00    	ld	hl,_key_last
3114  0CF0  36 00       	ld	(hl),0x00
3115  0CF2              l_game_key_paint_00117:
3116  0CF2  C9          	ret
3117  0CF3              	SECTION code_compiler
3118  0CF3              ;	---------------------------------
3119  0CF3              ; Function game_rotate_attrib_osd
3120  0CF3              ; ---------------------------------
3121  0CF3              _game_rotate_attrib_osd:
3122  0CF3  3A 00 00    	ld	a,(_game_attrib_osd)
3123  0CF6  D6 07       	sub	a,0x07
3124  0CF8  20 05       	jr	NZ,l_game_rotate_attrib_osd_00102
3125  0CFA  21 00 00    	ld	hl,_game_attrib_osd
3126  0CFD  36 01       	ld	(hl),0x01
3127  0CFF              l_game_rotate_attrib_osd_00102:
3128  0CFF  21 00 00    	ld	hl,_game_attrib_osd
3129  0D02  34          	inc	(hl)
3130  0D03  01 00 00    	ld	bc,_attrib_osd+0
3131  0D06  0A          	ld	a, (bc)
3132  0D07  32 00 00    	ld	(_v0),a
3133  0D0A  3A 03 00    	ld	a,(_attrib_osd + 0x0003)
3134  0D0D  02          	ld	(bc), a
3135  0D0E  59          	ld	e, c
3136  0D0F  50          	ld	d, b
3137  0D10  13          	inc	de
3138  0D11  03          	inc	bc
3139  0D12  03          	inc	bc
3140  0D13  0A          	ld	a, (bc)
3141  0D14  12          	ld	(de), a
3142  0D15  02          	ld	(bc), a
3143  0D16  3A 00 00    	ld	a,(_v0)
3144  0D19  32 03 00    	ld	((_attrib_osd + 0x0003)),a
3145  0D1C  C9          	ret
3146  0D1D              	SECTION code_compiler
3147  0D1D              ;	---------------------------------
3148  0D1D              ; Function game_attribs
3149  0D1D              ; ---------------------------------
3150  0D1D              _game_attribs:
3151  0D1D  01 00 00    	ld	bc,_attrib+0
3152  0D20  21 00 00    	ld	hl,_map_paper
3153  0D23  7E          	ld	a, (hl)
3154  0D24  F6 06       	or	a,0x06
3155  0D26  02          	ld	(bc), a
3156  0D27  59          	ld	e, c
3157  0D28  50          	ld	d, b
3158  0D29  13          	inc	de
3159  0D2A  7E          	ld	a, (hl)
3160  0D2B  F6 46       	or	a,0x46
3161  0D2D  12          	ld	(de), a
3162  0D2E  7E          	ld	a, (hl)
3163  0D2F  F6 07       	or	a,0x07
3164  0D31  32 02 00    	ld	((_attrib + 0x0002)),a
3165  0D34  03          	inc	bc
3166  0D35  03          	inc	bc
3167  0D36  03          	inc	bc
3168  0D37  21 00 00    	ld	hl,_map_paper
3169  0D3A  7E          	ld	a, (hl)
3170  0D3B  F6 06       	or	a,0x06
3171  0D3D  02          	ld	(bc), a
3172  0D3E  01 00 00    	ld	bc,_attrib_hl+0
3173  0D41  7E          	ld	a, (hl)
3174  0D42  F6 15       	or	a,0x15
3175  0D44  02          	ld	(bc), a
3176  0D45  59          	ld	e, c
3177  0D46  50          	ld	d, b
3178  0D47  13          	inc	de
3179  0D48  7E          	ld	a, (hl)
3180  0D49  F6 55       	or	a,0x55
3181  0D4B  12          	ld	(de), a
3182  0D4C  7E          	ld	a, (hl)
3183  0D4D  F6 17       	or	a,0x17
3184  0D4F  32 02 00    	ld	((_attrib_hl + 0x0002)),a
3185  0D52  03          	inc	bc
3186  0D53  03          	inc	bc
3187  0D54  03          	inc	bc
3188  0D55  3A 00 00    	ld	a,(_map_paper)
3189  0D58  F6 15       	or	a,0x15
3190  0D5A  02          	ld	(bc), a
3191  0D5B  21 70 71    	ld	hl,0x7170
3192  0D5E  22 00 00    	ld	(_attrib_osd),hl
3193  0D61  21 71 73    	ld	hl,0x7371
3194  0D64  22 02 00    	ld	(_attrib_osd + 2),hl
3195  0D67  C9          	ret
3196  0D68              	SECTION code_compiler
3197  0D68              ;	---------------------------------
3198  0D68              ; Function game_page_map
3199  0D68              ; ---------------------------------
3200  0D68              _game_page_map:
3201  0D68  CD 00 00    	call	___sdcc_enter_ix
3202  0D6B  21 B7 FF    	ld	hl, -73
3203  0D6E  39          	add	hl, sp
3204  0D6F  F9          	ld	sp, hl
3205  0D70  F3          	di
3206  0D71  21 00 00    	ld	hl,_game_world
3207  0D74  4E          	ld	c, (hl)
3208  0D75  21 00 00    	ld	hl,_scr_curr
3209  0D78  46          	ld	b, (hl)
3210  0D79  DD 70 E9    	ld	(ix-23),b
3211  0D7C  DD 70 FF    	ld	(ix-1),b
3212  0D7F  3E 13       	ld	a,0x13
3213  0D81  90          	sub	a, b
3214  0D82  30 06       	jr	NC,l_game_page_map_00102
3215  0D84  78          	ld	a, b
3216  0D85  C6 EC       	add	a,0xec
3217  0D87  DD 77 FF    	ld	(ix-1),a
3218  0D8A              l_game_page_map_00102:
3219  0D8A  79          	ld	a, c
3220  0D8B  07          	rlca
3221  0D8C  07          	rlca
3222  0D8D  07          	rlca
3223  0D8E  07          	rlca
3224  0D8F  E6 F0       	and	a,0xf0
3225  0D91  80          	add	a, b
3226  0D92  DD 77 E8    	ld	(ix-24),a
3227  0D95  4F          	ld	c,a
3228  0D96  3A 00 00    	ld	a,(_game_tileset)
3229  0D99  DD 77 E7    	ld	(ix-25),a
3230  0D9C  C5          	push	bc
3231  0D9D  3E 06       	ld	a,0x06
3232  0D9F  F5          	push	af
3233  0DA0  33          	inc	sp
3234  0DA1  CD EF 13    	call	_page
3235  0DA4  33          	inc	sp
3236  0DA5  C1          	pop	bc
3237  0DA6  04          	inc	b
3238  0DA7  20 03       	jr	NZ,l_game_page_map_00104
3239  0DA9  DD 71 E8    	ld	(ix-24),c
3240  0DAC              l_game_page_map_00104:
3241  0DAC  01 00 00    	ld	bc,_paper0+0
3242  0DAF  DD 6E E8    	ld	l,(ix-24)
3243  0DB2  26 00       	ld	h,0x00
3244  0DB4  09          	add	hl, bc
3245  0DB5  7E          	ld	a, (hl)
3246  0DB6  DD 77 EA    	ld	(ix-22),a
3247  0DB9  AF          	xor	a, a
3248  0DBA  F5          	push	af
3249  0DBB  33          	inc	sp
3250  0DBC  CD EF 13    	call	_page
3251  0DBF  33          	inc	sp
3252  0DC0  21 50 01    	ld	hl,0x0150
3253  0DC3  22 00 00    	ld	(_index1),hl
3254  0DC6  11 00 00    	ld	de,_btiles+0
3255  0DC9  21 00 00    	ld	hl,0x0000
3256  0DCC  39          	add	hl, sp
3257  0DCD  DD 36 F3 00 	ld	(ix-13),0x00
3258  0DD1  DD 36 F4 00 	ld	(ix-12),0x00
3259  0DD5  4D          	ld	c,l
3260  0DD6  44          	ld	b,h
3261  0DD7              l_game_page_map_00105:
3262  0DD7  DD 7E F3    	ld	a,(ix-13)
3263  0DDA  D6 30       	sub	a,0x30
3264  0DDC  DD 7E F4    	ld	a,(ix-12)
3265  0DDF  DE 00       	sbc	a,0x00
3266  0DE1  30 2C       	jr	NC,l_game_page_map_00107
3267  0DE3  DD 7E F3    	ld	a,(ix-13)
3268  0DE6  C6 50       	add	a,0x50
3269  0DE8  6F          	ld	l, a
3270  0DE9  DD 7E F4    	ld	a,(ix-12)
3271  0DEC  CE 01       	adc	a,0x01
3272  0DEE  67          	ld	h, a
3273  0DEF  19          	add	hl,de
3274  0DF0  DD 75 FD    	ld	(ix-3),l
3275  0DF3  DD 74 FE    	ld	(ix-2),h
3276  0DF6  DD 6E F3    	ld	l,(ix-13)
3277  0DF9  DD 66 F4    	ld	h,(ix-12)
3278  0DFC  09          	add	hl, bc
3279  0DFD  7E          	ld	a, (hl)
3280  0DFE  DD 6E FD    	ld	l,(ix-3)
3281  0E01  DD 66 FE    	ld	h,(ix-2)
3282  0E04  77          	ld	(hl), a
3283  0E05  DD 34 F3    	inc	(ix-13)
3284  0E08  20 CD       	jr	NZ,l_game_page_map_00105
3285  0E0A  DD 34 F4    	inc	(ix-12)
3286  0E0D  18 C8       	jr	l_game_page_map_00105
3287  0E0F              l_game_page_map_00107:
3288  0E0F  DD 6E FF    	ld	l,(ix-1)
3289  0E12  26 00       	ld	h,0x00
3290  0E14  D5          	push	de
3291  0E15  5D          	ld	e, l
3292  0E16  54          	ld	d, h
3293  0E17  29          	add	hl, hl
3294  0E18  19          	add	hl, de
3295  0E19  AF          	xor	a,a
3296  0E1A  CB 3C       	srl	h
3297  0E1C  CB 1D       	rr	l
3298  0E1E  1F          	rra
3299  0E1F  D1          	pop	de
3300  0E20  DD 77 ED    	ld	(ix-19),a
3301  0E23  DD 75 EE    	ld	(ix-18),l
3302  0E26  DD 71 FD    	ld	(ix-3),c
3303  0E29  DD 70 FE    	ld	(ix-2),b
3304  0E2C  DD 71 FB    	ld	(ix-5),c
3305  0E2F  DD 70 FC    	ld	(ix-4),b
3306  0E32  DD 71 F9    	ld	(ix-7),c
3307  0E35  DD 70 FA    	ld	(ix-6),b
3308  0E38  DD 36 EF 00 	ld	(ix-17),0x00
3309  0E3C  DD 36 F0 00 	ld	(ix-16),0x00
3310  0E40              l_game_page_map_00117:
3311  0E40  DD 7E EF    	ld	a,(ix-17)
3312  0E43  D6 80       	sub	a,0x80
3313  0E45  DD 7E F0    	ld	a,(ix-16)
3314  0E48  DE 01       	sbc	a,0x01
3315  0E4A  D2 0A 0F    	jp	NC, l_game_page_map_00119
3316  0E4D  3E 07       	ld	a,0x07
3317  0E4F  F5          	push	af
3318  0E50  33          	inc	sp
3319  0E51  CD EF 13    	call	_page
3320  0E54  33          	inc	sp
3321  0E55  01 00 00    	ld	bc,0x0000
3322  0E58              l_game_page_map_00111:
3323  0E58  79          	ld	a, c
3324  0E59  D6 30       	sub	a,0x30
3325  0E5B  78          	ld	a, b
3326  0E5C  DE 00       	sbc	a,0x00
3327  0E5E  30 50       	jr	NC,l_game_page_map_00113
3328  0E60  DD 6E ED    	ld	l,(ix-19)
3329  0E63  DD 66 EE    	ld	h,(ix-18)
3330  0E66  09          	add	hl, bc
3331  0E67  7D          	ld	a, l
3332  0E68  DD 86 EF    	add	a,(ix-17)
3333  0E6B  5F          	ld	e, a
3334  0E6C  7C          	ld	a, h
3335  0E6D  DD 8E F0    	adc	a,(ix-16)
3336  0E70  57          	ld	d, a
3337  0E71  DD 7E E7    	ld	a,(ix-25)
3338  0E74  B7          	or	a, a
3339  0E75  20 1C       	jr	NZ,l_game_page_map_00109
3340  0E77  DD 7E FB    	ld	a,(ix-5)
3341  0E7A  81          	add	a, c
3342  0E7B  DD 77 F7    	ld	(ix-9),a
3343  0E7E  DD 7E FC    	ld	a,(ix-4)
3344  0E81  88          	adc	a, b
3345  0E82  DD 77 F8    	ld	(ix-8),a
3346  0E85  21 00 00    	ld	hl,_hitiles1
3347  0E88  19          	add	hl, de
3348  0E89  5E          	ld	e, (hl)
3349  0E8A  DD 6E F7    	ld	l,(ix-9)
3350  0E8D  DD 66 F8    	ld	h,(ix-8)
3351  0E90  73          	ld	(hl), e
3352  0E91  18 1A       	jr	l_game_page_map_00110
3353  0E93              l_game_page_map_00109:
3354  0E93  DD 7E FD    	ld	a,(ix-3)
3355  0E96  81          	add	a, c
3356  0E97  DD 77 F7    	ld	(ix-9),a
3357  0E9A  DD 7E FE    	ld	a,(ix-2)
3358  0E9D  88          	adc	a, b
3359  0E9E  DD 77 F8    	ld	(ix-8),a
3360  0EA1  21 00 00    	ld	hl,_hitiles2
3361  0EA4  19          	add	hl, de
3362  0EA5  5E          	ld	e, (hl)
3363  0EA6  DD 6E F7    	ld	l,(ix-9)
3364  0EA9  DD 66 F8    	ld	h,(ix-8)
3365  0EAC  73          	ld	(hl), e
3366  0EAD              l_game_page_map_00110:
3367  0EAD  03          	inc	bc
3368  0EAE  18 A8       	jr	l_game_page_map_00111
3369  0EB0              l_game_page_map_00113:
3370  0EB0  AF          	xor	a, a
3371  0EB1  F5          	push	af
3372  0EB2  33          	inc	sp
3373  0EB3  CD EF 13    	call	_page
3374  0EB6  33          	inc	sp
3375  0EB7  DD 36 F3 00 	ld	(ix-13),0x00
3376  0EBB  DD 36 F4 00 	ld	(ix-12),0x00
3377  0EBF              l_game_page_map_00114:
3378  0EBF  DD 7E F3    	ld	a,(ix-13)
3379  0EC2  D6 30       	sub	a,0x30
3380  0EC4  DD 7E F4    	ld	a,(ix-12)
3381  0EC7  DE 00       	sbc	a,0x00
3382  0EC9  30 2C       	jr	NC,l_game_page_map_00116
3383  0ECB  DD 7E EF    	ld	a,(ix-17)
3384  0ECE  DD 86 F3    	add	a,(ix-13)
3385  0ED1  4F          	ld	c, a
3386  0ED2  DD 7E F0    	ld	a,(ix-16)
3387  0ED5  DD 8E F4    	adc	a,(ix-12)
3388  0ED8  47          	ld	b, a
3389  0ED9  21 00 00    	ld	hl,_btiles
3390  0EDC  09          	add	hl,bc
3391  0EDD  DD 7E F9    	ld	a,(ix-7)
3392  0EE0  DD 86 F3    	add	a,(ix-13)
3393  0EE3  5F          	ld	e,a
3394  0EE4  DD 7E FA    	ld	a,(ix-6)
3395  0EE7  DD 8E F4    	adc	a,(ix-12)
3396  0EEA  57          	ld	d,a
3397  0EEB  1A          	ld	a,(de)
3398  0EEC  77          	ld	(hl),a
3399  0EED  DD 34 F3    	inc	(ix-13)
3400  0EF0  20 CD       	jr	NZ,l_game_page_map_00114
3401  0EF2  DD 34 F4    	inc	(ix-12)
3402  0EF5  18 C8       	jr	l_game_page_map_00114
3403  0EF7              l_game_page_map_00116:
3404  0EF7  DD 7E EF    	ld	a,(ix-17)
3405  0EFA  C6 30       	add	a,0x30
3406  0EFC  DD 77 EF    	ld	(ix-17),a
3407  0EFF  DD 7E F0    	ld	a,(ix-16)
3408  0F02  CE 00       	adc	a,0x00
3409  0F04  DD 77 F0    	ld	(ix-16),a
3410  0F07  C3 40 0E    	jp	l_game_page_map_00117
3411  0F0A              l_game_page_map_00119:
3412  0F0A  3E 00       	ld	a,0x00
3413  0F0C  DD 77 EF    	ld	(ix-17),a
3414  0F0F  DD 77 F0    	ld	(ix-16),a
3415  0F12  DD 77 EB    	ld	(ix-21),a
3416  0F15  DD 77 EC    	ld	(ix-20),a
3417  0F18  3E 06       	ld	a,0x06
3418  0F1A  F5          	push	af
3419  0F1B  33          	inc	sp
3420  0F1C  CD EF 13    	call	_page
3421  0F1F  33          	inc	sp
3422  0F20  DD 36 F1 00 	ld	(ix-15),0x00
3423  0F24  DD 36 F2 00 	ld	(ix-14),0x00
3424  0F28              l_game_page_map_00120:
3425  0F28  DD 4E E8    	ld	c,(ix-24)
3426  0F2B  06 00       	ld	b,0x00
3427  0F2D  DD 7E F1    	ld	a,(ix-15)
3428  0F30  91          	sub	a, c
3429  0F31  DD 7E F2    	ld	a,(ix-14)
3430  0F34  98          	sbc	a, b
3431  0F35  30 26       	jr	NC,l_game_page_map_00122
3432  0F37  DD 6E F1    	ld	l,(ix-15)
3433  0F3A  DD 66 F2    	ld	h,(ix-14)
3434  0F3D  29          	add	hl, hl
3435  0F3E  11 00 00    	ld	de,_lenght0
3436  0F41  19          	add	hl, de
3437  0F42  4E          	ld	c, (hl)
3438  0F43  23          	inc	hl
3439  0F44  46          	ld	b, (hl)
3440  0F45  DD 7E EB    	ld	a,(ix-21)
3441  0F48  81          	add	a, c
3442  0F49  DD 77 EB    	ld	(ix-21),a
3443  0F4C  DD 7E EC    	ld	a,(ix-20)
3444  0F4F  88          	adc	a, b
3445  0F50  DD 77 EC    	ld	(ix-20),a
3446  0F53  DD 34 F1    	inc	(ix-15)
3447  0F56  20 D0       	jr	NZ,l_game_page_map_00120
3448  0F58  DD 34 F2    	inc	(ix-14)
3449  0F5B  18 CB       	jr	l_game_page_map_00120
3450  0F5D              l_game_page_map_00122:
3451  0F5D  AF          	xor	a, a
3452  0F5E  F5          	push	af
3453  0F5F  33          	inc	sp
3454  0F60  CD EF 13    	call	_page
3455  0F63  33          	inc	sp
3456  0F64  DD 36 F3 00 	ld	(ix-13),0x00
3457  0F68  DD 36 F4 00 	ld	(ix-12),0x00
3458  0F6C              l_game_page_map_00135:
3459  0F6C  3E 06       	ld	a,0x06
3460  0F6E  F5          	push	af
3461  0F6F  33          	inc	sp
3462  0F70  CD EF 13    	call	_page
3463  0F73  33          	inc	sp
3464  0F74  DD 7E EB    	ld	a,(ix-21)
3465  0F77  DD 86 F3    	add	a,(ix-13)
3466  0F7A  4F          	ld	c, a
3467  0F7B  DD 7E EC    	ld	a,(ix-20)
3468  0F7E  DD 8E F4    	adc	a,(ix-12)
3469  0F81  47          	ld	b, a
3470  0F82  21 00 00    	ld	hl,_world0
3471  0F85  09          	add	hl, bc
3472  0F86  5E          	ld	e, (hl)
3473  0F87  03          	inc	bc
3474  0F88  21 00 00    	ld	hl,_world0
3475  0F8B  09          	add	hl, bc
3476  0F8C  7E          	ld	a, (hl)
3477  0F8D  DD 77 F6    	ld	(ix-10),a
3478  0F90  D5          	push	de
3479  0F91  AF          	xor	a, a
3480  0F92  F5          	push	af
3481  0F93  33          	inc	sp
3482  0F94  CD EF 13    	call	_page
3483  0F97  33          	inc	sp
3484  0F98  D1          	pop	de
3485  0F99  7B          	ld	a, e
3486  0F9A  D6 80       	sub	a,0x80
3487  0F9C  30 15       	jr	NC,l_game_page_map_00127
3488  0F9E  01 00 00    	ld	bc,_scr_map
3489  0FA1  DD 6E EF    	ld	l,(ix-17)
3490  0FA4  DD 66 F0    	ld	h,(ix-16)
3491  0FA7  09          	add	hl,bc
3492  0FA8  73          	ld	(hl), e
3493  0FA9  DD 34 EF    	inc	(ix-17)
3494  0FAC  20 6F       	jr	NZ,l_game_page_map_00128
3495  0FAE  DD 34 F0    	inc	(ix-16)
3496  0FB1  18 6A       	jr	l_game_page_map_00128
3497  0FB3              l_game_page_map_00127:
3498  0FB3  7B          	ld	a, e
3499  0FB4  C6 80       	add	a,0x80
3500  0FB6  DD 77 F5    	ld	(ix-11),a
3501  0FB9  DD 7E EF    	ld	a,(ix-17)
3502  0FBC  DD 77 F7    	ld	(ix-9),a
3503  0FBF  DD 7E F0    	ld	a,(ix-16)
3504  0FC2  DD 77 F8    	ld	(ix-8),a
3505  0FC5  DD 36 F1 00 	ld	(ix-15),0x00
3506  0FC9  DD 36 F2 00 	ld	(ix-14),0x00
3507  0FCD              l_game_page_map_00133:
3508  0FCD  DD 4E F5    	ld	c,(ix-11)
3509  0FD0  06 00       	ld	b,0x00
3510  0FD2  DD 7E F1    	ld	a,(ix-15)
3511  0FD5  91          	sub	a, c
3512  0FD6  DD 7E F2    	ld	a,(ix-14)
3513  0FD9  98          	sbc	a, b
3514  0FDA  30 2D       	jr	NC,l_game_page_map_00162
3515  0FDC  DD 6E F7    	ld	l,(ix-9)
3516  0FDF  DD 66 F8    	ld	h,(ix-8)
3517  0FE2  01 00 00    	ld	bc,_scr_map
3518  0FE5  09          	add	hl,bc
3519  0FE6  DD 75 F9    	ld	(ix-7),l
3520  0FE9  DD 74 FA    	ld	(ix-6),h
3521  0FEC  DD 7E F6    	ld	a,(ix-10)
3522  0FEF  77          	ld	(hl), a
3523  0FF0  DD 34 F7    	inc	(ix-9)
3524  0FF3  20 03       	jr	NZ,l_game_page_map_00227
3525  0FF5  DD 34 F8    	inc	(ix-8)
3526  0FF8              l_game_page_map_00227:
3527  0FF8  DD 7E F8    	ld	a,(ix-8)
3528  0FFB  D6 02       	sub	a,0x02
3529  0FFD  30 0A       	jr	NC,l_game_page_map_00162
3530  0FFF  DD 34 F1    	inc	(ix-15)
3531  1002  20 C9       	jr	NZ,l_game_page_map_00133
3532  1004  DD 34 F2    	inc	(ix-14)
3533  1007  18 C4       	jr	l_game_page_map_00133
3534  1009              l_game_page_map_00162:
3535  1009  DD 7E F7    	ld	a,(ix-9)
3536  100C  DD 77 EF    	ld	(ix-17),a
3537  100F  DD 7E F8    	ld	a,(ix-8)
3538  1012  DD 77 F0    	ld	(ix-16),a
3539  1015  DD 34 F3    	inc	(ix-13)
3540  1018  20 03       	jr	NZ,l_game_page_map_00229
3541  101A  DD 34 F4    	inc	(ix-12)
3542  101D              l_game_page_map_00229:
3543  101D              l_game_page_map_00128:
3544  101D  DD 7E F0    	ld	a,(ix-16)
3545  1020  D6 02       	sub	a,0x02
3546  1022  30 10       	jr	NC,l_game_page_map_00131
3547  1024  DD 34 F3    	inc	(ix-13)
3548  1027  20 03       	jr	NZ,l_game_page_map_00230
3549  1029  DD 34 F4    	inc	(ix-12)
3550  102C              l_game_page_map_00230:
3551  102C  DD 7E F4    	ld	a,(ix-12)
3552  102F  D6 02       	sub	a,0x02
3553  1031  DA 6C 0F    	jp	C, l_game_page_map_00135
3554  1034              l_game_page_map_00131:
3555  1034  DD 7E E9    	ld	a,(ix-23)
3556  1037  32 00 00    	ld	(_scr_curr),a
3557  103A  DD 7E EA    	ld	a,(ix-22)
3558  103D  32 00 00    	ld	(_map_paper),a
3559  1040  FB          	ei
3560  1041  DD F9       	ld	sp, ix
3561  1043  DD E1       	pop	ix
3562  1045  C9          	ret
3563  1046              	SECTION code_compiler
3564  1046              ;	---------------------------------
3565  1046              ; Function game_flash_exit
3566  1046              ; ---------------------------------
3567  1046              _game_flash_exit:
3568  1046  CD 00 00    	call	___sdcc_enter_ix
3569  1049  21 00 00    	ld	hl,_i
3570  104C  36 00       	ld	(hl),0x00
3571  104E  01 70 01    	ld	bc,0x0170
3572  1051              l_game_flash_exit_00101:
3573  1051  3A 00 00    	ld	a,(_i)
3574  1054  D6 10       	sub	a,0x10
3575  1056  30 14       	jr	NC,l_game_flash_exit_00103
3576  1058  21 00 00    	ld	hl,_btiles
3577  105B  09          	add	hl,bc
3578  105C  7E          	ld	a,(hl)
3579  105D  EB          	ex	de,hl
3580  105E  E6 7F       	and	a,0x7f
3581  1060  12          	ld	(de), a
3582  1061  DD B6 04    	or	a,(ix+4)
3583  1064  12          	ld	(de), a
3584  1065  21 00 00    	ld	hl,_i
3585  1068  34          	inc	(hl)
3586  1069  03          	inc	bc
3587  106A  18 E5       	jr	l_game_flash_exit_00101
3588  106C              l_game_flash_exit_00103:
3589  106C  2A FF FF    	ld	hl,(_game_exit_col - 1)
3590  106F  3A 00 00    	ld	a,(_game_exit_lin)
3591  1072  6F          	ld	l,a
3592  1073  E5          	push	hl
3593  1074  21 06 07    	ld	hl,0x0706
3594  1077  E5          	push	hl
3595  1078  CD 00 00    	call	_NIRVANAP_spriteT_callee
3596  107B  76          	halt
3597  107C  DD E1       	pop	ix
3598  107E  C9          	ret
3599  107F              	SECTION code_compiler
3600  107F              ;	---------------------------------
3601  107F              ; Function game_copy_sprite_std
3602  107F              ; ---------------------------------
3603  107F              _game_copy_sprite_std:
3604  107F  CD 00 00    	call	___sdcc_enter_ix
3605  1082  AF          	xor	a, a
3606  1083  F5          	push	af
3607  1084  33          	inc	sp
3608  1085  DD 66 05    	ld	h,(ix+5)
3609  1088  DD 6E 04    	ld	l,(ix+4)
3610  108B  E5          	push	hl
3611  108C  CD 29 11    	call	_game_copy_sprite
3612  108F  F1          	pop	af
3613  1090  33          	inc	sp
3614  1091  DD 46 05    	ld	b,(ix+5)
3615  1094  04          	inc	b
3616  1095  DD 4E 04    	ld	c,(ix+4)
3617  1098  0C          	inc	c
3618  1099  C5          	push	bc
3619  109A  AF          	xor	a, a
3620  109B  F5          	push	af
3621  109C  33          	inc	sp
3622  109D  C5          	push	bc
3623  109E  CD 29 11    	call	_game_copy_sprite
3624  10A1  F1          	pop	af
3625  10A2  33          	inc	sp
3626  10A3  C1          	pop	bc
3627  10A4  DD 56 05    	ld	d,(ix+5)
3628  10A7  14          	inc	d
3629  10A8  14          	inc	d
3630  10A9  DD 46 04    	ld	b,(ix+4)
3631  10AC  04          	inc	b
3632  10AD  04          	inc	b
3633  10AE  C5          	push	bc
3634  10AF  AF          	xor	a, a
3635  10B0  5A          	ld	e,d
3636  10B1  57          	ld	d,a
3637  10B2  D5          	push	de
3638  10B3  C5          	push	bc
3639  10B4  33          	inc	sp
3640  10B5  CD 29 11    	call	_game_copy_sprite
3641  10B8  F1          	pop	af
3642  10B9  33          	inc	sp
3643  10BA  C1          	pop	bc
3644  10BB  DD 56 05    	ld	d,(ix+5)
3645  10BE  14          	inc	d
3646  10BF  14          	inc	d
3647  10C0  14          	inc	d
3648  10C1  DD 5E 04    	ld	e,(ix+4)
3649  10C4  1C          	inc	e
3650  10C5  1C          	inc	e
3651  10C6  1C          	inc	e
3652  10C7  C5          	push	bc
3653  10C8  D5          	push	de
3654  10C9  AF          	xor	a, a
3655  10CA  F5          	push	af
3656  10CB  33          	inc	sp
3657  10CC  D5          	push	de
3658  10CD  CD 29 11    	call	_game_copy_sprite
3659  10D0  F1          	pop	af
3660  10D1  33          	inc	sp
3661  10D2  D1          	pop	de
3662  10D3  C1          	pop	bc
3663  10D4  DD 56 05    	ld	d,(ix+5)
3664  10D7  14          	inc	d
3665  10D8  14          	inc	d
3666  10D9  14          	inc	d
3667  10DA  14          	inc	d
3668  10DB  C5          	push	bc
3669  10DC  3E 01       	ld	a,0x01
3670  10DE  F5          	push	af
3671  10DF  33          	inc	sp
3672  10E0  D5          	push	de
3673  10E1  CD 29 11    	call	_game_copy_sprite
3674  10E4  F1          	pop	af
3675  10E5  33          	inc	sp
3676  10E6  C1          	pop	bc
3677  10E7  DD 7E 05    	ld	a,(ix+5)
3678  10EA  C6 05       	add	a,0x05
3679  10EC  57          	ld	d, a
3680  10ED  C5          	push	bc
3681  10EE  3E 01       	ld	a,0x01
3682  10F0  5A          	ld	e,d
3683  10F1  57          	ld	d,a
3684  10F2  D5          	push	de
3685  10F3  C5          	push	bc
3686  10F4  33          	inc	sp
3687  10F5  CD 29 11    	call	_game_copy_sprite
3688  10F8  F1          	pop	af
3689  10F9  33          	inc	sp
3690  10FA  C1          	pop	bc
3691  10FB  DD 7E 05    	ld	a,(ix+5)
3692  10FE  C6 06       	add	a,0x06
3693  1100  47          	ld	b, a
3694  1101  3E 01       	ld	a,0x01
3695  1103  F5          	push	af
3696  1104  33          	inc	sp
3697  1105  C5          	push	bc
3698  1106  CD 29 11    	call	_game_copy_sprite
3699  1109  F1          	pop	af
3700  110A  33          	inc	sp
3701  110B  DD 7E 05    	ld	a,(ix+5)
3702  110E  C6 07       	add	a,0x07
3703  1110  47          	ld	b, a
3704  1111  3E 01       	ld	a,0x01
3705  1113  48          	ld	c,b
3706  1114  47          	ld	b,a
3707  1115  C5          	push	bc
3708  1116  DD 7E 04    	ld	a,(ix+4)
3709  1119  F5          	push	af
3710  111A  33          	inc	sp
3711  111B  CD 29 11    	call	_game_copy_sprite
3712  111E  F1          	pop	af
3713  111F  33          	inc	sp
3714  1120  DD 7E 05    	ld	a,(ix+5)
3715  1123  C6 08       	add	a,0x08
3716  1125  6F          	ld	l, a
3717  1126  DD E1       	pop	ix
3718  1128  C9          	ret
3719  1129              	SECTION code_compiler
3720  1129              ;	---------------------------------
3721  1129              ; Function game_copy_sprite
3722  1129              ; ---------------------------------
3723  1129              _game_copy_sprite:
3724  1129  CD 00 00    	call	___sdcc_enter_ix
3725  112C  21 C2 FF    	ld	hl, -62
3726  112F  39          	add	hl, sp
3727  1130  F9          	ld	sp, hl
3728  1131  3A 00 00    	ld	a,(_game_tileset)
3729  1134  DD 77 C2    	ld	(ix-62),a
3730  1137  F3          	di
3731  1138  3E 03       	ld	a,0x03
3732  113A  F5          	push	af
3733  113B  33          	inc	sp
3734  113C  CD EF 13    	call	_page
3735  113F  33          	inc	sp
3736  1140  DD 6E 04    	ld	l,(ix+4)
3737  1143  26 00       	ld	h,0x00
3738  1145  4D          	ld	c,l
3739  1146  44          	ld	b,h
3740  1147  29          	add	hl, hl
3741  1148  09          	add	hl, bc
3742  1149  29          	add	hl, hl
3743  114A  29          	add	hl, hl
3744  114B  29          	add	hl, hl
3745  114C  29          	add	hl, hl
3746  114D  DD 75 FE    	ld	(ix-2),l
3747  1150  DD 74 FF    	ld	(ix-1),h
3748  1153  21 02 00    	ld	hl,0x0002
3749  1156  39          	add	hl, sp
3750  1157  DD 75 FC    	ld	(ix-4),l
3751  115A  DD 74 FD    	ld	(ix-3),h
3752  115D  DD 75 FA    	ld	(ix-6),l
3753  1160  DD 74 FB    	ld	(ix-5),h
3754  1163  DD 7E FC    	ld	a,(ix-4)
3755  1166  DD 77 F8    	ld	(ix-8),a
3756  1169  DD 7E FD    	ld	a,(ix-3)
3757  116C  DD 77 F9    	ld	(ix-7),a
3758  116F  DD 36 C3 00 	ld	(ix-61),0x00
3759  1173              l_game_copy_sprite_00107:
3760  1173  DD 7E C3    	ld	a,(ix-61)
3761  1176  D6 30       	sub	a,0x30
3762  1178  30 74       	jr	NC,l_game_copy_sprite_00109
3763  117A  DD 7E C2    	ld	a,(ix-62)
3764  117D  B7          	or	a, a
3765  117E  20 1D       	jr	NZ,l_game_copy_sprite_00102
3766  1180  DD 7E FA    	ld	a,(ix-6)
3767  1183  DD 86 C3    	add	a,(ix-61)
3768  1186  4F          	ld	c, a
3769  1187  DD 7E FB    	ld	a,(ix-5)
3770  118A  CE 00       	adc	a,0x00
3771  118C  47          	ld	b, a
3772  118D  3E 00       	ld	a, +((_hisprites1) & 0xFF)
3773  118F  DD 86 FE    	add	a,(ix-2)
3774  1192  5F          	ld	e, a
3775  1193  3E 00       	ld	a, +((_hisprites1) / 256)
3776  1195  DD 8E FF    	adc	a,(ix-1)
3777  1198  57          	ld	d, a
3778  1199  1A          	ld	a, (de)
3779  119A  02          	ld	(bc), a
3780  119B  18 23       	jr	l_game_copy_sprite_00103
3781  119D              l_game_copy_sprite_00102:
3782  119D  DD 7E FC    	ld	a,(ix-4)
3783  11A0  DD 86 C3    	add	a,(ix-61)
3784  11A3  DD 77 F6    	ld	(ix-10),a
3785  11A6  DD 7E FD    	ld	a,(ix-3)
3786  11A9  CE 00       	adc	a,0x00
3787  11AB  DD 77 F7    	ld	(ix-9),a
3788  11AE  01 00 00    	ld	bc,_hisprites2
3789  11B1  DD 6E FE    	ld	l,(ix-2)
3790  11B4  DD 66 FF    	ld	h,(ix-1)
3791  11B7  09          	add	hl,bc
3792  11B8  4E          	ld	c, (hl)
3793  11B9  DD 6E F6    	ld	l,(ix-10)
3794  11BC  DD 66 F7    	ld	h,(ix-9)
3795  11BF  71          	ld	(hl), c
3796  11C0              l_game_copy_sprite_00103:
3797  11C0  3E 1F       	ld	a,0x1f
3798  11C2  DD 96 C3    	sub	a,(ix-61)
3799  11C5  30 19       	jr	NC,l_game_copy_sprite_00105
3800  11C7  DD 7E F8    	ld	a,(ix-8)
3801  11CA  DD 86 C3    	add	a,(ix-61)
3802  11CD  4F          	ld	c, a
3803  11CE  DD 7E F9    	ld	a,(ix-7)
3804  11D1  CE 00       	adc	a,0x00
3805  11D3  47          	ld	b, a
3806  11D4  0A          	ld	a, (bc)
3807  11D5  5F          	ld	e, a
3808  11D6  3A 00 00    	ld	a,(_spr_init_cin0)
3809  11D9  93          	sub	a, e
3810  11DA  20 04       	jr	NZ,l_game_copy_sprite_00105
3811  11DC  3A 00 00    	ld	a,(_spr_init_cout0)
3812  11DF  02          	ld	(bc), a
3813  11E0              l_game_copy_sprite_00105:
3814  11E0  DD 34 C3    	inc	(ix-61)
3815  11E3  DD 34 FE    	inc	(ix-2)
3816  11E6  20 8B       	jr	NZ,l_game_copy_sprite_00107
3817  11E8  DD 34 FF    	inc	(ix-1)
3818  11EB  C3 73 11    	jp	l_game_copy_sprite_00107
3819  11EE              l_game_copy_sprite_00109:
3820  11EE  AF          	xor	a, a
3821  11EF  F5          	push	af
3822  11F0  33          	inc	sp
3823  11F1  CD EF 13    	call	_page
3824  11F4  33          	inc	sp
3825  11F5  FB          	ei
3826  11F6  DD 7E FC    	ld	a,(ix-4)
3827  11F9  DD 77 F6    	ld	(ix-10),a
3828  11FC  DD 7E FD    	ld	a,(ix-3)
3829  11FF  DD 77 F7    	ld	(ix-9),a
3830  1202  DD 36 C3 20 	ld	(ix-61),0x20
3831  1206              l_game_copy_sprite_00121:
3832  1206  DD 7E C3    	ld	a,(ix-61)
3833  1209  D6 30       	sub	a,0x30
3834  120B  30 71       	jr	NC,l_game_copy_sprite_00123
3835  120D  DD 7E F6    	ld	a,(ix-10)
3836  1210  DD 86 C3    	add	a,(ix-61)
3837  1213  DD 77 F8    	ld	(ix-8),a
3838  1216  6F          	ld	l,a
3839  1217  DD 7E F7    	ld	a,(ix-9)
3840  121A  CE 00       	adc	a,0x00
3841  121C  DD 77 F9    	ld	(ix-7),a
3842  121F  67          	ld	h,a
3843  1220  4E          	ld	c, (hl)
3844  1221  3A 00 00    	ld	a,(_spr_init_cin0)
3845  1224  91          	sub	a, c
3846  1225  20 0C       	jr	NZ,l_game_copy_sprite_00119
3847  1227  DD 6E F8    	ld	l,(ix-8)
3848  122A  DD 66 F9    	ld	h,(ix-7)
3849  122D  3A 00 00    	ld	a,(_spr_init_cout0)
3850  1230  77          	ld	(hl),a
3851  1231  18 34       	jr	l_game_copy_sprite_00120
3852  1233              l_game_copy_sprite_00119:
3853  1233  3A 00 00    	ld	a,(_spr_init_cin1)
3854  1236  91          	sub	a, c
3855  1237  20 0C       	jr	NZ,l_game_copy_sprite_00116
3856  1239  DD 6E F8    	ld	l,(ix-8)
3857  123C  DD 66 F9    	ld	h,(ix-7)
3858  123F  3A 00 00    	ld	a,(_spr_init_cout1)
3859  1242  77          	ld	(hl),a
3860  1243  18 22       	jr	l_game_copy_sprite_00120
3861  1245              l_game_copy_sprite_00116:
3862  1245  3A 00 00    	ld	a,(_spr_init_cin2)
3863  1248  91          	sub	a, c
3864  1249  20 0C       	jr	NZ,l_game_copy_sprite_00113
3865  124B  DD 6E F8    	ld	l,(ix-8)
3866  124E  DD 66 F9    	ld	h,(ix-7)
3867  1251  3A 00 00    	ld	a,(_spr_init_cout2)
3868  1254  77          	ld	(hl),a
3869  1255  18 10       	jr	l_game_copy_sprite_00120
3870  1257              l_game_copy_sprite_00113:
3871  1257  3A 00 00    	ld	a,(_spr_init_cin3)
3872  125A  91          	sub	a, c
3873  125B  20 0A       	jr	NZ,l_game_copy_sprite_00120
3874  125D  DD 6E F8    	ld	l,(ix-8)
3875  1260  DD 66 F9    	ld	h,(ix-7)
3876  1263  3A 00 00    	ld	a,(_spr_init_cout3)
3877  1266  77          	ld	(hl),a
3878  1267              l_game_copy_sprite_00120:
3879  1267  DD 6E F8    	ld	l,(ix-8)
3880  126A  DD 66 F9    	ld	h,(ix-7)
3881  126D  7E          	ld	a, (hl)
3882  126E  21 00 00    	ld	hl,_spr_init_bright
3883  1271  B6          	or	a, (hl)
3884  1272  DD 6E F8    	ld	l,(ix-8)
3885  1275  DD 66 F9    	ld	h,(ix-7)
3886  1278  77          	ld	(hl), a
3887  1279  DD 34 C3    	inc	(ix-61)
3888  127C  18 88       	jr	l_game_copy_sprite_00121
3889  127E              l_game_copy_sprite_00123:
3890  127E  DD 6E 05    	ld	l,(ix+5)
3891  1281  26 00       	ld	h,0x00
3892  1283  4D          	ld	c,l
3893  1284  44          	ld	b,h
3894  1285  29          	add	hl, hl
3895  1286  09          	add	hl, bc
3896  1287  29          	add	hl, hl
3897  1288  29          	add	hl, hl
3898  1289  29          	add	hl, hl
3899  128A  29          	add	hl, hl
3900  128B  DD 75 F6    	ld	(ix-10),l
3901  128E  DD 74 F7    	ld	(ix-9),h
3902  1291  DD 7E FC    	ld	a,(ix-4)
3903  1294  DD 77 F8    	ld	(ix-8),a
3904  1297  DD 7E FD    	ld	a,(ix-3)
3905  129A  DD 77 F9    	ld	(ix-7),a
3906  129D  DD 7E FC    	ld	a,(ix-4)
3907  12A0  DD 77 FA    	ld	(ix-6),a
3908  12A3  DD 7E FD    	ld	a,(ix-3)
3909  12A6  DD 77 FB    	ld	(ix-5),a
3910  12A9  DD 7E FC    	ld	a,(ix-4)
3911  12AC  DD 77 FE    	ld	(ix-2),a
3912  12AF  DD 7E FD    	ld	a,(ix-3)
3913  12B2  DD 77 FF    	ld	(ix-1),a
3914  12B5  DD 7E FC    	ld	a,(ix-4)
3915  12B8  DD 77 F4    	ld	(ix-12),a
3916  12BB  DD 7E FD    	ld	a,(ix-3)
3917  12BE  DD 77 F5    	ld	(ix-11),a
3918  12C1  DD 36 C3 00 	ld	(ix-61),0x00
3919  12C5              l_game_copy_sprite_00136:
3920  12C5  DD 7E C3    	ld	a,(ix-61)
3921  12C8  D6 30       	sub	a,0x30
3922  12CA  D2 A7 13    	jp	NC, l_game_copy_sprite_00139
3923  12CD  DD 4E C3    	ld	c,(ix-61)
3924  12D0  0C          	inc	c
3925  12D1  DD 7E 06    	ld	a,(ix+6)
3926  12D4  B7          	or	a, a
3927  12D5  CA 7D 13    	jp	Z, l_game_copy_sprite_00134
3928  12D8  DD 7E C3    	ld	a,(ix-61)
3929  12DB  D6 20       	sub	a,0x20
3930  12DD  30 55       	jr	NC,l_game_copy_sprite_00131
3931  12DF  DD CB C3 46 	bit	0,(ix-61)
3932  12E3  20 25       	jr	NZ,l_game_copy_sprite_00125
3933  12E5  3E 00       	ld	a, +((_btiles) & 0xFF)
3934  12E7  DD 86 F6    	add	a,(ix-10)
3935  12EA  5F          	ld	e, a
3936  12EB  3E 00       	ld	a, +((_btiles) / 256)
3937  12ED  DD 8E F7    	adc	a,(ix-9)
3938  12F0  57          	ld	d, a
3939  12F1  DD 6E FC    	ld	l,(ix-4)
3940  12F4  DD 66 FD    	ld	h,(ix-3)
3941  12F7  06 00       	ld	b,0x00
3942  12F9  09          	add	hl, bc
3943  12FA  46          	ld	b, (hl)
3944  12FB  C5          	push	bc
3945  12FC  D5          	push	de
3946  12FD  C5          	push	bc
3947  12FE  33          	inc	sp
3948  12FF  CD AC 13    	call	_reverse
3949  1302  33          	inc	sp
3950  1303  D1          	pop	de
3951  1304  C1          	pop	bc
3952  1305  7D          	ld	a,l
3953  1306  12          	ld	(de), a
3954  1307  C3 98 13    	jp	l_game_copy_sprite_00135
3955  130A              l_game_copy_sprite_00125:
3956  130A  3E 00       	ld	a, +((_btiles) & 0xFF)
3957  130C  DD 86 F6    	add	a,(ix-10)
3958  130F  5F          	ld	e, a
3959  1310  3E 00       	ld	a, +((_btiles) / 256)
3960  1312  DD 8E F7    	adc	a,(ix-9)
3961  1315  57          	ld	d, a
3962  1316  DD 46 C3    	ld	b,(ix-61)
3963  1319  05          	dec	b
3964  131A  DD 7E F4    	ld	a,(ix-12)
3965  131D  80          	add	a, b
3966  131E  6F          	ld	l, a
3967  131F  DD 7E F5    	ld	a,(ix-11)
3968  1322  CE 00       	adc	a,0x00
3969  1324  67          	ld	h, a
3970  1325  46          	ld	b, (hl)
3971  1326  C5          	push	bc
3972  1327  D5          	push	de
3973  1328  C5          	push	bc
3974  1329  33          	inc	sp
3975  132A  CD AC 13    	call	_reverse
3976  132D  33          	inc	sp
3977  132E  D1          	pop	de
3978  132F  C1          	pop	bc
3979  1330  7D          	ld	a,l
3980  1331  12          	ld	(de), a
3981  1332  18 64       	jr	l_game_copy_sprite_00135
3982  1334              l_game_copy_sprite_00131:
3983  1334  DD 7E C3    	ld	a,(ix-61)
3984  1337  D6 28       	sub	a,0x28
3985  1339  30 21       	jr	NC,l_game_copy_sprite_00128
3986  133B  3E 00       	ld	a, +((_btiles) & 0xFF)
3987  133D  DD 86 F6    	add	a,(ix-10)
3988  1340  5F          	ld	e, a
3989  1341  3E 00       	ld	a, +((_btiles) / 256)
3990  1343  DD 8E F7    	adc	a,(ix-9)
3991  1346  57          	ld	d, a
3992  1347  DD 7E C3    	ld	a,(ix-61)
3993  134A  C6 08       	add	a,0x08
3994  134C  47          	ld	b, a
3995  134D  DD 7E FE    	ld	a,(ix-2)
3996  1350  80          	add	a, b
3997  1351  6F          	ld	l, a
3998  1352  DD 7E FF    	ld	a,(ix-1)
3999  1355  CE 00       	adc	a,0x00
4000  1357  67          	ld	h, a
4001  1358  7E          	ld	a, (hl)
4002  1359  12          	ld	(de), a
4003  135A  18 3C       	jr	l_game_copy_sprite_00135
4004  135C              l_game_copy_sprite_00128:
4005  135C  3E 00       	ld	a, +((_btiles) & 0xFF)
4006  135E  DD 86 F6    	add	a,(ix-10)
4007  1361  5F          	ld	e, a
4008  1362  3E 00       	ld	a, +((_btiles) / 256)
4009  1364  DD 8E F7    	adc	a,(ix-9)
4010  1367  57          	ld	d, a
4011  1368  DD 7E C3    	ld	a,(ix-61)
4012  136B  C6 F8       	add	a,0xf8
4013  136D  47          	ld	b, a
4014  136E  DD 7E FA    	ld	a,(ix-6)
4015  1371  80          	add	a, b
4016  1372  6F          	ld	l, a
4017  1373  DD 7E FB    	ld	a,(ix-5)
4018  1376  CE 00       	adc	a,0x00
4019  1378  67          	ld	h, a
4020  1379  7E          	ld	a, (hl)
4021  137A  12          	ld	(de), a
4022  137B  18 1B       	jr	l_game_copy_sprite_00135
4023  137D              l_game_copy_sprite_00134:
4024  137D  3E 00       	ld	a, +((_btiles) & 0xFF)
4025  137F  DD 86 F6    	add	a,(ix-10)
4026  1382  5F          	ld	e, a
4027  1383  3E 00       	ld	a, +((_btiles) / 256)
4028  1385  DD 8E F7    	adc	a,(ix-9)
4029  1388  57          	ld	d, a
4030  1389  DD 7E F8    	ld	a,(ix-8)
4031  138C  DD 86 C3    	add	a,(ix-61)
4032  138F  6F          	ld	l, a
4033  1390  DD 7E F9    	ld	a,(ix-7)
4034  1393  CE 00       	adc	a,0x00
4035  1395  67          	ld	h, a
4036  1396  7E          	ld	a, (hl)
4037  1397  12          	ld	(de), a
4038  1398              l_game_copy_sprite_00135:
4039  1398  DD 71 C3    	ld	(ix-61),c
4040  139B  DD 34 F6    	inc	(ix-10)
4041  139E  C2 C5 12    	jp	NZ,l_game_copy_sprite_00136
4042  13A1  DD 34 F7    	inc	(ix-9)
4043  13A4  C3 C5 12    	jp	l_game_copy_sprite_00136
4044  13A7              l_game_copy_sprite_00139:
4045  13A7  DD F9       	ld	sp, ix
4046  13A9  DD E1       	pop	ix
4047  13AB  C9          	ret
4048  13AC              	SECTION code_compiler
4049  13AC              ;	---------------------------------
4050  13AC              ; Function reverse
4051  13AC              ; ---------------------------------
4052  13AC              _reverse:
4053  13AC  CD 00 00    	call	___sdcc_enter_ix
4054  13AF  DD 7E 04    	ld	a,(ix+4)
4055  13B2  E6 F0       	and	a,0xf0
4056  13B4  07          	rlca
4057  13B5  07          	rlca
4058  13B6  07          	rlca
4059  13B7  07          	rlca
4060  13B8  E6 0F       	and	a,0x0f
4061  13BA  4F          	ld	c, a
4062  13BB  DD 7E 04    	ld	a,(ix+4)
4063  13BE  E6 0F       	and	a,0x0f
4064  13C0  07          	rlca
4065  13C1  07          	rlca
4066  13C2  07          	rlca
4067  13C3  07          	rlca
4068  13C4  E6 F0       	and	a,0xf0
4069  13C6  B1          	or	a, c
4070  13C7  DD 77 04    	ld	(ix+4),a
4071  13CA  E6 CC       	and	a,0xcc
4072  13CC  4F          	ld	c, a
4073  13CD  CB 39       	srl	c
4074  13CF  CB 39       	srl	c
4075  13D1  DD 7E 04    	ld	a,(ix+4)
4076  13D4  E6 33       	and	a,0x33
4077  13D6  87          	add	a, a
4078  13D7  87          	add	a, a
4079  13D8  B1          	or	a, c
4080  13D9  DD 77 04    	ld	(ix+4),a
4081  13DC  E6 AA       	and	a,0xaa
4082  13DE  4F          	ld	c, a
4083  13DF  CB 39       	srl	c
4084  13E1  DD 7E 04    	ld	a,(ix+4)
4085  13E4  E6 55       	and	a,0x55
4086  13E6  87          	add	a, a
4087  13E7  B1          	or	a, c
4088  13E8  DD 77 04    	ld	(ix+4),a
4089  13EB  6F          	ld	l, a
4090  13EC  DD E1       	pop	ix
4091  13EE  C9          	ret
4092  13EF              	SECTION code_compiler
4093  13EF              ;	---------------------------------
4094  13EF              ; Function page
4095  13EF              ; ---------------------------------
4096  13EF              _page:
4097  13EF  CD 00 00    	call	___sdcc_enter_ix
4098  13F2  DD 7E 04    	ld	a,(ix+4)
4099  13F5  C6 10       	add	a,0x10
4100  13F7  32 00 00    	ld	(_GLOBAL_ZX_PORT_7FFD),a
4101  13FA  01 FD 7F    	ld	bc,_IO_7FFD
4102  13FD  ED 79       	out	(c),a
4103  13FF  DD E1       	pop	ix
4104  1401  C9          	ret
4105  1402              	SECTION IGNORE
4106  0000              
