1     0000              MODULE game_engine_c
2     0000              LINE 0, "game_engine.c"
0     0000              
1     0000              ;--------------------------------------------------------
2     0000              ; File Created by SDCC : free open source ANSI-C Compiler
3     0000              ; Version 3.6.9 #9958 (Mac OS X i386)
4     0000              ;--------------------------------------------------------
5     0000              ; Processed by Z88DK
6     0000              ;--------------------------------------------------------
7     0000              
8     0000              	EXTERN __divschar
9     0000              	EXTERN __divschar_callee
10    0000              	EXTERN __divsint
11    0000              	EXTERN __divsint_callee
12    0000              	EXTERN __divslong
13    0000              	EXTERN __divslong_callee
14    0000              	EXTERN __divslonglong
15    0000              	EXTERN __divslonglong_callee
16    0000              	EXTERN __divsuchar
17    0000              	EXTERN __divsuchar_callee
18    0000              	EXTERN __divuchar
19    0000              	EXTERN __divuchar_callee
20    0000              	EXTERN __divuint
21    0000              	EXTERN __divuint_callee
22    0000              	EXTERN __divulong
23    0000              	EXTERN __divulong_callee
24    0000              	EXTERN __divulonglong
25    0000              	EXTERN __divulonglong_callee
26    0000              	EXTERN __divuschar
27    0000              	EXTERN __divuschar_callee
28    0000              	EXTERN __modschar
29    0000              	EXTERN __modschar_callee
30    0000              	EXTERN __modsint
31    0000              	EXTERN __modsint_callee
32    0000              	EXTERN __modslong
33    0000              	EXTERN __modslong_callee
34    0000              	EXTERN __modslonglong
35    0000              	EXTERN __modslonglong_callee
36    0000              	EXTERN __modsuchar
37    0000              	EXTERN __modsuchar_callee
38    0000              	EXTERN __moduchar
39    0000              	EXTERN __moduchar_callee
40    0000              	EXTERN __moduint
41    0000              	EXTERN __moduint_callee
42    0000              	EXTERN __modulong
43    0000              	EXTERN __modulong_callee
44    0000              	EXTERN __modulonglong
45    0000              	EXTERN __modulonglong_callee
46    0000              	EXTERN __moduschar
47    0000              	EXTERN __moduschar_callee
48    0000              	EXTERN __mulint
49    0000              	EXTERN __mulint_callee
50    0000              	EXTERN __mullong
51    0000              	EXTERN __mullong_callee
52    0000              	EXTERN __mullonglong
53    0000              	EXTERN __mullonglong_callee
54    0000              	EXTERN __mulschar
55    0000              	EXTERN __mulschar_callee
56    0000              	EXTERN __mulsuchar
57    0000              	EXTERN __mulsuchar_callee
58    0000              	EXTERN __muluschar
59    0000              	EXTERN __muluschar_callee
60    0000              	EXTERN __rlslonglong
61    0000              	EXTERN __rlslonglong_callee
62    0000              	EXTERN __rlulonglong
63    0000              	EXTERN __rlulonglong_callee
64    0000              	EXTERN __rrslonglong
65    0000              	EXTERN __rrslonglong_callee
66    0000              	EXTERN __rrulonglong
67    0000              	EXTERN __rrulonglong_callee
68    0000              	EXTERN ___sdcc_call_hl
69    0000              	EXTERN ___sdcc_call_iy
70    0000              	EXTERN ___sdcc_enter_ix
71    0000              	EXTERN _banked_call
72    0000              	EXTERN _banked_ret
73    0000              	EXTERN ___fs2schar
74    0000              	EXTERN ___fs2schar_callee
75    0000              	EXTERN ___fs2sint
76    0000              	EXTERN ___fs2sint_callee
77    0000              	EXTERN ___fs2slong
78    0000              	EXTERN ___fs2slong_callee
79    0000              	EXTERN ___fs2slonglong
80    0000              	EXTERN ___fs2slonglong_callee
81    0000              	EXTERN ___fs2uchar
82    0000              	EXTERN ___fs2uchar_callee
83    0000              	EXTERN ___fs2uint
84    0000              	EXTERN ___fs2uint_callee
85    0000              	EXTERN ___fs2ulong
86    0000              	EXTERN ___fs2ulong_callee
87    0000              	EXTERN ___fs2ulonglong
88    0000              	EXTERN ___fs2ulonglong_callee
89    0000              	EXTERN ___fsadd
90    0000              	EXTERN ___fsadd_callee
91    0000              	EXTERN ___fsdiv
92    0000              	EXTERN ___fsdiv_callee
93    0000              	EXTERN ___fseq
94    0000              	EXTERN ___fseq_callee
95    0000              	EXTERN ___fsgt
96    0000              	EXTERN ___fsgt_callee
97    0000              	EXTERN ___fslt
98    0000              	EXTERN ___fslt_callee
99    0000              	EXTERN ___fsmul
100   0000              	EXTERN ___fsmul_callee
101   0000              	EXTERN ___fsneq
102   0000              	EXTERN ___fsneq_callee
103   0000              	EXTERN ___fssub
104   0000              	EXTERN ___fssub_callee
105   0000              	EXTERN ___schar2fs
106   0000              	EXTERN ___schar2fs_callee
107   0000              	EXTERN ___sint2fs
108   0000              	EXTERN ___sint2fs_callee
109   0000              	EXTERN ___slong2fs
110   0000              	EXTERN ___slong2fs_callee
111   0000              	EXTERN ___slonglong2fs
112   0000              	EXTERN ___slonglong2fs_callee
113   0000              	EXTERN ___uchar2fs
114   0000              	EXTERN ___uchar2fs_callee
115   0000              	EXTERN ___uint2fs
116   0000              	EXTERN ___uint2fs_callee
117   0000              	EXTERN ___ulong2fs
118   0000              	EXTERN ___ulong2fs_callee
119   0000              	EXTERN ___ulonglong2fs
120   0000              	EXTERN ___ulonglong2fs_callee
121   0000              	EXTERN ____sdcc_2_copy_src_mhl_dst_deix
122   0000              	EXTERN ____sdcc_2_copy_src_mhl_dst_bcix
123   0000              	EXTERN ____sdcc_4_copy_src_mhl_dst_deix
124   0000              	EXTERN ____sdcc_4_copy_src_mhl_dst_bcix
125   0000              	EXTERN ____sdcc_4_copy_src_mhl_dst_mbc
126   0000              	EXTERN ____sdcc_4_ldi_nosave_bc
127   0000              	EXTERN ____sdcc_4_ldi_save_bc
128   0000              	EXTERN ____sdcc_4_push_hlix
129   0000              	EXTERN ____sdcc_4_push_mhl
130   0000              	EXTERN ____sdcc_lib_setmem_hl
131   0000              	EXTERN ____sdcc_ll_add_de_bc_hl
132   0000              	EXTERN ____sdcc_ll_add_de_bc_hlix
133   0000              	EXTERN ____sdcc_ll_add_de_hlix_bc
134   0000              	EXTERN ____sdcc_ll_add_de_hlix_bcix
135   0000              	EXTERN ____sdcc_ll_add_deix_bc_hl
136   0000              	EXTERN ____sdcc_ll_add_deix_hlix
137   0000              	EXTERN ____sdcc_ll_add_hlix_bc_deix
138   0000              	EXTERN ____sdcc_ll_add_hlix_deix_bc
139   0000              	EXTERN ____sdcc_ll_add_hlix_deix_bcix
140   0000              	EXTERN ____sdcc_ll_asr_hlix_a
141   0000              	EXTERN ____sdcc_ll_asr_mbc_a
142   0000              	EXTERN ____sdcc_ll_copy_src_de_dst_hlix
143   0000              	EXTERN ____sdcc_ll_copy_src_de_dst_hlsp
144   0000              	EXTERN ____sdcc_ll_copy_src_deix_dst_hl
145   0000              	EXTERN ____sdcc_ll_copy_src_deix_dst_hlix
146   0000              	EXTERN ____sdcc_ll_copy_src_deixm_dst_hlsp
147   0000              	EXTERN ____sdcc_ll_copy_src_desp_dst_hlsp
148   0000              	EXTERN ____sdcc_ll_copy_src_hl_dst_de
149   0000              	EXTERN ____sdcc_ll_copy_src_hlsp_dst_de
150   0000              	EXTERN ____sdcc_ll_copy_src_hlsp_dst_deixm
151   0000              	EXTERN ____sdcc_ll_lsl_hlix_a
152   0000              	EXTERN ____sdcc_ll_lsl_mbc_a
153   0000              	EXTERN ____sdcc_ll_lsr_hlix_a
154   0000              	EXTERN ____sdcc_ll_lsr_mbc_a
155   0000              	EXTERN ____sdcc_ll_push_hlix
156   0000              	EXTERN ____sdcc_ll_push_mhl
157   0000              	EXTERN ____sdcc_ll_sub_de_bc_hl
158   0000              	EXTERN ____sdcc_ll_sub_de_bc_hlix
159   0000              	EXTERN ____sdcc_ll_sub_de_hlix_bc
160   0000              	EXTERN ____sdcc_ll_sub_de_hlix_bcix
161   0000              	EXTERN ____sdcc_ll_sub_deix_bc_hl
162   0000              	EXTERN ____sdcc_ll_sub_deix_hlix
163   0000              	EXTERN ____sdcc_ll_sub_hlix_bc_deix
164   0000              	EXTERN ____sdcc_ll_sub_hlix_deix_bc
165   0000              	EXTERN ____sdcc_ll_sub_hlix_deix_bcix
166   0000              	EXTERN ____sdcc_load_debc_deix
167   0000              	EXTERN ____sdcc_load_dehl_deix
168   0000              	EXTERN ____sdcc_load_debc_mhl
169   0000              	EXTERN ____sdcc_load_hlde_mhl
170   0000              	EXTERN ____sdcc_store_dehl_bcix
171   0000              	EXTERN ____sdcc_store_debc_hlix
172   0000              	EXTERN ____sdcc_store_debc_mhl
173   0000              	EXTERN ____sdcc_cpu_pop_ei
174   0000              	EXTERN ____sdcc_cpu_pop_ei_jp
175   0000              	EXTERN ____sdcc_cpu_push_di
176   0000              	EXTERN ____sdcc_outi
177   0000              	EXTERN ____sdcc_outi_128
178   0000              	EXTERN ____sdcc_outi_256
179   0000              	EXTERN ____sdcc_ldi
180   0000              	EXTERN ____sdcc_ldi_128
181   0000              	EXTERN ____sdcc_ldi_256
182   0000              	EXTERN ____sdcc_4_copy_srcd_hlix_dst_deix
183   0000              	EXTERN ____sdcc_4_and_src_mbc_mhl_dst_deix
184   0000              	EXTERN ____sdcc_4_or_src_mbc_mhl_dst_deix
185   0000              	EXTERN ____sdcc_4_xor_src_mbc_mhl_dst_deix
186   0000              	EXTERN ____sdcc_4_or_src_dehl_dst_bcix
187   0000              	EXTERN ____sdcc_4_xor_src_dehl_dst_bcix
188   0000              	EXTERN ____sdcc_4_and_src_dehl_dst_bcix
189   0000              	EXTERN ____sdcc_4_xor_src_mbc_mhl_dst_debc
190   0000              	EXTERN ____sdcc_4_or_src_mbc_mhl_dst_debc
191   0000              	EXTERN ____sdcc_4_and_src_mbc_mhl_dst_debc
192   0000              	EXTERN ____sdcc_4_cpl_src_mhl_dst_debc
193   0000              	EXTERN ____sdcc_4_xor_src_debc_mhl_dst_debc
194   0000              	EXTERN ____sdcc_4_or_src_debc_mhl_dst_debc
195   0000              	EXTERN ____sdcc_4_and_src_debc_mhl_dst_debc
196   0000              	EXTERN ____sdcc_4_and_src_debc_hlix_dst_debc
197   0000              	EXTERN ____sdcc_4_or_src_debc_hlix_dst_debc
198   0000              	EXTERN ____sdcc_4_xor_src_debc_hlix_dst_debc
199   0000              
200   0000              ;--------------------------------------------------------
201   0000              ; Public variables in this module
202   0000              ;--------------------------------------------------------
203   0000              	GLOBAL _game_color_hacks
204   0000              	GLOBAL _game_print_lives
205   0000              	GLOBAL _game_end
206   0000              	GLOBAL _game_img1
207   0000              	GLOBAL _game_tick
208   0000              	GLOBAL _game_loop
209   0000              	GLOBAL _game_fps
210   0000              	GLOBAL _game_draw_map
211   0000              	GLOBAL _game_solar_ray
212   0000              	GLOBAL _game_solar_ray1
213   0000              	GLOBAL _game_solar_ray0
214   0000              	GLOBAL _game_logo1
215   0000              	GLOBAL _game_cell_paint_index
216   0000              	GLOBAL _game_cell_paint
217   0000              	GLOBAL _game_print_footer
218   0000              	GLOBAL _game_print_score
219   0000              	GLOBAL _game_cls
220   0000              	GLOBAL _game_start_timer
221   0000              	GLOBAL _game_anim_air
222   0000              	GLOBAL _game_anim_conveyor
223   0000              	GLOBAL _game_round_init
224   0000              	GLOBAL _game_check_map
225   0000              	GLOBAL _game_check_cell
226   0000              	GLOBAL _game_paint_attrib
227   0000              	GLOBAL _game_check_time
228   0000              	GLOBAL _game_key_paint
229   0000              	GLOBAL _game_attribs
230   0000              	GLOBAL _game_page_map
231   0000              	GLOBAL _game_flash_exit
232   0000              	GLOBAL _game_copy_sprite_color_reset
233   0000              	GLOBAL _game_copy_sprite_std
234   0000              	GLOBAL _game_copy_sprite
235   0000              	GLOBAL _reverse
236   0000              	GLOBAL _page
237   0000              	GLOBAL _game_intro
238   0000              	GLOBAL _game_shoe
239   0000              	GLOBAL _game_crumble
240   0000              	GLOBAL _zx_print_char
241   0000              	GLOBAL _game_text
242   0000              	GLOBAL _game_end_willy
243   0000              	GLOBAL _game_end_pietro
244   0000              ;--------------------------------------------------------
245   0000              ; Externals used
246   0000              ;--------------------------------------------------------
247   0000              	GLOBAL _ffsll_callee
248   0000              	GLOBAL _ffsll
249   0000              	GLOBAL _strxfrm_callee
250   0000              	GLOBAL _strxfrm
251   0000              	GLOBAL _strupr_fastcall
252   0000              	GLOBAL _strupr
253   0000              	GLOBAL _strtok_r_callee
254   0000              	GLOBAL _strtok_r
255   0000              	GLOBAL _strtok_callee
256   0000              	GLOBAL _strtok
257   0000              	GLOBAL _strstrip_fastcall
258   0000              	GLOBAL _strstrip
259   0000              	GLOBAL _strstr_callee
260   0000              	GLOBAL _strstr
261   0000              	GLOBAL _strspn_callee
262   0000              	GLOBAL _strspn
263   0000              	GLOBAL _strsep_callee
264   0000              	GLOBAL _strsep
265   0000              	GLOBAL _strrstrip_fastcall
266   0000              	GLOBAL _strrstrip
267   0000              	GLOBAL _strrstr_callee
268   0000              	GLOBAL _strrstr
269   0000              	GLOBAL _strrspn_callee
270   0000              	GLOBAL _strrspn
271   0000              	GLOBAL _strrev_fastcall
272   0000              	GLOBAL _strrev
273   0000              	GLOBAL _strrcspn_callee
274   0000              	GLOBAL _strrcspn
275   0000              	GLOBAL _strrchr_callee
276   0000              	GLOBAL _strrchr
277   0000              	GLOBAL _strpbrk_callee
278   0000              	GLOBAL _strpbrk
279   0000              	GLOBAL _strnlen_callee
280   0000              	GLOBAL _strnlen
281   0000              	GLOBAL _strnicmp_callee
282   0000              	GLOBAL _strnicmp
283   0000              	GLOBAL _strndup_callee
284   0000              	GLOBAL _strndup
285   0000              	GLOBAL _strncpy_callee
286   0000              	GLOBAL _strncpy
287   0000              	GLOBAL _strncmp_callee
288   0000              	GLOBAL _strncmp
289   0000              	GLOBAL _strnchr_callee
290   0000              	GLOBAL _strnchr
291   0000              	GLOBAL _strncat_callee
292   0000              	GLOBAL _strncat
293   0000              	GLOBAL _strncasecmp_callee
294   0000              	GLOBAL _strncasecmp
295   0000              	GLOBAL _strlwr_fastcall
296   0000              	GLOBAL _strlwr
297   0000              	GLOBAL _strlen_fastcall
298   0000              	GLOBAL _strlen
299   0000              	GLOBAL _strlcpy_callee
300   0000              	GLOBAL _strlcpy
301   0000              	GLOBAL _strlcat_callee
302   0000              	GLOBAL _strlcat
303   0000              	GLOBAL _stricmp_callee
304   0000              	GLOBAL _stricmp
305   0000              	GLOBAL _strerror_fastcall
306   0000              	GLOBAL _strerror
307   0000              	GLOBAL _strdup_fastcall
308   0000              	GLOBAL _strdup
309   0000              	GLOBAL _strcspn_callee
310   0000              	GLOBAL _strcspn
311   0000              	GLOBAL _strcpy_callee
312   0000              	GLOBAL _strcpy
313   0000              	GLOBAL _strcoll_callee
314   0000              	GLOBAL _strcoll
315   0000              	GLOBAL _strcmp_callee
316   0000              	GLOBAL _strcmp
317   0000              	GLOBAL _strchrnul_callee
318   0000              	GLOBAL _strchrnul
319   0000              	GLOBAL _strchr_callee
320   0000              	GLOBAL _strchr
321   0000              	GLOBAL _strcat_callee
322   0000              	GLOBAL _strcat
323   0000              	GLOBAL _strcasecmp_callee
324   0000              	GLOBAL _strcasecmp
325   0000              	GLOBAL _stpncpy_callee
326   0000              	GLOBAL _stpncpy
327   0000              	GLOBAL _stpcpy_callee
328   0000              	GLOBAL _stpcpy
329   0000              	GLOBAL _memswap_callee
330   0000              	GLOBAL _memswap
331   0000              	GLOBAL _memset_callee
332   0000              	GLOBAL _memset
333   0000              	GLOBAL _memrchr_callee
334   0000              	GLOBAL _memrchr
335   0000              	GLOBAL _memmove_callee
336   0000              	GLOBAL _memmove
337   0000              	GLOBAL _memmem_callee
338   0000              	GLOBAL _memmem
339   0000              	GLOBAL _memcpy_callee
340   0000              	GLOBAL _memcpy
341   0000              	GLOBAL _memcmp_callee
342   0000              	GLOBAL _memcmp
343   0000              	GLOBAL _memchr_callee
344   0000              	GLOBAL _memchr
345   0000              	GLOBAL _memccpy_callee
346   0000              	GLOBAL _memccpy
347   0000              	GLOBAL _ffsl_fastcall
348   0000              	GLOBAL _ffsl
349   0000              	GLOBAL _ffs_fastcall
350   0000              	GLOBAL _ffs
351   0000              	GLOBAL __strrstrip__fastcall
352   0000              	GLOBAL __strrstrip_
353   0000              	GLOBAL __memupr__callee
354   0000              	GLOBAL __memupr_
355   0000              	GLOBAL __memstrcpy__callee
356   0000              	GLOBAL __memstrcpy_
357   0000              	GLOBAL __memlwr__callee
358   0000              	GLOBAL __memlwr_
359   0000              	GLOBAL _rawmemchr_callee
360   0000              	GLOBAL _rawmemchr
361   0000              	GLOBAL _strnset_callee
362   0000              	GLOBAL _strnset
363   0000              	GLOBAL _strset_callee
364   0000              	GLOBAL _strset
365   0000              	GLOBAL _rindex_callee
366   0000              	GLOBAL _rindex
367   0000              	GLOBAL _index_callee
368   0000              	GLOBAL _index
369   0000              	GLOBAL _bzero_callee
370   0000              	GLOBAL _bzero
371   0000              	GLOBAL _bcopy_callee
372   0000              	GLOBAL _bcopy
373   0000              	GLOBAL _bcmp_callee
374   0000              	GLOBAL _bcmp
375   0000              	GLOBAL _ulltoa_callee
376   0000              	GLOBAL _ulltoa
377   0000              	GLOBAL _strtoull_callee
378   0000              	GLOBAL _strtoull
379   0000              	GLOBAL _strtoll_callee
380   0000              	GLOBAL _strtoll
381   0000              	GLOBAL _lltoa_callee
382   0000              	GLOBAL _lltoa
383   0000              	GLOBAL _llabs_callee
384   0000              	GLOBAL _llabs
385   0000              	GLOBAL __lldivu__callee
386   0000              	GLOBAL __lldivu_
387   0000              	GLOBAL __lldiv__callee
388   0000              	GLOBAL __lldiv_
389   0000              	GLOBAL _atoll_callee
390   0000              	GLOBAL _atoll
391   0000              	GLOBAL _realloc_unlocked_callee
392   0000              	GLOBAL _realloc_unlocked
393   0000              	GLOBAL _malloc_unlocked_fastcall
394   0000              	GLOBAL _malloc_unlocked
395   0000              	GLOBAL _free_unlocked_fastcall
396   0000              	GLOBAL _free_unlocked
397   0000              	GLOBAL _calloc_unlocked_callee
398   0000              	GLOBAL _calloc_unlocked
399   0000              	GLOBAL _aligned_alloc_unlocked_callee
400   0000              	GLOBAL _aligned_alloc_unlocked
401   0000              	GLOBAL _realloc_callee
402   0000              	GLOBAL _realloc
403   0000              	GLOBAL _malloc_fastcall
404   0000              	GLOBAL _malloc
405   0000              	GLOBAL _free_fastcall
406   0000              	GLOBAL _free
407   0000              	GLOBAL _calloc_callee
408   0000              	GLOBAL _calloc
409   0000              	GLOBAL _aligned_alloc_callee
410   0000              	GLOBAL _aligned_alloc
411   0000              	GLOBAL _utoa_callee
412   0000              	GLOBAL _utoa
413   0000              	GLOBAL _ultoa_callee
414   0000              	GLOBAL _ultoa
415   0000              	GLOBAL _system_fastcall
416   0000              	GLOBAL _system
417   0000              	GLOBAL _strtoul_callee
418   0000              	GLOBAL _strtoul
419   0000              	GLOBAL _strtol_callee
420   0000              	GLOBAL _strtol
421   0000              	GLOBAL _strtof_callee
422   0000              	GLOBAL _strtof
423   0000              	GLOBAL _strtod_callee
424   0000              	GLOBAL _strtod
425   0000              	GLOBAL _srand_fastcall
426   0000              	GLOBAL _srand
427   0000              	GLOBAL _rand
428   0000              	GLOBAL _quick_exit_fastcall
429   0000              	GLOBAL _quick_exit
430   0000              	GLOBAL _qsort_callee
431   0000              	GLOBAL _qsort
432   0000              	GLOBAL _ltoa_callee
433   0000              	GLOBAL _ltoa
434   0000              	GLOBAL _labs_fastcall
435   0000              	GLOBAL _labs
436   0000              	GLOBAL _itoa_callee
437   0000              	GLOBAL _itoa
438   0000              	GLOBAL _ftoh_callee
439   0000              	GLOBAL _ftoh
440   0000              	GLOBAL _ftog_callee
441   0000              	GLOBAL _ftog
442   0000              	GLOBAL _ftoe_callee
443   0000              	GLOBAL _ftoe
444   0000              	GLOBAL _ftoa_callee
445   0000              	GLOBAL _ftoa
446   0000              	GLOBAL _exit_fastcall
447   0000              	GLOBAL _exit
448   0000              	GLOBAL _dtoh_callee
449   0000              	GLOBAL _dtoh
450   0000              	GLOBAL _dtog_callee
451   0000              	GLOBAL _dtog
452   0000              	GLOBAL _dtoe_callee
453   0000              	GLOBAL _dtoe
454   0000              	GLOBAL _dtoa_callee
455   0000              	GLOBAL _dtoa
456   0000              	GLOBAL _bsearch_callee
457   0000              	GLOBAL _bsearch
458   0000              	GLOBAL _atol_fastcall
459   0000              	GLOBAL _atol
460   0000              	GLOBAL _atoi_fastcall
461   0000              	GLOBAL _atoi
462   0000              	GLOBAL _atof_fastcall
463   0000              	GLOBAL _atof
464   0000              	GLOBAL _atexit_fastcall
465   0000              	GLOBAL _atexit
466   0000              	GLOBAL _at_quick_exit_fastcall
467   0000              	GLOBAL _at_quick_exit
468   0000              	GLOBAL _abs_fastcall
469   0000              	GLOBAL _abs
470   0000              	GLOBAL _abort
471   0000              	GLOBAL __strtou__callee
472   0000              	GLOBAL __strtou_
473   0000              	GLOBAL __strtoi__callee
474   0000              	GLOBAL __strtoi_
475   0000              	GLOBAL __random_uniform_xor_8__fastcall
476   0000              	GLOBAL __random_uniform_xor_8_
477   0000              	GLOBAL __random_uniform_xor_32__fastcall
478   0000              	GLOBAL __random_uniform_xor_32_
479   0000              	GLOBAL __random_uniform_cmwc_8__fastcall
480   0000              	GLOBAL __random_uniform_cmwc_8_
481   0000              	GLOBAL __shellsort__callee
482   0000              	GLOBAL __shellsort_
483   0000              	GLOBAL __quicksort__callee
484   0000              	GLOBAL __quicksort_
485   0000              	GLOBAL __insertion_sort__callee
486   0000              	GLOBAL __insertion_sort_
487   0000              	GLOBAL __ldivu__callee
488   0000              	GLOBAL __ldivu_
489   0000              	GLOBAL __ldiv__callee
490   0000              	GLOBAL __ldiv_
491   0000              	GLOBAL __divu__callee
492   0000              	GLOBAL __divu_
493   0000              	GLOBAL __div__callee
494   0000              	GLOBAL __div_
495   0000              	GLOBAL _NIRVANAP_drawTW_raw_callee
496   0000              	GLOBAL _NIRVANAP_drawTW_raw
497   0000              	GLOBAL _NIRVANAP_drawTW_callee
498   0000              	GLOBAL _NIRVANAP_drawTW
499   0000              	GLOBAL _NIRVANAP_drawW_raw_callee
500   0000              	GLOBAL _NIRVANAP_drawW_raw
501   0000              	GLOBAL _NIRVANAP_drawW_callee
502   0000              	GLOBAL _NIRVANAP_drawW
503   0000              	GLOBAL _NIRVANAP_spriteT_callee
504   0000              	GLOBAL _NIRVANAP_spriteT
505   0000              	GLOBAL _NIRVANAP_fillC_callee
506   0000              	GLOBAL _NIRVANAP_fillC
507   0000              	GLOBAL _NIRVANAP_readC_callee
508   0000              	GLOBAL _NIRVANAP_readC
509   0000              	GLOBAL _NIRVANAP_paintC_callee
510   0000              	GLOBAL _NIRVANAP_paintC
511   0000              	GLOBAL _NIRVANAP_printQ_callee
512   0000              	GLOBAL _NIRVANAP_printQ
513   0000              	GLOBAL _NIRVANAP_fillT_raw_callee
514   0000              	GLOBAL _NIRVANAP_fillT_raw
515   0000              	GLOBAL _NIRVANAP_fillT_callee
516   0000              	GLOBAL _NIRVANAP_fillT
517   0000              	GLOBAL _NIRVANAP_drawT_raw_callee
518   0000              	GLOBAL _NIRVANAP_drawT_raw
519   0000              	GLOBAL _NIRVANAP_drawT_callee
520   0000              	GLOBAL _NIRVANAP_drawT
521   0000              	GLOBAL _NIRVANAP_stop
522   0000              	GLOBAL _NIRVANAP_start
523   0000              	GLOBAL _zx_print_str
524   0000              	GLOBAL _zx_print_int
525   0000              	GLOBAL _zx_print_chr
526   0000              	GLOBAL _zx_isr
527   0000              	GLOBAL _z80_otdr_callee
528   0000              	GLOBAL _z80_otdr
529   0000              	GLOBAL _z80_otir_callee
530   0000              	GLOBAL _z80_otir
531   0000              	GLOBAL _z80_outp_callee
532   0000              	GLOBAL _z80_outp
533   0000              	GLOBAL _z80_indr_callee
534   0000              	GLOBAL _z80_indr
535   0000              	GLOBAL _z80_inir_callee
536   0000              	GLOBAL _z80_inir
537   0000              	GLOBAL _z80_inp_fastcall
538   0000              	GLOBAL _z80_inp
539   0000              	GLOBAL _z80_set_int_state_fastcall
540   0000              	GLOBAL _z80_set_int_state
541   0000              	GLOBAL _z80_get_int_state
542   0000              	GLOBAL _z80_delay_tstate_fastcall
543   0000              	GLOBAL _z80_delay_tstate
544   0000              	GLOBAL _z80_delay_ms_fastcall
545   0000              	GLOBAL _z80_delay_ms
546   0000              	GLOBAL _im2_remove_generic_callback_callee
547   0000              	GLOBAL _im2_remove_generic_callback
548   0000              	GLOBAL _im2_prepend_generic_callback_callee
549   0000              	GLOBAL _im2_prepend_generic_callback
550   0000              	GLOBAL _im2_append_generic_callback_callee
551   0000              	GLOBAL _im2_append_generic_callback
552   0000              	GLOBAL _im2_create_generic_isr_8080_callee
553   0000              	GLOBAL _im2_create_generic_isr_8080
554   0000              	GLOBAL _im2_create_generic_isr_callee
555   0000              	GLOBAL _im2_create_generic_isr
556   0000              	GLOBAL _im2_install_isr_callee
557   0000              	GLOBAL _im2_install_isr
558   0000              	GLOBAL _im2_init_fastcall
559   0000              	GLOBAL _im2_init
560   0000              	GLOBAL _intrinsic_swap_word_32_fastcall
561   0000              	GLOBAL _intrinsic_swap_word_32
562   0000              	GLOBAL _intrinsic_swap_endian_32_fastcall
563   0000              	GLOBAL _intrinsic_swap_endian_32
564   0000              	GLOBAL _intrinsic_swap_endian_16_fastcall
565   0000              	GLOBAL _intrinsic_swap_endian_16
566   0000              	GLOBAL _intrinsic_return_de
567   0000              	GLOBAL _intrinsic_return_bc
568   0000              	GLOBAL _intrinsic_exx
569   0000              	GLOBAL _intrinsic_ex_de_hl
570   0000              	GLOBAL _intrinsic_nop
571   0000              	GLOBAL _intrinsic_im_2
572   0000              	GLOBAL _intrinsic_im_1
573   0000              	GLOBAL _intrinsic_im_0
574   0000              	GLOBAL _intrinsic_retn
575   0000              	GLOBAL _intrinsic_reti
576   0000              	GLOBAL _intrinsic_halt
577   0000              	GLOBAL _intrinsic_ei
578   0000              	GLOBAL _intrinsic_di
579   0000              	GLOBAL _intrinsic_stub
580   0000              	GLOBAL _intrinsic_ini
581   0000              	GLOBAL _intrinsic_outi
582   0000              	GLOBAL _intrinsic_ldi
583   0000              	GLOBAL _zx_pattern_fill_callee
584   0000              	GLOBAL _zx_pattern_fill
585   0000              	GLOBAL _zx_saddrpup_fastcall
586   0000              	GLOBAL _zx_saddrpup
587   0000              	GLOBAL _zx_saddrpright_callee
588   0000              	GLOBAL _zx_saddrpright
589   0000              	GLOBAL _zx_saddrpleft_callee
590   0000              	GLOBAL _zx_saddrpleft
591   0000              	GLOBAL _zx_saddrpdown_fastcall
592   0000              	GLOBAL _zx_saddrpdown
593   0000              	GLOBAL _zx_saddrcup_fastcall
594   0000              	GLOBAL _zx_saddrcup
595   0000              	GLOBAL _zx_saddrcright_fastcall
596   0000              	GLOBAL _zx_saddrcright
597   0000              	GLOBAL _zx_saddrcleft_fastcall
598   0000              	GLOBAL _zx_saddrcleft
599   0000              	GLOBAL _zx_saddrcdown_fastcall
600   0000              	GLOBAL _zx_saddrcdown
601   0000              	GLOBAL _zx_saddr2py_fastcall
602   0000              	GLOBAL _zx_saddr2py
603   0000              	GLOBAL _zx_saddr2px_fastcall
604   0000              	GLOBAL _zx_saddr2px
605   0000              	GLOBAL _zx_saddr2cy_fastcall
606   0000              	GLOBAL _zx_saddr2cy
607   0000              	GLOBAL _zx_saddr2cx_fastcall
608   0000              	GLOBAL _zx_saddr2cx
609   0000              	GLOBAL _zx_saddr2aaddr_fastcall
610   0000              	GLOBAL _zx_saddr2aaddr
611   0000              	GLOBAL _zx_py2saddr_fastcall
612   0000              	GLOBAL _zx_py2saddr
613   0000              	GLOBAL _zx_py2aaddr_fastcall
614   0000              	GLOBAL _zx_py2aaddr
615   0000              	GLOBAL _zx_pxy2saddr_callee
616   0000              	GLOBAL _zx_pxy2saddr
617   0000              	GLOBAL _zx_pxy2aaddr_callee
618   0000              	GLOBAL _zx_pxy2aaddr
619   0000              	GLOBAL _zx_px2bitmask_fastcall
620   0000              	GLOBAL _zx_px2bitmask
621   0000              	GLOBAL _zx_cy2saddr_fastcall
622   0000              	GLOBAL _zx_cy2saddr
623   0000              	GLOBAL _zx_cy2aaddr_fastcall
624   0000              	GLOBAL _zx_cy2aaddr
625   0000              	GLOBAL _zx_cxy2saddr_callee
626   0000              	GLOBAL _zx_cxy2saddr
627   0000              	GLOBAL _zx_cxy2aaddr_callee
628   0000              	GLOBAL _zx_cxy2aaddr
629   0000              	GLOBAL _zx_bitmask2px_fastcall
630   0000              	GLOBAL _zx_bitmask2px
631   0000              	GLOBAL _zx_aaddrcup_fastcall
632   0000              	GLOBAL _zx_aaddrcup
633   0000              	GLOBAL _zx_aaddrcright_fastcall
634   0000              	GLOBAL _zx_aaddrcright
635   0000              	GLOBAL _zx_aaddrcleft_fastcall
636   0000              	GLOBAL _zx_aaddrcleft
637   0000              	GLOBAL _zx_aaddrcdown_fastcall
638   0000              	GLOBAL _zx_aaddrcdown
639   0000              	GLOBAL _zx_aaddr2saddr_fastcall
640   0000              	GLOBAL _zx_aaddr2saddr
641   0000              	GLOBAL _zx_aaddr2py_fastcall
642   0000              	GLOBAL _zx_aaddr2py
643   0000              	GLOBAL _zx_aaddr2px_fastcall
644   0000              	GLOBAL _zx_aaddr2px
645   0000              	GLOBAL _zx_aaddr2cy_fastcall
646   0000              	GLOBAL _zx_aaddr2cy
647   0000              	GLOBAL _zx_aaddr2cx_fastcall
648   0000              	GLOBAL _zx_aaddr2cx
649   0000              	GLOBAL _zx_visit_wc_pix_callee
650   0000              	GLOBAL _zx_visit_wc_pix
651   0000              	GLOBAL _zx_visit_wc_attr_callee
652   0000              	GLOBAL _zx_visit_wc_attr
653   0000              	GLOBAL _zx_scroll_wc_up_pix_callee
654   0000              	GLOBAL _zx_scroll_wc_up_pix
655   0000              	GLOBAL _zx_scroll_wc_up_attr_callee
656   0000              	GLOBAL _zx_scroll_wc_up_attr
657   0000              	GLOBAL _zx_scroll_wc_up_callee
658   0000              	GLOBAL _zx_scroll_wc_up
659   0000              	GLOBAL _zx_scroll_up_pix_callee
660   0000              	GLOBAL _zx_scroll_up_pix
661   0000              	GLOBAL _zx_scroll_up_attr_callee
662   0000              	GLOBAL _zx_scroll_up_attr
663   0000              	GLOBAL _zx_scroll_up_callee
664   0000              	GLOBAL _zx_scroll_up
665   0000              	GLOBAL _zx_cls_wc_pix_callee
666   0000              	GLOBAL _zx_cls_wc_pix
667   0000              	GLOBAL _zx_cls_wc_attr_callee
668   0000              	GLOBAL _zx_cls_wc_attr
669   0000              	GLOBAL _zx_cls_wc_callee
670   0000              	GLOBAL _zx_cls_wc
671   0000              	GLOBAL _zx_cls_pix_fastcall
672   0000              	GLOBAL _zx_cls_pix
673   0000              	GLOBAL _zx_cls_attr_fastcall
674   0000              	GLOBAL _zx_cls_attr
675   0000              	GLOBAL _zx_cls_fastcall
676   0000              	GLOBAL _zx_cls
677   0000              	GLOBAL _zx_border_fastcall
678   0000              	GLOBAL _zx_border
679   0000              	GLOBAL _zx_tape_verify_block_callee
680   0000              	GLOBAL _zx_tape_verify_block
681   0000              	GLOBAL _zx_tape_save_block_callee
682   0000              	GLOBAL _zx_tape_save_block
683   0000              	GLOBAL _zx_tape_load_block_callee
684   0000              	GLOBAL _zx_tape_load_block
685   0000              	GLOBAL _spr_horizontal_check
686   0000              	GLOBAL _spr_draw8
687   0000              	GLOBAL _spr_clear_scr
688   0000              	GLOBAL _spr_back_repaint
689   0000              	GLOBAL _spr_get_tile_dir
690   0000              	GLOBAL _spr_get_tile
691   0000              	GLOBAL _spr_paint_player
692   0000              	GLOBAL _spr_clear_fast_hor
693   0000              	GLOBAL _spr_clear_fast_vert
694   0000              	GLOBAL _spr_clear_fast
695   0000              	GLOBAL _spr_paint
696   0000              	GLOBAL _spr_move_left
697   0000              	GLOBAL _spr_move_right
698   0000              	GLOBAL _spr_move_left_f
699   0000              	GLOBAL _spr_move_right_f
700   0000              	GLOBAL _spr_move_horizontal
701   0000              	GLOBAL _spr_move_down_f
702   0000              	GLOBAL _spr_move_up_f
703   0000              	GLOBAL _spr_set_right
704   0000              	GLOBAL _spr_set_left
705   0000              	GLOBAL _spr_set_down
706   0000              	GLOBAL _spr_set_up
707   0000              	GLOBAL _spr_calc_index
708   0000              	GLOBAL _spr_chktime
709   0000              	GLOBAL _player_new_jump
710   0000              	GLOBAL _player_crumble
711   0000              	GLOBAL _player_pick
712   0000              	GLOBAL _player_use_floor
713   0000              	GLOBAL _player_lost_life
714   0000              	GLOBAL _player_move_jump
715   0000              	GLOBAL _player_tile
716   0000              	GLOBAL _player_handle_conveyor
717   0000              	GLOBAL _player_pick_extra
718   0000              	GLOBAL _player_pick_deadly
719   0000              	GLOBAL _player_pick_item
720   0000              	GLOBAL _player_check_ceil
721   0000              	GLOBAL _player_check_floor
722   0000              	GLOBAL _player_score_add
723   0000              	GLOBAL _player_move_walk
724   0000              	GLOBAL _player_turn
725   0000              	GLOBAL _player_move
726   0000              	GLOBAL _player_check_input
727   0000              	GLOBAL _player_init
728   0000              	GLOBAL _menu_rotcolor
729   0000              	GLOBAL _menu_read_code
730   0000              	GLOBAL _menu_read_key
731   0000              	GLOBAL _menu_define_key
732   0000              	GLOBAL _menu_redefine
733   0000              	GLOBAL _menu_main_print
734   0000              	GLOBAL _menu_main
735   0000              	GLOBAL _game_colour_message
736   0000              	GLOBAL _game_update_stats
737   0000              	GLOBAL _game_fill_row
738   0000              	GLOBAL _enemy_init
739   0000              	GLOBAL _enemy_move
740   0000              	GLOBAL _enemy_turn
741   0000              	GLOBAL _enemy_static
742   0000              	GLOBAL _enemy_horizontal
743   0000              	GLOBAL _enemy_vertical
744   0000              	GLOBAL _ay_reset
745   0000              	GLOBAL _ay_song_stop
746   0000              	GLOBAL _ay_song_play
747   0000              	GLOBAL _ay_fx_stop
748   0000              	GLOBAL _ay_fx_play
749   0000              	GLOBAL _ay_is_playing
750   0000              	GLOBAL _audio_game_over
751   0000              	GLOBAL _audio_round_init
752   0000              	GLOBAL _audio_levelup
753   0000              	GLOBAL _audio_menu
754   0000              	GLOBAL _audio_game_end
755   0000              	GLOBAL _audio_game_start
756   0000              	GLOBAL _audio_level_complete
757   0000              	GLOBAL _audio_level_start
758   0000              	GLOBAL _audio_puerta
759   0000              	GLOBAL _audio_crumble
760   0000              	GLOBAL _audio_tick
761   0000              	GLOBAL _audio_door_open
762   0000              	GLOBAL _audio_coin_noentiendo
763   0000              	GLOBAL _audio_coin
764   0000              	GLOBAL _audio_fall
765   0000              	GLOBAL _audio_jump
766   0000              	GLOBAL _audio_dead
767   0000              	GLOBAL _audio_time
768   0000              	GLOBAL _audio_ingame
769   0000              	GLOBAL _in_mouse_kempston_wheel_delta
770   0000              	GLOBAL _in_mouse_kempston_wheel
771   0000              	GLOBAL _in_mouse_kempston_callee
772   0000              	GLOBAL _in_mouse_kempston
773   0000              	GLOBAL _in_mouse_kempston_setpos_callee
774   0000              	GLOBAL _in_mouse_kempston_setpos
775   0000              	GLOBAL _in_mouse_kempston_reset
776   0000              	GLOBAL _in_mouse_kempston_init
777   0000              	GLOBAL _in_mouse_amx_wheel_delta
778   0000              	GLOBAL _in_mouse_amx_wheel
779   0000              	GLOBAL _in_mouse_amx_callee
780   0000              	GLOBAL _in_mouse_amx
781   0000              	GLOBAL _in_mouse_amx_setpos_callee
782   0000              	GLOBAL _in_mouse_amx_setpos
783   0000              	GLOBAL _in_mouse_amx_reset
784   0000              	GLOBAL _in_mouse_amx_init_callee
785   0000              	GLOBAL _in_mouse_amx_init
786   0000              	GLOBAL _in_stick_sinclair2
787   0000              	GLOBAL _in_stick_sinclair1
788   0000              	GLOBAL _in_stick_kempston
789   0000              	GLOBAL _in_stick_fuller
790   0000              	GLOBAL _in_stick_cursor
791   0000              	GLOBAL _in_stick_keyboard_fastcall
792   0000              	GLOBAL _in_stick_keyboard
793   0000              	GLOBAL _in_wait_nokey
794   0000              	GLOBAL _in_wait_key
795   0000              	GLOBAL _in_test_key
796   0000              	GLOBAL _in_pause_fastcall
797   0000              	GLOBAL _in_pause
798   0000              	GLOBAL _in_key_scancode_fastcall
799   0000              	GLOBAL _in_key_scancode
800   0000              	GLOBAL _in_key_pressed_fastcall
801   0000              	GLOBAL _in_key_pressed
802   0000              	GLOBAL _in_inkey
803   0000              	GLOBAL _NIRVANAP_CHAR_TABLE
804   0000              	GLOBAL _NIRVANAP_WIDE_IMAGES
805   0000              	GLOBAL _NIRVANAP_TILE_IMAGES
806   0000              	GLOBAL _NIRVANAP_HOLE
807   0000              	GLOBAL _NIRVANAP_ISR_HOOK
808   0000              	GLOBAL _game_tune
809   0000              	GLOBAL _code1
810   0000              	GLOBAL _code0
811   0000              	GLOBAL _deltas
812   0000              	GLOBAL _attribs
813   0000              	GLOBAL _air_curr_byte
814   0000              	GLOBAL _spr_clr
815   0000              	GLOBAL _spr_init_bright
816   0000              	GLOBAL _spr_init_cout3
817   0000              	GLOBAL _spr_init_cin3
818   0000              	GLOBAL _spr_init_cout2
819   0000              	GLOBAL _spr_init_cin2
820   0000              	GLOBAL _spr_init_cout1
821   0000              	GLOBAL _spr_init_cin1
822   0000              	GLOBAL _spr_init_cout0
823   0000              	GLOBAL _spr_init_cin0
824   0000              	GLOBAL _map_clear
825   0000              	GLOBAL _map_paper
826   0000              	GLOBAL _map_border
827   0000              	GLOBAL _gbyte
828   0000              	GLOBAL _scr_curr
829   0000              	GLOBAL _color
830   0000              	GLOBAL _scr_map
831   0000              	GLOBAL _spr_kind
832   0000              	GLOBAL _spr_altset
833   0000              	GLOBAL _spr_frames
834   0000              	GLOBAL _spr_speed_a
835   0000              	GLOBAL _spr_speed_b
836   0000              	GLOBAL _spr_speed
837   0000              	GLOBAL _spr_tile
838   0000              	GLOBAL _screen_ink
839   0000              	GLOBAL _screen_paper
840   0000              	GLOBAL _game_start_scr
841   0000              	GLOBAL _player_next_extra
842   0000              	GLOBAL _game_score_top
843   0000              	GLOBAL _player_coins
844   0000              	GLOBAL _player_lives
845   0000              	GLOBAL _game_crumb_end
846   0000              	GLOBAL _game_crumb_start
847   0000              	GLOBAL _game_over
848   0000              	GLOBAL _game_tile_cnt
849   0000              	GLOBAL _game_sound
850   0000              	GLOBAL _game_inf_lives
851   0000              	GLOBAL _game_inmune
852   0000              	GLOBAL _spr_count
853   0000              	GLOBAL _key_ink
854   0000              	GLOBAL _key_last
855   0000              	GLOBAL _lapse_crumb
856   0000              	GLOBAL _time_key
857   0000              	GLOBAL _time_conv
858   0000              	GLOBAL _time_air
859   0000              	GLOBAL _frame_time
860   0000              	GLOBAL _curr_time
861   0000              	GLOBAL _key_attrib
862   0000              	GLOBAL _g_ray1
863   0000              	GLOBAL _attrib_osd
864   0000              	GLOBAL _attrib_hl
865   0000              	GLOBAL _attrib
866   0000              	GLOBAL _zx_val_asm
867   0000              	GLOBAL _index1
868   0000              	GLOBAL _index0
869   0000              	GLOBAL _loop_count
870   0000              	GLOBAL _s_row1
871   0000              	GLOBAL _s_col1
872   0000              	GLOBAL _s_col0
873   0000              	GLOBAL _s_lin1
874   0000              	GLOBAL _s_lin0
875   0000              	GLOBAL _nirv_sprite_index
876   0000              	GLOBAL _player_kill_index
877   0000              	GLOBAL _player_jump_top
878   0000              	GLOBAL _game_debug
879   0000              	GLOBAL _sprite
880   0000              	GLOBAL _fps
881   0000              	GLOBAL _game_effect
882   0000              	GLOBAL _game_menu
883   0000              	GLOBAL _game_atrac
884   0000              	GLOBAL _game_mode
885   0000              	GLOBAL _game_tileset
886   0000              	GLOBAL _menu_curr_sel
887   0000              	GLOBAL _game_round_up
888   0000              	GLOBAL _game_lives
889   0000              	GLOBAL _game_code
890   0000              	GLOBAL _game_exit_lin
891   0000              	GLOBAL _game_exit_col
892   0000              	GLOBAL _game_conveyor_col1
893   0000              	GLOBAL _game_conveyor_col0
894   0000              	GLOBAL _game_conveyor_lin
895   0000              	GLOBAL _game_conveyor_dir
896   0000              	GLOBAL _game_song_play
897   0000              	GLOBAL _game_gravity
898   0000              	GLOBAL _player_lin_scr
899   0000              	GLOBAL _player_col_scr
900   0000              	GLOBAL _player_fall_start
901   0000              	GLOBAL _player_jump_lin
902   0000              	GLOBAL _player_jump_count
903   0000              	GLOBAL _player_jump_hack
904   0000              	GLOBAL _player_vel_inc
905   0000              	GLOBAL _player_vel_y0
906   0000              	GLOBAL _player_vel_y
907   0000              	GLOBAL _player_score
908   0000              	GLOBAL _tbuffer
909   0000              	GLOBAL _obj_count
910   0000              	GLOBAL _obj_col
911   0000              	GLOBAL _obj_lin
912   0000              	GLOBAL _last_time_b
913   0000              	GLOBAL _last_time_a
914   0000              	GLOBAL _last_time
915   0000              	GLOBAL _colint
916   0000              	GLOBAL _col
917   0000              	GLOBAL _lin
918   0000              	GLOBAL _tile
919   0000              	GLOBAL _value_c
920   0000              	GLOBAL _value_b
921   0000              	GLOBAL _value_a
922   0000              	GLOBAL _state_a
923   0000              	GLOBAL _state
924   0000              	GLOBAL _class
925   0000              	GLOBAL _dirs_last
926   0000              	GLOBAL _dirs
927   0000              	GLOBAL _k2
928   0000              	GLOBAL _k1
929   0000              	GLOBAL _joyfunc2
930   0000              	GLOBAL _joyfunc1
931   0000              	GLOBAL _btiles
932   0000              	GLOBAL _v3
933   0000              	GLOBAL _v2
934   0000              	GLOBAL _v1
935   0000              	GLOBAL _v0
936   0000              	GLOBAL _i
937   0000              	GLOBAL _spec128
938   0000              	GLOBAL _GLOBAL_ZX_PORT_7FFD
939   0000              	GLOBAL _GLOBAL_ZX_PORT_1FFD
940   0000              	GLOBAL _GLOBAL_ZX_PORT_FE
941   0000              	GLOBAL _hitiles2
942   0000              	GLOBAL _hitiles1
943   0000              	GLOBAL _ay_song_coin_noentiendo
944   0000              	GLOBAL _ay_song_game_over
945   0000              	GLOBAL _ay_song_time_atack
946   0000              	GLOBAL _ay_fx_pause
947   0000              	GLOBAL _ay_fx_crumble
948   0000              	GLOBAL _ay_fx_door_open
949   0000              	GLOBAL _ay_fx_tick
950   0000              	GLOBAL _ay_fx_game_start
951   0000              	GLOBAL _ay_fx_fall
952   0000              	GLOBAL _ay_fx_jump
953   0000              	GLOBAL _ay_fx_dead
954   0000              	GLOBAL _ay_fx_coin
955   0000              	GLOBAL _ay_song_round_init
956   0000              	GLOBAL _ay_song_menu
957   0000              	GLOBAL _ay_song_ingame1
958   0000              	GLOBAL _ay_song_ingame0
959   0000              	GLOBAL _hisprites2
960   0000              	GLOBAL _hisprites1
961   0000              	GLOBAL _logo2
962   0000              	GLOBAL _logo1
963   0000              	GLOBAL _cartoon2
964   0000              	GLOBAL _cartoon1
965   0000              	GLOBAL _cartoon0
966   0000              	GLOBAL _img1
967   0000              	GLOBAL _air_end_byte
968   0000              	GLOBAL _air_start_byte
969   0000              	GLOBAL _tile_class
970   0000              	GLOBAL _texts
971   0000              	GLOBAL _map_names0
972   0000              	GLOBAL _game_borders0
973   0000              	GLOBAL _spr_init2
974   0000              	GLOBAL _spr_init1
975   0000              	GLOBAL _tile_class2
976   0000              	GLOBAL _tile_class1
977   0000              	GLOBAL _paper0
978   0000              	GLOBAL _lenght0
979   0000              	GLOBAL _world0
980   0000              	GLOBAL _spr_init
981   0000              	GLOBAL _game_encode
982   0000              	GLOBAL _player_jump_hor
983   0000              ;--------------------------------------------------------
984   0000              ; special function registers
985   0000              ;--------------------------------------------------------
986   0000              defc _IO_FE	=	0x00fe
987   0000              defc _IO_1FFD	=	0x1ffd
988   0000              defc _IO_7FFD	=	0x7ffd
989   0000              ;--------------------------------------------------------
990   0000              ; ram data
991   0000              ;--------------------------------------------------------
992   0000              	SECTION bss_compiler
993   0000              ;--------------------------------------------------------
994   0000              ; ram data
995   0000              ;--------------------------------------------------------
996   0000              
997   0000              IF 0
998   0000              
999   0000              ; .area _INITIALIZED removed by z88dk
1000  0000              
1001  0000              
1002  0000              ENDIF
1003  0000              
1004  0000              ;--------------------------------------------------------
1005  0000              ; absolute external ram data
1006  0000              ;--------------------------------------------------------
1007  0000              	SECTION IGNORE
1008  0000              ;--------------------------------------------------------
1009  0000              ; global & static initialisations
1010  0000              ;--------------------------------------------------------
1011  0000              	SECTION code_crt_init
1012  0000              ;--------------------------------------------------------
1013  0000              ; Home
1014  0000              ;--------------------------------------------------------
1015  0000              	SECTION IGNORE
1016  0000              ;--------------------------------------------------------
1017  0000              ; code
1018  0000              ;--------------------------------------------------------
1019  0000              	SECTION code_compiler
1020  0000              ;	---------------------------------
1021  0000              ; Function game_tick
1022  0000              ; ---------------------------------
1023  0000              _game_tick:
1024  0000  21 00 00    	ld	hl,_curr_time
1025  0003  34          	inc	(hl)
1026  0004  C2 00 00    	jp	NZ,_zx_isr
1027  0007  23          	inc	hl
1028  0008  34          	inc	(hl)
1029  0009  C3 00 00    	jp  _zx_isr
1030  000C              	SECTION code_compiler
1031  000C              ;	---------------------------------
1032  000C              ; Function game_loop
1033  000C              ; ---------------------------------
1034  000C              _game_loop:
1035  000C  3A 00 00    	ld	a,(_game_code)
1036  000F  B7          	or	a, a
1037  0010  20 05       	jr	NZ,l_game_loop_00102
1038  0012  21 00 00    	ld	hl,_player_lives
1039  0015  36 03       	ld	(hl),0x03
1040  0017              l_game_loop_00102:
1041  0017  3A 00 00    	ld	a,(_player_lives)
1042  001A  32 00 00    	ld	(_game_lives),a
1043  001D  21 00 00    	ld	hl,0x0000
1044  0020  7D          	ld	a,l
1045  0021  22 00 00    	ld	(_player_score),hl
1046  0024  22 02 00    	ld	(_player_score + 2),hl
1047  0027  21 04 00    	ld	hl,_player_score + 4
1048  002A  77          	ld	(hl), a
1049  002B  23          	inc	hl
1050  002C  77          	ld	(hl), a
1051  002D  23          	inc	hl
1052  002E  77          	ld	(hl), a
1053  002F  23          	inc	hl
1054  0030  77          	ld	(hl), a
1055  0031  21 00 00    	ld	hl,_game_over
1056  0034  36 00       	ld	(hl),0x00
1057  0036  21 00 00    	ld	hl,_game_round_up
1058  0039  36 00       	ld	(hl),0x00
1059  003B  21 00 00    	ld	hl,_map_paper
1060  003E  36 00       	ld	(hl),0x00
1061  0040  21 00 00    	ld	hl,_player_lin_scr
1062  0043  36 68       	ld	(hl),0x68
1063  0045  21 00 00    	ld	hl,_player_col_scr
1064  0048  36 02       	ld	(hl),0x02
1065  004A  CD 10 0A    	call	_game_round_init
1066  004D              l_game_loop_00139:
1067  004D  3A 00 00    	ld	a,(_game_over)
1068  0050  B7          	or	a, a
1069  0051  C2 36 02    	jp	NZ, l_game_loop_00142
1070  0054              l_game_loop_00134:
1071  0054  3A 00 00    	ld	a,(_game_round_up)
1072  0057  B7          	or	a, a
1073  0058  C2 09 02    	jp	NZ, l_game_loop_00136
1074  005B  3A 00 00    	ld	a,(_game_over)
1075  005E  B7          	or	a, a
1076  005F  C2 09 02    	jp	NZ, l_game_loop_00136
1077  0062  CD 00 00    	call	_enemy_turn
1078  0065  CD 00 00    	call	_player_turn
1079  0068  21 04 00    	ld	hl,0x0004
1080  006B  E5          	push	hl
1081  006C  21 00 00    	ld	hl,_time_key
1082  006F  E5          	push	hl
1083  0070  CD 50 0E    	call	_game_check_time
1084  0073  F1          	pop	af
1085  0074  F1          	pop	af
1086  0075  7D          	ld	a, l
1087  0076  B7          	or	a, a
1088  0077  28 09       	jr	Z,l_game_loop_00104
1089  0079  2A 00 00    	ld	hl,(_curr_time)
1090  007C  22 00 00    	ld	(_time_key),hl
1091  007F  CD 7A 0E    	call	_game_key_paint
1092  0082              l_game_loop_00104:
1093  0082  3A 00 00    	ld	a,(_game_conveyor_col0)
1094  0085  B7          	or	a, a
1095  0086  28 1A       	jr	Z,l_game_loop_00108
1096  0088  21 05 00    	ld	hl,0x0005
1097  008B  E5          	push	hl
1098  008C  21 00 00    	ld	hl,_time_conv
1099  008F  E5          	push	hl
1100  0090  CD 50 0E    	call	_game_check_time
1101  0093  F1          	pop	af
1102  0094  F1          	pop	af
1103  0095  7D          	ld	a, l
1104  0096  B7          	or	a, a
1105  0097  28 09       	jr	Z,l_game_loop_00108
1106  0099  2A 00 00    	ld	hl,(_curr_time)
1107  009C  22 00 00    	ld	(_time_conv),hl
1108  009F  CD 38 09    	call	_game_anim_conveyor
1109  00A2              l_game_loop_00108:
1110  00A2  21 1E 00    	ld	hl,0x001e
1111  00A5  E5          	push	hl
1112  00A6  21 00 00    	ld	hl,_time_air
1113  00A9  E5          	push	hl
1114  00AA  CD 50 0E    	call	_game_check_time
1115  00AD  F1          	pop	af
1116  00AE  F1          	pop	af
1117  00AF  7D          	ld	a, l
1118  00B0  B7          	or	a, a
1119  00B1  28 29       	jr	Z,l_game_loop_00113
1120  00B3  CD D0 08    	call	_game_anim_air
1121  00B6  2A 00 00    	ld	hl,(_curr_time)
1122  00B9  22 00 00    	ld	(_time_air),hl
1123  00BC  3A 00 00    	ld	a,(_game_debug)
1124  00BF  B7          	or	a,a
1125  00C0  28 1A       	jr	Z,l_game_loop_00113
1126  00C2  21 64 00    	ld	hl,0x0064
1127  00C5  E5          	push	hl
1128  00C6  21 00 00    	ld	hl,_frame_time
1129  00C9  E5          	push	hl
1130  00CA  CD 50 0E    	call	_game_check_time
1131  00CD  F1          	pop	af
1132  00CE  F1          	pop	af
1133  00CF  7D          	ld	a, l
1134  00D0  B7          	or	a, a
1135  00D1  28 09       	jr	Z,l_game_loop_00113
1136  00D3  CD 37 02    	call	_game_fps
1137  00D6  2A 00 00    	ld	hl,(_curr_time)
1138  00D9  22 00 00    	ld	(_frame_time),hl
1139  00DC              l_game_loop_00113:
1140  00DC  3A 00 00    	ld	a,(_scr_curr)
1141  00DF  D6 12       	sub	a,0x12
1142  00E1  20 09       	jr	NZ,l_game_loop_00115
1143  00E3  3A 00 00    	ld	a,(_game_atrac)
1144  00E6  B7          	or	a, a
1145  00E7  20 03       	jr	NZ,l_game_loop_00115
1146  00E9  CD B9 04    	call	_game_solar_ray
1147  00EC              l_game_loop_00115:
1148  00EC  21 00 00    	ld	hl,_loop_count
1149  00EF  34          	inc	(hl)
1150  00F0  20 02       	jr	NZ,l_game_loop_00242
1151  00F2  23          	inc	hl
1152  00F3  34          	inc	(hl)
1153  00F4              l_game_loop_00242:
1154  00F4  21 00 00    	ld	hl,_fps
1155  00F7  34          	inc	(hl)
1156  00F8  20 02       	jr	NZ,l_game_loop_00243
1157  00FA  23          	inc	hl
1158  00FB  34          	inc	(hl)
1159  00FC              l_game_loop_00243:
1160  00FC  21 00 00    	ld	hl,_k2
1161  00FF  E5          	push	hl
1162  0100  2A 00 00    	ld	hl,(_joyfunc2)
1163  0103  CD 00 00    	call	___sdcc_call_hl
1164  0106  F1          	pop	af
1165  0107  CB 55       	bit	2,l
1166  0109  7D          	ld	a,l
1167  010A  32 00 00    	ld	(_v0),a
1168  010D  CA 8F 01    	jp	Z,l_game_loop_00125
1169  0110  21 00 00    	ld	hl,_game_tune
1170  0113  34          	inc	(hl)
1171  0114  3E 04       	ld	a,0x04
1172  0116  96          	sub	a, (hl)
1173  0117  30 02       	jr	NC,l_game_loop_00118
1174  0119  36 01       	ld	(hl),0x01
1175  011B              l_game_loop_00118:
1176  011B  3A 00 00    	ld	a,(_map_border)
1177  011E  07          	rlca
1178  011F  07          	rlca
1179  0120  07          	rlca
1180  0121  E6 F8       	and	a,0xf8
1181  0123  F6 07       	or	a,0x07
1182  0125  32 00 00    	ld	(_screen_ink),a
1183  0128  21 00 00    	ld	hl,___str_0
1184  012B  E5          	push	hl
1185  012C  21 00 0D    	ld	hl,0x0d00
1186  012F  E5          	push	hl
1187  0130  CD 00 00    	call	_zx_print_str
1188  0133  3A 00 00    	ld	a,(_game_tune)
1189  0136  3D          	dec	a
1190  0137  28 11       	jr	Z,l_game_loop_00119
1191  0139  3A 00 00    	ld	a,(_game_tune)
1192  013C  FE 02       	cp	a,0x02
1193  013E  28 17       	jr	Z,l_game_loop_00120
1194  0140  FE 03       	cp	a,0x03
1195  0142  28 20       	jr	Z,l_game_loop_00121
1196  0144  D6 04       	sub	a,0x04
1197  0146  28 29       	jr	Z,l_game_loop_00122
1198  0148  18 32       	jr	l_game_loop_00123
1199  014A              l_game_loop_00119:
1200  014A  21 05 00    	ld	hl,___str_1
1201  014D  E5          	push	hl
1202  014E  21 00 12    	ld	hl,0x1200
1203  0151  E5          	push	hl
1204  0152  CD 00 00    	call	_zx_print_str
1205  0155  18 25       	jr	l_game_loop_00123
1206  0157              l_game_loop_00120:
1207  0157  21 07 00    	ld	hl,___str_2
1208  015A  E5          	push	hl
1209  015B  21 00 12    	ld	hl,0x1200
1210  015E  E5          	push	hl
1211  015F  CD 00 00    	call	_zx_print_str
1212  0162  18 18       	jr	l_game_loop_00123
1213  0164              l_game_loop_00121:
1214  0164  21 09 00    	ld	hl,___str_3
1215  0167  E5          	push	hl
1216  0168  21 00 12    	ld	hl,0x1200
1217  016B  E5          	push	hl
1218  016C  CD 00 00    	call	_zx_print_str
1219  016F  18 0B       	jr	l_game_loop_00123
1220  0171              l_game_loop_00122:
1221  0171  21 0B 00    	ld	hl,___str_4
1222  0174  E5          	push	hl
1223  0175  21 00 12    	ld	hl,0x1200
1224  0178  E5          	push	hl
1225  0179  CD 00 00    	call	_zx_print_str
1226  017C              l_game_loop_00123:
1227  017C  CD 00 00    	call	_in_wait_nokey
1228  017F  CD 00 00    	call	_audio_ingame
1229  0182  21 19 00    	ld	hl,0x0019
1230  0185  CD 00 00    	call	_z80_delay_ms_fastcall
1231  0188  21 00 20    	ld	hl,0x2000
1232  018B  E5          	push	hl
1233  018C  CD 00 00    	call	_game_fill_row
1234  018F              l_game_loop_00125:
1235  018F  21 00 00    	ld	hl,_v0
1236  0192  CB 5E       	bit	3, (hl)
1237  0194  CA 54 00    	jp	Z,l_game_loop_00134
1238  0197  CD 00 00    	call	_ay_song_stop
1239  019A  21 64 00    	ld	hl,0x0064
1240  019D  CD 00 00    	call	_z80_delay_ms_fastcall
1241  01A0  21 00 00    	ld	hl,_ay_fx_pause
1242  01A3  E5          	push	hl
1243  01A4  3E 04       	ld	a,0x04
1244  01A6  F5          	push	af
1245  01A7  33          	inc	sp
1246  01A8  CD 00 00    	call	_ay_fx_play
1247  01AB  21 00 00    	ld	hl,_v0
1248  01AE  36 01       	ld	(hl),0x01
1249  01B0              l_game_loop_00128:
1250  01B0  3A 00 00    	ld	a,(_v0)
1251  01B3  B7          	or	a, a
1252  01B4  28 40       	jr	Z,l_game_loop_00130
1253  01B6  21 00 00    	ld	hl,_k2
1254  01B9  E5          	push	hl
1255  01BA  2A 00 00    	ld	hl,(_joyfunc2)
1256  01BD  CD 00 00    	call	___sdcc_call_hl
1257  01C0  F1          	pop	af
1258  01C1  7D          	ld	a,l
1259  01C2  32 00 00    	ld	(_dirs),a
1260  01C5  21 0A 00    	ld	hl,0x000a
1261  01C8  CD 00 00    	call	_z80_delay_ms_fastcall
1262  01CB  21 00 00    	ld	hl,_dirs
1263  01CE  CB 5E       	bit	3, (hl)
1264  01D0  28 05       	jr	Z,l_game_loop_00127
1265  01D2  21 00 00    	ld	hl,_v0
1266  01D5  36 00       	ld	(hl),0x00
1267  01D7              l_game_loop_00127:
1268  01D7  CD 00 00    	call	_menu_rotcolor
1269  01DA  3A 00 00    	ld	a,(_map_border)
1270  01DD  07          	rlca
1271  01DE  07          	rlca
1272  01DF  07          	rlca
1273  01E0  E6 F8       	and	a,0xf8
1274  01E2  21 00 00    	ld	hl,_color
1275  01E5  B6          	or	a, (hl)
1276  01E6  32 00 00    	ld	(_screen_ink),a
1277  01E9  21 0F 00    	ld	hl,___str_5
1278  01EC  E5          	push	hl
1279  01ED  21 00 0E    	ld	hl,0x0e00
1280  01F0  E5          	push	hl
1281  01F1  CD 00 00    	call	_zx_print_str
1282  01F4  18 BA       	jr	l_game_loop_00128
1283  01F6              l_game_loop_00130:
1284  01F6  21 00 20    	ld	hl,0x2000
1285  01F9  E5          	push	hl
1286  01FA  CD 00 00    	call	_game_fill_row
1287  01FD  CD 00 00    	call	_audio_ingame
1288  0200  21 64 00    	ld	hl,0x0064
1289  0203  CD 00 00    	call	_z80_delay_ms_fastcall
1290  0206  C3 54 00    	jp	l_game_loop_00134
1291  0209              l_game_loop_00136:
1292  0209  3A 00 00    	ld	a,(_game_round_up)
1293  020C  B7          	or	a, a
1294  020D  CA 4D 00    	jp	Z, l_game_loop_00139
1295  0210  21 00 00    	ld	hl,_screen_ink
1296  0213  36 30       	ld	(hl),0x30
1297  0215  3A 00 00    	ld	a,(_player_lives)
1298  0218  32 00 00    	ld	(_game_lives),a
1299  021B  CD 10 0A    	call	_game_round_init
1300  021E  2A FF FF    	ld	hl,(_game_exit_col - 1)
1301  0221  3A 00 00    	ld	a,(_game_exit_lin)
1302  0224  6F          	ld	l,a
1303  0225  E5          	push	hl
1304  0226  21 06 07    	ld	hl,0x0706
1305  0229  E5          	push	hl
1306  022A  CD 00 00    	call	_NIRVANAP_spriteT_callee
1307  022D  76          	halt
1308  022E  21 00 00    	ld	hl,_game_round_up
1309  0231  36 00       	ld	(hl),0x00
1310  0233  C3 4D 00    	jp	l_game_loop_00139
1311  0236              l_game_loop_00142:
1312  0236  C9          	ret
1313  0237              	SECTION rodata_compiler
1314  0000              ___str_0:
1315  0000  54 55 4E 45 	DEFM "TUNE"
1316  0004  00          	DEFB 0x00
1317  0005              	SECTION rodata_compiler
1318  0005              ___str_1:
1319  0005  41          	DEFM "A"
1320  0006  00          	DEFB 0x00
1321  0007              	SECTION rodata_compiler
1322  0007              ___str_2:
1323  0007  42          	DEFM "B"
1324  0008  00          	DEFB 0x00
1325  0009              	SECTION rodata_compiler
1326  0009              ___str_3:
1327  0009  43          	DEFM "C"
1328  000A  00          	DEFB 0x00
1329  000B              	SECTION rodata_compiler
1330  000B              ___str_4:
1331  000B  4F 46 46    	DEFM "OFF"
1332  000E  00          	DEFB 0x00
1333  000F              	SECTION rodata_compiler
1334  000F              ___str_5:
1335  000F  50 41 55 53 45 
                        	DEFM "PAUSE"
1336  0014  00          	DEFB 0x00
1337  0015              	SECTION code_compiler
1338  0237              ;	---------------------------------
1339  0237              ; Function game_fps
1340  0237              ; ---------------------------------
1341  0237              _game_fps:
1342  0237  21 00 00    	ld	hl,_screen_ink
1343  023A  36 07       	ld	(hl),0x07
1344  023C  2A 00 00    	ld	hl,(_fps)
1345  023F  E5          	push	hl
1346  0240  21 17 18    	ld	hl,0x1817
1347  0243  E5          	push	hl
1348  0244  CD 00 00    	call	_zx_print_int
1349  0247  21 00 00    	ld	hl,0x0000
1350  024A  22 00 00    	ld	(_fps),hl
1351  024D  C9          	ret
1352  024E              	SECTION code_compiler
1353  024E              ;	---------------------------------
1354  024E              ; Function game_draw_map
1355  024E              ; ---------------------------------
1356  024E              _game_draw_map:
1357  024E  CD 00 00    	call	___sdcc_enter_ix
1358  0251  F5          	push	af
1359  0252  F5          	push	af
1360  0253  3B          	dec	sp
1361  0254  CD 00 00    	call	_NIRVANAP_stop
1362  0257  F3          	di
1363  0258  21 00 00    	ld	hl,_screen_ink
1364  025B  36 07       	ld	(hl),0x07
1365  025D  21 00 00    	ld	hl,_v0
1366  0260  36 00       	ld	(hl),0x00
1367  0262              l_game_draw_map_00101:
1368  0262  21 00 00    	ld	hl,_v0
1369  0265  7E          	ld	a, (hl)
1370  0266  D6 08       	sub	a,0x08
1371  0268  30 0E       	jr	NC,l_game_draw_map_00103
1372  026A  3E 00       	ld	a, +((_class) & 0xFF)
1373  026C  86          	add	a, (hl)
1374  026D  4F          	ld	c, a
1375  026E  3E 00       	ld	a, +((_class) / 256)
1376  0270  CE 00       	adc	a,0x00
1377  0272  47          	ld	b, a
1378  0273  AF          	xor	a, a
1379  0274  02          	ld	(bc), a
1380  0275  34          	inc	(hl)
1381  0276  18 EA       	jr	l_game_draw_map_00101
1382  0278              l_game_draw_map_00103:
1383  0278  21 00 00    	ld	hl,_spr_count
1384  027B  36 00       	ld	(hl),0x00
1385  027D  21 00 00    	ld	hl,_obj_count
1386  0280  36 00       	ld	(hl),0x00
1387  0282  21 00 00    	ld	hl,0x0000
1388  0285  22 00 00    	ld	(_index1),hl
1389  0288  21 00 00    	ld	hl,_s_row1
1390  028B  36 01       	ld	(hl),0x01
1391  028D  21 00 00    	ld	hl,_s_lin1
1392  0290  36 10       	ld	(hl),0x10
1393  0292  21 00 00    	ld	hl,_s_col1
1394  0295  36 00       	ld	(hl),0x00
1395  0297  21 00 00    	ld	hl,_game_conveyor_lin
1396  029A  36 00       	ld	(hl),0x00
1397  029C  21 00 00    	ld	hl,_game_conveyor_col0
1398  029F  36 00       	ld	(hl),0x00
1399  02A1  21 00 00    	ld	hl,_game_conveyor_col1
1400  02A4  36 00       	ld	(hl),0x00
1401  02A6  3A 00 00    	ld	a,(_map_clear)
1402  02A9  32 00 00    	ld	(_attrib_hl),a
1403  02AC  32 01 00    	ld	((_attrib_hl + 0x0001)),a
1404  02AF  3A 00 00    	ld	a,(_map_clear)
1405  02B2  32 02 00    	ld	((_attrib_hl + 0x0002)),a
1406  02B5  32 03 00    	ld	((_attrib_hl + 0x0003)),a
1407  02B8  DD 36 FB 00 	ld	(ix-5),0x00
1408  02BC              l_game_draw_map_00136:
1409  02BC  21 01 00    	ld	hl,_index1 + 1
1410  02BF  7E          	ld	a, (hl)
1411  02C0  D6 02       	sub	a,0x02
1412  02C2  D2 A6 04    	jp	NC, l_game_draw_map_00138
1413  02C5  3E 00       	ld	a, +((_scr_map) & 0xFF)
1414  02C7  2B          	dec	hl
1415  02C8  86          	add	a, (hl)
1416  02C9  4F          	ld	c, a
1417  02CA  3E 00       	ld	a, +((_scr_map) / 256)
1418  02CC  23          	inc	hl
1419  02CD  8E          	adc	a, (hl)
1420  02CE  47          	ld	b, a
1421  02CF  0A          	ld	a, (bc)
1422  02D0  4F          	ld	c, a
1423  02D1  56          	ld	d,(hl)
1424  02D2  2B          	dec	hl
1425  02D3  5E          	ld	e,(hl)
1426  02D4  13          	inc	de
1427  02D5  21 00 00    	ld	hl,_scr_map
1428  02D8  19          	add	hl,de
1429  02D9  DD 75 FE    	ld	(ix-2),l
1430  02DC  DD 74 FF    	ld	(ix-1),h
1431  02DF  7E          	ld	a, (hl)
1432  02E0  DD 77 FD    	ld	(ix-3),a
1433  02E3  79          	ld	a, c
1434  02E4  D6 20       	sub	a,0x20
1435  02E6  D2 A4 03    	jp	NC, l_game_draw_map_00132
1436  02E9  3A 00 00    	ld	a,(_s_row1)
1437  02EC  07          	rlca
1438  02ED  07          	rlca
1439  02EE  07          	rlca
1440  02EF  E6 F8       	and	a,0xf8
1441  02F1  47          	ld	b, a
1442  02F2  3A 00 00    	ld	a,(_s_col1)
1443  02F5  C5          	push	bc
1444  02F6  F5          	push	af
1445  02F7  33          	inc	sp
1446  02F8  C5          	push	bc
1447  02F9  CD 00 00    	call	_spr_draw8
1448  02FC  F1          	pop	af
1449  02FD  33          	inc	sp
1450  02FE  C1          	pop	bc
1451  02FF  06 00       	ld	b,0x00
1452  0301  21 00 00    	ld	hl,_tile_class
1453  0304  09          	add	hl, bc
1454  0305  7E          	ld	a, (hl)
1455  0306  DD 77 FC    	ld	(ix-4),a
1456  0309  3E 00       	ld	a, +((_tile_class) & 0xFF)
1457  030B  DD 86 FD    	add	a,(ix-3)
1458  030E  6F          	ld	l, a
1459  030F  3E 00       	ld	a, +((_tile_class) / 256)
1460  0311  CE 00       	adc	a,0x00
1461  0313  67          	ld	h, a
1462  0314  4E          	ld	c, (hl)
1463  0315  DD 7E FC    	ld	a,(ix-4)
1464  0318  D6 08       	sub	a,0x08
1465  031A  20 28       	jr	NZ,l_game_draw_map_00107
1466  031C  21 00 00    	ld	hl,_obj_count
1467  031F  7E          	ld	a, (hl)
1468  0320  D6 05       	sub	a,0x05
1469  0322  30 20       	jr	NC,l_game_draw_map_00107
1470  0324  3E 00       	ld	a, +((_obj_col) & 0xFF)
1471  0326  86          	add	a, (hl)
1472  0327  5F          	ld	e, a
1473  0328  3E 00       	ld	a, +((_obj_col) / 256)
1474  032A  CE 00       	adc	a,0x00
1475  032C  57          	ld	d, a
1476  032D  3A 00 00    	ld	a,(_s_col1)
1477  0330  12          	ld	(de), a
1478  0331  3A 00 00    	ld	a,(_obj_count)
1479  0334  C6 00       	add	a,+((_obj_lin) & 0xFF)
1480  0336  5F          	ld	e,a
1481  0337  3E 00       	ld	a,+((_obj_lin) / 256)
1482  0339  CE 00       	adc	a,0x00
1483  033B  57          	ld	d,a
1484  033C  3A 00 00    	ld	a,(_s_lin1)
1485  033F  12          	ld	(de), a
1486  0340  21 00 00    	ld	hl,_obj_count
1487  0343  34          	inc	(hl)
1488  0344              l_game_draw_map_00107:
1489  0344  DD 7E FC    	ld	a,(ix-4)
1490  0347  D6 04       	sub	a,0x04
1491  0349  20 04       	jr	NZ,l_game_draw_map_00233
1492  034B  3E 01       	ld	a,0x01
1493  034D  18 01       	jr	l_game_draw_map_00234
1494  034F              l_game_draw_map_00233:
1495  034F  AF          	xor	a,a
1496  0350              l_game_draw_map_00234:
1497  0350  5F          	ld	e, a
1498  0351  21 00 00    	ld	hl,_s_col1
1499  0354  46          	ld	b, (hl)
1500  0355  3A 00 00    	ld	a,(_game_conveyor_col0)
1501  0358  B7          	or	a, a
1502  0359  28 0C       	jr	Z,l_game_draw_map_00109
1503  035B  21 00 00    	ld	hl,_game_conveyor_col1
1504  035E  7E          	ld	a, (hl)
1505  035F  B7          	or	a, a
1506  0360  20 05       	jr	NZ,l_game_draw_map_00109
1507  0362  CB 43       	bit	0, e
1508  0364  20 01       	jr	NZ,l_game_draw_map_00109
1509  0366  70          	ld	(hl), b
1510  0367              l_game_draw_map_00109:
1511  0367  CB 43       	bit	0, e
1512  0369  CA 80 04    	jp	Z, l_game_draw_map_00133
1513  036C  79          	ld	a,c
1514  036D  B7          	or	a, a
1515  036E  28 05       	jr	Z,l_game_draw_map_00117
1516  0370  D6 04       	sub	a,0x04
1517  0372  C2 80 04    	jp	NZ,l_game_draw_map_00133
1518  0375              l_game_draw_map_00117:
1519  0375  21 00 00    	ld	hl,_game_conveyor_col0
1520  0378  7E          	ld	a, (hl)
1521  0379  B7          	or	a, a
1522  037A  C2 80 04    	jp	NZ, l_game_draw_map_00133
1523  037D  70          	ld	(hl), b
1524  037E  3A 00 00    	ld	a,(_s_lin1)
1525  0381  C6 F8       	add	a,0xf8
1526  0383  32 00 00    	ld	(_game_conveyor_lin),a
1527  0386  79          	ld	a, c
1528  0387  B7          	or	a, a
1529  0388  28 07       	jr	Z,l_game_draw_map_00113
1530  038A  21 00 00    	ld	hl,_game_conveyor_dir
1531  038D  36 01       	ld	(hl),0x01
1532  038F  18 05       	jr	l_game_draw_map_00114
1533  0391              l_game_draw_map_00113:
1534  0391  21 00 00    	ld	hl,_game_conveyor_dir
1535  0394  36 02       	ld	(hl),0x02
1536  0396              l_game_draw_map_00114:
1537  0396  ED 4B 00 00 	ld	bc,(_index1)
1538  039A  03          	inc	bc
1539  039B  21 00 00    	ld	hl,_scr_map
1540  039E  09          	add	hl, bc
1541  039F  36 04       	ld	(hl),0x04
1542  03A1  C3 80 04    	jp	l_game_draw_map_00133
1543  03A4              l_game_draw_map_00132:
1544  03A4  79          	ld	a, c
1545  03A5  D6 20       	sub	a,0x20
1546  03A7  20 38       	jr	NZ,l_game_draw_map_00122
1547  03A9  DD 7E FB    	ld	a,(ix-5)
1548  03AC  B7          	or	a, a
1549  03AD  20 32       	jr	NZ,l_game_draw_map_00122
1550  03AF  DD 36 FB 01 	ld	(ix-5),0x01
1551  03B3  3A 00 00    	ld	a,(_s_col1)
1552  03B6  32 00 00    	ld	(_game_exit_col),a
1553  03B9  3A 00 00    	ld	a,(_s_lin1)
1554  03BC  32 00 00    	ld	(_game_exit_lin),a
1555  03BF  DD 6E FE    	ld	l,(ix-2)
1556  03C2  DD 66 FF    	ld	h,(ix-1)
1557  03C5  36 20       	ld	(hl),0x20
1558  03C7  2A 00 00    	ld	hl,(_index1)
1559  03CA  11 20 00    	ld	de,0x0020
1560  03CD  19          	add	hl,de
1561  03CE  11 00 00    	ld	de,_scr_map
1562  03D1  19          	add	hl, de
1563  03D2  36 20       	ld	(hl),0x20
1564  03D4  2A 00 00    	ld	hl,(_index1)
1565  03D7  11 21 00    	ld	de,0x0021
1566  03DA  19          	add	hl,de
1567  03DB  11 00 00    	ld	de,_scr_map
1568  03DE  19          	add	hl, de
1569  03DF  36 20       	ld	(hl),0x20
1570  03E1              l_game_draw_map_00122:
1571  03E1  79          	ld	a, c
1572  03E2  D6 40       	sub	a,0x40
1573  03E4  38 33       	jr	C,l_game_draw_map_00127
1574  03E6  3E 7B       	ld	a,0x7b
1575  03E8  91          	sub	a, c
1576  03E9  38 2E       	jr	C,l_game_draw_map_00127
1577  03EB  3A 00 00    	ld	a,(_s_row1)
1578  03EE  07          	rlca
1579  03EF  07          	rlca
1580  03F0  07          	rlca
1581  03F1  E6 F8       	and	a,0xf8
1582  03F3  47          	ld	b, a
1583  03F4  3A 00 00    	ld	a,(_s_col1)
1584  03F7  C5          	push	bc
1585  03F8  48          	ld	c,b
1586  03F9  47          	ld	b,a
1587  03FA  C5          	push	bc
1588  03FB  AF          	xor	a, a
1589  03FC  F5          	push	af
1590  03FD  33          	inc	sp
1591  03FE  CD 00 00    	call	_spr_draw8
1592  0401  F1          	pop	af
1593  0402  33          	inc	sp
1594  0403  C1          	pop	bc
1595  0404  3A 00 00    	ld	a,(_spr_count)
1596  0407  D6 08       	sub	a,0x08
1597  0409  30 05       	jr	NC,l_game_draw_map_00125
1598  040B  C5          	push	bc
1599  040C  CD 00 00    	call	_enemy_init
1600  040F  C1          	pop	bc
1601  0410              l_game_draw_map_00125:
1602  0410  11 00 00    	ld	de,_scr_map
1603  0413  2A 00 00    	ld	hl,(_index1)
1604  0416  19          	add	hl,de
1605  0417  AF          	xor	a,a
1606  0418  77          	ld	(hl),a
1607  0419              l_game_draw_map_00127:
1608  0419  79          	ld	a, c
1609  041A  D6 7F       	sub	a,0x7f
1610  041C  20 62       	jr	NZ,l_game_draw_map_00133
1611  041E  3A 00 00    	ld	a,(_s_lin1)
1612  0421  C6 F0       	add	a,0xf0
1613  0423  32 00 00    	ld	(_player_lin_scr),a
1614  0426  3A 00 00    	ld	a,(_s_col1)
1615  0429  32 00 00    	ld	(_player_col_scr),a
1616  042C  ED 4B 00 00 	ld	bc,(_index1)
1617  0430  03          	inc	bc
1618  0431  21 00 00    	ld	hl,_scr_map
1619  0434  09          	add	hl, bc
1620  0435  7E          	ld	a,(hl)
1621  0436  32 08 00    	ld	((_value_a + 0x0008)),a
1622  0439  2A 00 00    	ld	hl,(_index1)
1623  043C  01 20 00    	ld	bc,0x0020
1624  043F  09          	add	hl,bc
1625  0440  01 00 00    	ld	bc,_scr_map
1626  0443  09          	add	hl,bc
1627  0444  7E          	ld	a,(hl)
1628  0445  32 08 00    	ld	((_value_b + 0x0008)),a
1629  0448  2A 00 00    	ld	hl,(_index1)
1630  044B  01 00 00    	ld	bc,_scr_map
1631  044E  09          	add	hl,bc
1632  044F  AF          	xor	a,a
1633  0450  77          	ld	(hl),a
1634  0451  ED 4B 00 00 	ld	bc,(_index1)
1635  0455  03          	inc	bc
1636  0456  21 00 00    	ld	hl,_scr_map
1637  0459  09          	add	hl, bc
1638  045A  36 00       	ld	(hl),0x00
1639  045C  2A 00 00    	ld	hl,(_index1)
1640  045F  01 20 00    	ld	bc,0x0020
1641  0462  09          	add	hl,bc
1642  0463  01 00 00    	ld	bc,_scr_map
1643  0466  09          	add	hl,bc
1644  0467  36 00       	ld	(hl),0x00
1645  0469  3A 00 00    	ld	a,(_s_row1)
1646  046C  07          	rlca
1647  046D  07          	rlca
1648  046E  07          	rlca
1649  046F  E6 F8       	and	a,0xf8
1650  0471  47          	ld	b, a
1651  0472  3A 00 00    	ld	a,(_s_col1)
1652  0475  48          	ld	c,b
1653  0476  47          	ld	b,a
1654  0477  C5          	push	bc
1655  0478  AF          	xor	a, a
1656  0479  F5          	push	af
1657  047A  33          	inc	sp
1658  047B  CD 00 00    	call	_spr_draw8
1659  047E  F1          	pop	af
1660  047F  33          	inc	sp
1661  0480              l_game_draw_map_00133:
1662  0480  21 00 00    	ld	hl,_index1
1663  0483  34          	inc	(hl)
1664  0484  20 02       	jr	NZ,l_game_draw_map_00241
1665  0486  23          	inc	hl
1666  0487  34          	inc	(hl)
1667  0488              l_game_draw_map_00241:
1668  0488  21 00 00    	ld	hl,_s_col1
1669  048B  7E          	ld	a,(hl)
1670  048C  3C          	inc	a
1671  048D  77          	ld	(hl),a
1672  048E  D6 20       	sub	a,0x20
1673  0490  C2 BC 02    	jp	NZ,l_game_draw_map_00136
1674  0493  21 00 00    	ld	hl,_s_row1
1675  0496  34          	inc	(hl)
1676  0497  21 00 00    	ld	hl,_s_lin1
1677  049A  7E          	ld	a, (hl)
1678  049B  C6 08       	add	a,0x08
1679  049D  77          	ld	(hl), a
1680  049E  21 00 00    	ld	hl,_s_col1
1681  04A1  36 00       	ld	(hl),0x00
1682  04A3  C3 BC 02    	jp	l_game_draw_map_00136
1683  04A6              l_game_draw_map_00138:
1684  04A6  3A 00 00    	ld	a,(_scr_curr)
1685  04A9  D6 13       	sub	a,0x13
1686  04AB  20 03       	jr	NZ,l_game_draw_map_00140
1687  04AD  CD E4 06    	call	_game_img1
1688  04B0              l_game_draw_map_00140:
1689  04B0  FB          	ei
1690  04B1  CD 00 00    	call	_NIRVANAP_start
1691  04B4  DD F9       	ld	sp, ix
1692  04B6  DD E1       	pop	ix
1693  04B8  C9          	ret
1694  04B9              	SECTION code_compiler
1695  04B9              ;	---------------------------------
1696  04B9              ; Function game_solar_ray
1697  04B9              ; ---------------------------------
1698  04B9              _game_solar_ray:
1699  04B9  0E 00       	ld	c,0x00
1700  04BB  3A 00 00    	ld	a,(_col)
1701  04BE  D6 17       	sub	a,0x17
1702  04C0  20 06       	jr	NZ,l_game_solar_ray_00110
1703  04C2  21 00 00    	ld	hl,_lin
1704  04C5  4E          	ld	c, (hl)
1705  04C6  18 25       	jr	l_game_solar_ray_00111
1706  04C8              l_game_solar_ray_00110:
1707  04C8  3A 01 00    	ld	a, (_col + 1)
1708  04CB  D6 17       	sub	a,0x17
1709  04CD  20 06       	jr	NZ,l_game_solar_ray_00107
1710  04CF  21 01 00    	ld	hl,+(_lin + 0x0001)
1711  04D2  4E          	ld	c, (hl)
1712  04D3  18 18       	jr	l_game_solar_ray_00111
1713  04D5              l_game_solar_ray_00107:
1714  04D5  3A 04 00    	ld	a, (_col + 4)
1715  04D8  D6 17       	sub	a,0x17
1716  04DA  20 06       	jr	NZ,l_game_solar_ray_00104
1717  04DC  21 04 00    	ld	hl,+(_lin + 0x0004)
1718  04DF  4E          	ld	c, (hl)
1719  04E0  18 0B       	jr	l_game_solar_ray_00111
1720  04E2              l_game_solar_ray_00104:
1721  04E2  3A 06 00    	ld	a, (_col + 6)
1722  04E5  D6 17       	sub	a,0x17
1723  04E7  20 04       	jr	NZ,l_game_solar_ray_00111
1724  04E9  21 06 00    	ld	hl,+(_lin + 0x0006)
1725  04EC  4E          	ld	c, (hl)
1726  04ED              l_game_solar_ray_00111:
1727  04ED  79          	ld	a, c
1728  04EE  B7          	or	a, a
1729  04EF  20 2D       	jr	NZ,l_game_solar_ray_00116
1730  04F1  3A 00 00    	ld	a,(_g_ray1)
1731  04F4  B7          	or	a, a
1732  04F5  28 27       	jr	Z,l_game_solar_ray_00116
1733  04F7  C5          	push	bc
1734  04F8  CD E3 05    	call	_game_solar_ray0
1735  04FB  C1          	pop	bc
1736  04FC  21 00 00    	ld	hl,_g_ray1
1737  04FF  36 00       	ld	(hl),0x00
1738  0501  06 18       	ld	b,0x18
1739  0503              l_game_solar_ray_00112:
1740  0503  78          	ld	a, b
1741  0504  D6 80       	sub	a,0x80
1742  0506  30 16       	jr	NC,l_game_solar_ray_00116
1743  0508  C5          	push	bc
1744  0509  3E 17       	ld	a,0x17
1745  050B  48          	ld	c,b
1746  050C  47          	ld	b,a
1747  050D  C5          	push	bc
1748  050E  3E 11       	ld	a,0x11
1749  0510  F5          	push	af
1750  0511  33          	inc	sp
1751  0512  CD 00 00    	call	_spr_draw8
1752  0515  F1          	pop	af
1753  0516  33          	inc	sp
1754  0517  C1          	pop	bc
1755  0518  78          	ld	a, b
1756  0519  C6 08       	add	a,0x08
1757  051B  47          	ld	b, a
1758  051C  18 E5       	jr	l_game_solar_ray_00112
1759  051E              l_game_solar_ray_00116:
1760  051E  79          	ld	a, c
1761  051F  B7          	or	a, a
1762  0520  28 41       	jr	Z,l_game_solar_ray_00127
1763  0522  21 00 00    	ld	hl,_g_ray1
1764  0525  7E          	ld	a, (hl)
1765  0526  B7          	or	a, a
1766  0527  20 3A       	jr	NZ,l_game_solar_ray_00127
1767  0529  71          	ld	(hl), c
1768  052A  16 18       	ld	d,0x18
1769  052C              l_game_solar_ray_00118:
1770  052C  7A          	ld	a, d
1771  052D  C6 08       	add	a,0x08
1772  052F  47          	ld	b, a
1773  0530  7A          	ld	a, d
1774  0531  91          	sub	a, c
1775  0532  30 11       	jr	NC,l_game_solar_ray_00120
1776  0534  C5          	push	bc
1777  0535  3E 17       	ld	a,0x17
1778  0537  F5          	push	af
1779  0538  33          	inc	sp
1780  0539  1E 11       	ld	e,0x11
1781  053B  D5          	push	de
1782  053C  CD 00 00    	call	_spr_draw8
1783  053F  F1          	pop	af
1784  0540  33          	inc	sp
1785  0541  C1          	pop	bc
1786  0542  50          	ld	d, b
1787  0543  18 E7       	jr	l_game_solar_ray_00118
1788  0545              l_game_solar_ray_00120:
1789  0545  C5          	push	bc
1790  0546  CD 64 05    	call	_game_solar_ray1
1791  0549  C1          	pop	bc
1792  054A              l_game_solar_ray_00121:
1793  054A  78          	ld	a, b
1794  054B  D6 80       	sub	a,0x80
1795  054D  D0          	ret	NC
1796  054E  C5          	push	bc
1797  054F  3E 17       	ld	a,0x17
1798  0551  48          	ld	c,b
1799  0552  47          	ld	b,a
1800  0553  C5          	push	bc
1801  0554  AF          	xor	a, a
1802  0555  F5          	push	af
1803  0556  33          	inc	sp
1804  0557  CD 00 00    	call	_spr_draw8
1805  055A  F1          	pop	af
1806  055B  33          	inc	sp
1807  055C  C1          	pop	bc
1808  055D  78          	ld	a, b
1809  055E  C6 08       	add	a,0x08
1810  0560  47          	ld	b, a
1811  0561  18 E7       	jr	l_game_solar_ray_00121
1812  0563              l_game_solar_ray_00127:
1813  0563  C9          	ret
1814  0564              	SECTION code_compiler
1815  0564              ;	---------------------------------
1816  0564              ; Function game_solar_ray1
1817  0564              ; ---------------------------------
1818  0564              _game_solar_ray1:
1819  0564  0E 16       	ld	c,0x16
1820  0566  3A 00 00    	ld	a,(_g_ray1)
1821  0569  C6 08       	add	a,0x08
1822  056B  47          	ld	b, a
1823  056C  76          	halt
1824  056D              l_game_solar_ray1_00111:
1825  056D  79          	ld	a, c
1826  056E  B7          	or	a, a
1827  056F  28 71       	jr	Z,l_game_solar_ray1_00114
1828  0571  C5          	push	bc
1829  0572  79          	ld	a, c
1830  0573  48          	ld	c,b
1831  0574  47          	ld	b,a
1832  0575  C5          	push	bc
1833  0576  3E 10       	ld	a,0x10
1834  0578  F5          	push	af
1835  0579  33          	inc	sp
1836  057A  CD 00 00    	call	_spr_draw8
1837  057D  F1          	pop	af
1838  057E  33          	inc	sp
1839  057F  C1          	pop	bc
1840  0580  3A 00 00    	ld	a,(_g_ray1)
1841  0583  5F          	ld	e,a
1842  0584  16 00       	ld	d,0x00
1843  0586  79          	ld	a,c
1844  0587  FE 07       	cp	a,0x07
1845  0589  28 3C       	jr	Z,l_game_solar_ray1_00107
1846  058B  FE 0D       	cp	a,0x0d
1847  058D  28 1E       	jr	Z,l_game_solar_ray1_00104
1848  058F  D6 12       	sub	a,0x12
1849  0591  20 4C       	jr	NZ,l_game_solar_ray1_00110
1850  0593  2A 05 00    	ld	hl,(_lin + 5)
1851  0596  AF          	xor	a,a
1852  0597  67          	ld	h,a
1853  0598  ED 52       	sbc	hl,de
1854  059A  CD 00 00    	call	_abs_fastcall
1855  059D  EB          	ex	de,hl
1856  059E  7B          	ld	a, e
1857  059F  D6 10       	sub	a,0x10
1858  05A1  7A          	ld	a, d
1859  05A2  17          	rla
1860  05A3  3F          	ccf
1861  05A4  1F          	rra
1862  05A5  DE 80       	sbc	a,0x80
1863  05A7  30 36       	jr	NC,l_game_solar_ray1_00110
1864  05A9  0E 01       	ld	c,0x01
1865  05AB  18 32       	jr	l_game_solar_ray1_00110
1866  05AD              l_game_solar_ray1_00104:
1867  05AD  2A 02 00    	ld	hl,(_lin + 2)
1868  05B0  AF          	xor	a,a
1869  05B1  67          	ld	h,a
1870  05B2  ED 52       	sbc	hl,de
1871  05B4  CD 00 00    	call	_abs_fastcall
1872  05B7  EB          	ex	de,hl
1873  05B8  7B          	ld	a, e
1874  05B9  D6 10       	sub	a,0x10
1875  05BB  7A          	ld	a, d
1876  05BC  17          	rla
1877  05BD  3F          	ccf
1878  05BE  1F          	rra
1879  05BF  DE 80       	sbc	a,0x80
1880  05C1  30 1C       	jr	NC,l_game_solar_ray1_00110
1881  05C3  0E 01       	ld	c,0x01
1882  05C5  18 18       	jr	l_game_solar_ray1_00110
1883  05C7              l_game_solar_ray1_00107:
1884  05C7  2A 03 00    	ld	hl,(_lin + 3)
1885  05CA  AF          	xor	a,a
1886  05CB  67          	ld	h,a
1887  05CC  ED 52       	sbc	hl,de
1888  05CE  CD 00 00    	call	_abs_fastcall
1889  05D1  EB          	ex	de,hl
1890  05D2  7B          	ld	a, e
1891  05D3  D6 10       	sub	a,0x10
1892  05D5  7A          	ld	a, d
1893  05D6  17          	rla
1894  05D7  3F          	ccf
1895  05D8  1F          	rra
1896  05D9  DE 80       	sbc	a,0x80
1897  05DB  30 02       	jr	NC,l_game_solar_ray1_00110
1898  05DD  0E 01       	ld	c,0x01
1899  05DF              l_game_solar_ray1_00110:
1900  05DF  0D          	dec	c
1901  05E0  18 8B       	jr	l_game_solar_ray1_00111
1902  05E2              l_game_solar_ray1_00114:
1903  05E2  C9          	ret
1904  05E3              	SECTION code_compiler
1905  05E3              ;	---------------------------------
1906  05E3              ; Function game_solar_ray0
1907  05E3              ; ---------------------------------
1908  05E3              _game_solar_ray0:
1909  05E3  06 16       	ld	b,0x16
1910  05E5              l_game_solar_ray0_00101:
1911  05E5  78          	ld	a, b
1912  05E6  B7          	or	a, a
1913  05E7  C8          	ret	Z
1914  05E8  3A 00 00    	ld	a,(_g_ray1)
1915  05EB  C6 08       	add	a,0x08
1916  05ED  57          	ld	d, a
1917  05EE  C5          	push	bc
1918  05EF  4A          	ld	c, d
1919  05F0  C5          	push	bc
1920  05F1  AF          	xor	a, a
1921  05F2  F5          	push	af
1922  05F3  33          	inc	sp
1923  05F4  CD 00 00    	call	_spr_draw8
1924  05F7  F1          	pop	af
1925  05F8  33          	inc	sp
1926  05F9  C1          	pop	bc
1927  05FA  05          	dec	b
1928  05FB  18 E8       	jr	l_game_solar_ray0_00101
1929  05FD              	SECTION code_compiler
1930  05FD              ;	---------------------------------
1931  05FD              ; Function game_logo1
1932  05FD              ; ---------------------------------
1933  05FD              _game_logo1:
1934  05FD  CD 00 00    	call	___sdcc_enter_ix
1935  0600  F5          	push	af
1936  0601  DD 5E 08    	ld	e,(ix+8)
1937  0604  DD 66 07    	ld	h,(ix+7)
1938  0607  2E 00       	ld	l,0x00
1939  0609  55          	ld	d, l
1940  060A  06 08       	ld	b,0x08
1941  060C              l_game_logo1_00165:
1942  060C  29          	add	hl, hl
1943  060D  30 01       	jr	NC,l_game_logo1_00166
1944  060F  19          	add	hl, de
1945  0610              l_game_logo1_00166:
1946  0610  10 FA       	djnz	l_game_logo1_00165
1947  0612  4D          	ld	c, l
1948  0613  44          	ld	b, h
1949  0614  76          	halt
1950  0615  F3          	di
1951  0616  16 00       	ld	d,0x00
1952  0618              l_game_logo1_00101:
1953  0618  7A          	ld	a, d
1954  0619  D6 08       	sub	a,0x08
1955  061B  30 12       	jr	NC,l_game_logo1_00103
1956  061D  C5          	push	bc
1957  061E  D5          	push	de
1958  061F  21 00 00    	ld	hl,0x0000
1959  0622  E5          	push	hl
1960  0623  AF          	xor	a, a
1961  0624  5A          	ld	e,d
1962  0625  57          	ld	d,a
1963  0626  D5          	push	de
1964  0627  CD 00 00    	call	_NIRVANAP_spriteT_callee
1965  062A  D1          	pop	de
1966  062B  C1          	pop	bc
1967  062C  14          	inc	d
1968  062D  18 E9       	jr	l_game_logo1_00101
1969  062F              l_game_logo1_00103:
1970  062F  DD 7E 04    	ld	a,(ix+4)
1971  0632  B7          	or	a, a
1972  0633  28 5E       	jr	Z,l_game_logo1_00111
1973  0635  3D          	dec	a
1974  0636  28 1E       	jr	Z,l_game_logo1_00104
1975  0638  DD 7E 04    	ld	a,(ix+4)
1976  063B  D6 02       	sub	a,0x02
1977  063D  28 1C       	jr	Z,l_game_logo1_00105
1978  063F  DD 7E 04    	ld	a,(ix+4)
1979  0642  D6 03       	sub	a,0x03
1980  0644  28 1A       	jr	Z,l_game_logo1_00106
1981  0646  DD 7E 04    	ld	a,(ix+4)
1982  0649  D6 04       	sub	a,0x04
1983  064B  28 18       	jr	Z,l_game_logo1_00107
1984  064D  DD 7E 04    	ld	a,(ix+4)
1985  0650  D6 05       	sub	a,0x05
1986  0652  28 16       	jr	Z,l_game_logo1_00108
1987  0654  18 17       	jr	l_game_logo1_00109
1988  0656              l_game_logo1_00104:
1989  0656  11 00 00    	ld	de,_logo1+0
1990  0659  18 12       	jr	l_game_logo1_00109
1991  065B              l_game_logo1_00105:
1992  065B  11 00 00    	ld	de,_logo2
1993  065E  18 0D       	jr	l_game_logo1_00109
1994  0660              l_game_logo1_00106:
1995  0660  11 00 00    	ld	de,_cartoon0
1996  0663  18 08       	jr	l_game_logo1_00109
1997  0665              l_game_logo1_00107:
1998  0665  11 00 00    	ld	de,_cartoon1
1999  0668  18 03       	jr	l_game_logo1_00109
2000  066A              l_game_logo1_00108:
2001  066A  11 00 00    	ld	de,_cartoon2
2002  066D              l_game_logo1_00109:
2003  066D  C5          	push	bc
2004  066E  D5          	push	de
2005  066F  3E 01       	ld	a,0x01
2006  0671  F5          	push	af
2007  0672  33          	inc	sp
2008  0673  CD 13 13    	call	_page
2009  0676  33          	inc	sp
2010  0677  D1          	pop	de
2011  0678  E1          	pop	hl
2012  0679  4D          	ld	c,l
2013  067A  44          	ld	b,h
2014  067B  29          	add	hl, hl
2015  067C  09          	add	hl, bc
2016  067D  29          	add	hl, hl
2017  067E  29          	add	hl, hl
2018  067F  29          	add	hl, hl
2019  0680  29          	add	hl, hl
2020  0681  C5          	push	bc
2021  0682  E5          	push	hl
2022  0683  D5          	push	de
2023  0684  21 00 00    	ld	hl,_btiles
2024  0687  E5          	push	hl
2025  0688  CD 00 00    	call	_memcpy_callee
2026  068B  AF          	xor	a, a
2027  068C  F5          	push	af
2028  068D  33          	inc	sp
2029  068E  CD 13 13    	call	_page
2030  0691  33          	inc	sp
2031  0692  C1          	pop	bc
2032  0693              l_game_logo1_00111:
2033  0693  DD 5E 06    	ld	e,(ix+6)
2034  0696  21 00 00    	ld	hl,_s_col1
2035  0699  73          	ld	(hl), e
2036  069A  DD 7E 05    	ld	a,(ix+5)
2037  069D  32 00 00    	ld	(_s_lin1),a
2038  06A0  16 00       	ld	d,0x00
2039  06A2              l_game_logo1_00114:
2040  06A2  6A          	ld	l, d
2041  06A3  AF          	xor	a,a
2042  06A4  67          	ld	h,a
2043  06A5  ED 42       	sbc	hl,bc
2044  06A7  30 36       	jr	NC,l_game_logo1_00116
2045  06A9  3A 00 00    	ld	a,(_s_col1)
2046  06AC  87          	add	a, a
2047  06AD  C5          	push	bc
2048  06AE  D5          	push	de
2049  06AF  F5          	push	af
2050  06B0  33          	inc	sp
2051  06B1  3A 00 00    	ld	a,(_s_lin1)
2052  06B4  5A          	ld	e,d
2053  06B5  57          	ld	d,a
2054  06B6  D5          	push	de
2055  06B7  CD 00 00    	call	_NIRVANAP_drawT_raw_callee
2056  06BA  D1          	pop	de
2057  06BB  C1          	pop	bc
2058  06BC  14          	inc	d
2059  06BD  21 00 00    	ld	hl,_s_col1
2060  06C0  34          	inc	(hl)
2061  06C1  C5          	push	bc
2062  06C2  D5          	push	de
2063  06C3  DD 7E 07    	ld	a,(ix+7)
2064  06C6  5A          	ld	e,d
2065  06C7  57          	ld	d,a
2066  06C8  D5          	push	de
2067  06C9  CD 00 00    	call	__moduchar_callee
2068  06CC  D1          	pop	de
2069  06CD  C1          	pop	bc
2070  06CE  7D          	ld	a,l
2071  06CF  B7          	or	a, a
2072  06D0  20 D0       	jr	NZ,l_game_logo1_00114
2073  06D2  21 00 00    	ld	hl,_s_lin1
2074  06D5  7E          	ld	a, (hl)
2075  06D6  C6 10       	add	a,0x10
2076  06D8  77          	ld	(hl), a
2077  06D9  21 00 00    	ld	hl,_s_col1
2078  06DC  73          	ld	(hl), e
2079  06DD  18 C3       	jr	l_game_logo1_00114
2080  06DF              l_game_logo1_00116:
2081  06DF  FB          	ei
2082  06E0  F1          	pop	af
2083  06E1  DD E1       	pop	ix
2084  06E3  C9          	ret
2085  06E4              	SECTION code_compiler
2086  06E4              ;	---------------------------------
2087  06E4              ; Function game_img1
2088  06E4              ; ---------------------------------
2089  06E4              _game_img1:
2090  06E4  21 00 00    	ld	hl,_v0
2091  06E7  36 10       	ld	(hl),0x10
2092  06E9  3E 00       	ld	a,0x00
2093  06EB  32 00 00    	ld	(_v1),a
2094  06EE  4F          	ld	c,a
2095  06EF              l_game_img1_00104:
2096  06EF  79          	ld	a, c
2097  06F0  D6 40       	sub	a,0x40
2098  06F2  30 5A       	jr	NC,l_game_img1_00107
2099  06F4  06 00       	ld	b,0x00
2100  06F6  69          	ld	l, c
2101  06F7  60          	ld	h, b
2102  06F8  29          	add	hl, hl
2103  06F9  09          	add	hl, bc
2104  06FA  29          	add	hl, hl
2105  06FB  29          	add	hl, hl
2106  06FC  29          	add	hl, hl
2107  06FD  29          	add	hl, hl
2108  06FE  EB          	ex	de,hl
2109  06FF  76          	halt
2110  0700  21 00 00    	ld	hl,_img1
2111  0703  19          	add	hl,de
2112  0704  C5          	push	bc
2113  0705  E5          	push	hl
2114  0706  3E 01       	ld	a,0x01
2115  0708  F5          	push	af
2116  0709  33          	inc	sp
2117  070A  CD 13 13    	call	_page
2118  070D  33          	inc	sp
2119  070E  D1          	pop	de
2120  070F  C1          	pop	bc
2121  0710  21 00 12    	ld	hl, +(_btiles + 0x1200)
2122  0713  C5          	push	bc
2123  0714  EB          	ex	de, hl
2124  0715  01 30 00    	ld	bc,0x0030
2125  0718  ED B0       	ldir
2126  071A  AF          	xor	a, a
2127  071B  F5          	push	af
2128  071C  33          	inc	sp
2129  071D  CD 13 13    	call	_page
2130  0720  33          	inc	sp
2131  0721  3A 00 00    	ld	a,(_v1)
2132  0724  F5          	push	af
2133  0725  33          	inc	sp
2134  0726  3A 00 00    	ld	a,(_v0)
2135  0729  57          	ld	d,a
2136  072A  1E 60       	ld	e,0x60
2137  072C  D5          	push	de
2138  072D  CD 00 00    	call	_NIRVANAP_drawT_raw_callee
2139  0730  C1          	pop	bc
2140  0731  3A 00 00    	ld	a,(_v1)
2141  0734  D6 1E       	sub	a,0x1e
2142  0736  20 0E       	jr	NZ,l_game_img1_00102
2143  0738  21 00 00    	ld	hl,_v0
2144  073B  7E          	ld	a, (hl)
2145  073C  C6 10       	add	a,0x10
2146  073E  77          	ld	(hl), a
2147  073F  21 00 00    	ld	hl,_v1
2148  0742  36 00       	ld	(hl),0x00
2149  0744  18 05       	jr	l_game_img1_00103
2150  0746              l_game_img1_00102:
2151  0746  21 00 00    	ld	hl,_v1
2152  0749  34          	inc	(hl)
2153  074A  34          	inc	(hl)
2154  074B              l_game_img1_00103:
2155  074B  0C          	inc	c
2156  074C  18 A1       	jr	l_game_img1_00104
2157  074E              l_game_img1_00107:
2158  074E  C9          	ret
2159  074F              	SECTION code_compiler
2160  074F              ;	---------------------------------
2161  074F              ; Function game_cell_paint_index
2162  074F              ; ---------------------------------
2163  074F              _game_cell_paint_index:
2164  074F  3A 00 00    	ld	a,(_index1)
2165  0752  E6 1F       	and	a,0x1f
2166  0754  32 00 00    	ld	(_s_col1),a
2167  0757  2A 00 00    	ld	hl,(_index1)
2168  075A  4D          	ld	c,l
2169  075B  5C          	ld	e,h
2170  075C  06 05       	ld	b,0x05
2171  075E  79          	ld	a,c
2172  075F              l_game_cell_paint_index_00103:
2173  075F  CB 3B       	srl	e
2174  0761  1F          	rra
2175  0762  10 FB       	djnz	l_game_cell_paint_index_00103
2176  0764  07          	rlca
2177  0765  07          	rlca
2178  0766  07          	rlca
2179  0767  E6 F8       	and	a,0xf8
2180  0769  32 00 00    	ld	(_s_lin1),a
2181  076C  0F          	rrca
2182  076D  0F          	rrca
2183  076E  0F          	rrca
2184  076F  E6 1F       	and	a,0x1f
2185  0771  3C          	inc	a
2186  0772  32 00 00    	ld	(_s_row1),a
2187  0775  21 00 00    	ld	hl,_s_lin1
2188  0778  7E          	ld	a, (hl)
2189  0779  C6 10       	add	a,0x10
2190  077B  77          	ld	(hl), a
2191  077C  3A 00 00    	ld	a,(_s_row1)
2192  077F  07          	rlca
2193  0780  07          	rlca
2194  0781  07          	rlca
2195  0782  E6 F8       	and	a,0xf8
2196  0784  47          	ld	b, a
2197  0785  11 00 00    	ld	de,_scr_map
2198  0788  2A 00 00    	ld	hl,(_index1)
2199  078B  19          	add	hl,de
2200  078C  66          	ld	h, (hl)
2201  078D  3A 00 00    	ld	a,(_s_col1)
2202  0790  EB          	ex	de,hl
2203  0791  F5          	push	af
2204  0792  33          	inc	sp
2205  0793  4A          	ld	c, d
2206  0794  C5          	push	bc
2207  0795  CD 00 00    	call	_spr_draw8
2208  0798  F1          	pop	af
2209  0799  33          	inc	sp
2210  079A  C9          	ret
2211  079B              	SECTION code_compiler
2212  079B              ;	---------------------------------
2213  079B              ; Function game_cell_paint
2214  079B              ; ---------------------------------
2215  079B              _game_cell_paint:
2216  079B  3A 00 00    	ld	a,(_s_row1)
2217  079E  07          	rlca
2218  079F  07          	rlca
2219  07A0  07          	rlca
2220  07A1  E6 F8       	and	a,0xf8
2221  07A3  57          	ld	d, a
2222  07A4  01 00 00    	ld	bc,_scr_map
2223  07A7  2A 00 00    	ld	hl,(_index1)
2224  07AA  09          	add	hl,bc
2225  07AB  4D          	ld	c,l
2226  07AC  46          	ld	b, (hl)
2227  07AD  3A 00 00    	ld	a,(_s_col1)
2228  07B0  5A          	ld	e,d
2229  07B1  57          	ld	d,a
2230  07B2  D5          	push	de
2231  07B3  C5          	push	bc
2232  07B4  33          	inc	sp
2233  07B5  CD 00 00    	call	_spr_draw8
2234  07B8  F1          	pop	af
2235  07B9  33          	inc	sp
2236  07BA  C9          	ret
2237  07BB              	SECTION code_compiler
2238  07BB              ;	---------------------------------
2239  07BB              ; Function game_end is a stub
2240  07BB              ; ---------------------------------
2241  07BB              EXTERN l_ret
2242  07BB              defc _game_end = l_ret
2243  07BB              	SECTION code_compiler
2244  07BB              ;	---------------------------------
2245  07BB              ; Function game_print_footer
2246  07BB              ; ---------------------------------
2247  07BB              _game_print_footer:
2248  07BB  3A 00 00    	ld	a,(_game_debug)
2249  07BE  B7          	or	a, a
2250  07BF  C8          	ret	Z
2251  07C0  21 00 00    	ld	hl,_screen_ink
2252  07C3  36 07       	ld	(hl),0x07
2253  07C5  21 15 00    	ld	hl,___str_6
2254  07C8  E5          	push	hl
2255  07C9  21 17 14    	ld	hl,0x1417
2256  07CC  E5          	push	hl
2257  07CD  CD 00 00    	call	_zx_print_str
2258  07D0  C9          	ret
2259  07D1              	SECTION rodata_compiler
2260  0015              ___str_6:
2261  0015  4C 50 53 3A 	DEFM "LPS:"
2262  0019  00          	DEFB 0x00
2263  001A              	SECTION code_compiler
2264  07D1              ;	---------------------------------
2265  07D1              ; Function game_print_score
2266  07D1              ; ---------------------------------
2267  07D1              _game_print_score:
2268  07D1  21 00 00    	ld	hl,_screen_ink
2269  07D4  36 06       	ld	(hl),0x06
2270  07D6  21 00 00    	ld	hl,_screen_paper
2271  07D9  36 00       	ld	(hl),0x00
2272  07DB  2A 00 00    	ld	hl,(_player_score)
2273  07DE  E5          	push	hl
2274  07DF  21 14 1B    	ld	hl,0x1b14
2275  07E2  E5          	push	hl
2276  07E3  CD 00 00    	call	_zx_print_int
2277  07E6  2A 00 00    	ld	hl,(_game_score_top)
2278  07E9  E5          	push	hl
2279  07EA  21 14 0C    	ld	hl,0x0c14
2280  07ED  E5          	push	hl
2281  07EE  CD 00 00    	call	_zx_print_int
2282  07F1  C9          	ret
2283  07F2              	SECTION code_compiler
2284  07F2              ;	---------------------------------
2285  07F2              ; Function game_print_lives
2286  07F2              ; ---------------------------------
2287  07F2              _game_print_lives:
2288  07F2  21 00 00    	ld	hl,_v0
2289  07F5  36 00       	ld	(hl),0x00
2290  07F7  21 16 20    	ld	hl,0x2016
2291  07FA  E5          	push	hl
2292  07FB  CD 00 00    	call	_game_fill_row
2293  07FE  3E 0A       	ld	a,0x0a
2294  0800  21 00 00    	ld	hl,_player_lives
2295  0803  96          	sub	a, (hl)
2296  0804  38 30       	jr	C,l_game_print_lives_00105
2297  0806              l_game_print_lives_00101:
2298  0806  3A 00 00    	ld	a,(_player_lives)
2299  0809  4F          	ld	c,a
2300  080A  06 00       	ld	b,0x00
2301  080C  0B          	dec	bc
2302  080D  3A 00 00    	ld	a,(_v0)
2303  0810  16 00       	ld	d,0x00
2304  0812  91          	sub	a, c
2305  0813  7A          	ld	a, d
2306  0814  98          	sbc	a, b
2307  0815  E2 1A 08    	jp	PO, l_game_print_lives_00120
2308  0818  EE 80       	xor	a,0x80
2309  081A              l_game_print_lives_00120:
2310  081A  F2 52 08    	jp	P, l_game_print_lives_00107
2311  081D  21 00 00    	ld	hl,_screen_ink
2312  0820  36 05       	ld	(hl),0x05
2313  0822  3A 00 00    	ld	a,(_v0)
2314  0825  21 1A 00    	ld	hl,___str_7
2315  0828  E5          	push	hl
2316  0829  57          	ld	d,a
2317  082A  1E 16       	ld	e,0x16
2318  082C  D5          	push	de
2319  082D  CD 00 00    	call	_zx_print_str
2320  0830  21 00 00    	ld	hl,_v0
2321  0833  34          	inc	(hl)
2322  0834  18 D0       	jr	l_game_print_lives_00101
2323  0836              l_game_print_lives_00105:
2324  0836  21 00 00    	ld	hl,_screen_ink
2325  0839  36 05       	ld	(hl),0x05
2326  083B  21 1C 00    	ld	hl,___str_8
2327  083E  E5          	push	hl
2328  083F  21 16 00    	ld	hl,0x0016
2329  0842  E5          	push	hl
2330  0843  CD 00 00    	call	_zx_print_str
2331  0846  3A 00 00    	ld	a,(_player_lives)
2332  0849  F5          	push	af
2333  084A  33          	inc	sp
2334  084B  21 16 04    	ld	hl,0x0416
2335  084E  E5          	push	hl
2336  084F  CD 00 00    	call	_zx_print_chr
2337  0852              l_game_print_lives_00107:
2338  0852  C9          	ret
2339  0853              	SECTION rodata_compiler
2340  001A              ___str_7:
2341  001A  3C          	DEFM "<"
2342  001B  00          	DEFB 0x00
2343  001C              	SECTION rodata_compiler
2344  001C              ___str_8:
2345  001C  3C 20 78    	DEFM "< x"
2346  001F  00          	DEFB 0x00
2347  0020              	SECTION code_compiler
2348  0853              ;	---------------------------------
2349  0853              ; Function game_cls
2350  0853              ; ---------------------------------
2351  0853              _game_cls:
2352  0853  CD 00 00    	call	_NIRVANAP_stop
2353  0856  F3          	di
2354  0857  2E 00       	ld	l,0x00
2355  0859  CD 00 00    	call	_zx_cls_fastcall
2356  085C  2E 00       	ld	l,0x00
2357  085E  CD 00 00    	call	_zx_border_fastcall
2358  0861  21 00 00    	ld	hl,_v0
2359  0864  36 00       	ld	(hl),0x00
2360  0866              l_game_cls_00104:
2361  0866  3E 08       	ld	a,0x08
2362  0868  21 00 00    	ld	hl,_v0
2363  086B  96          	sub	a, (hl)
2364  086C  38 32       	jr	C,l_game_cls_00106
2365  086E  21 00 00    	ld	hl,_v1
2366  0871  36 00       	ld	(hl),0x00
2367  0873              l_game_cls_00101:
2368  0873  3A 00 00    	ld	a,(_v1)
2369  0876  D6 1F       	sub	a,0x1f
2370  0878  30 20       	jr	NC,l_game_cls_00103
2371  087A  3A 00 00    	ld	a,(_v0)
2372  087D  07          	rlca
2373  087E  07          	rlca
2374  087F  07          	rlca
2375  0880  07          	rlca
2376  0881  E6 F0       	and	a,0xf0
2377  0883  C6 08       	add	a,0x08
2378  0885  47          	ld	b, a
2379  0886  3A 00 00    	ld	a,(_v1)
2380  0889  48          	ld	c,b
2381  088A  47          	ld	b,a
2382  088B  C5          	push	bc
2383  088C  3E 5E       	ld	a,0x5e
2384  088E  F5          	push	af
2385  088F  33          	inc	sp
2386  0890  CD 00 00    	call	_NIRVANAP_drawT_raw_callee
2387  0893  21 00 00    	ld	hl,_v1
2388  0896  34          	inc	(hl)
2389  0897  34          	inc	(hl)
2390  0898  18 D9       	jr	l_game_cls_00101
2391  089A              l_game_cls_00103:
2392  089A  21 00 00    	ld	hl,_v0
2393  089D  34          	inc	(hl)
2394  089E  18 C6       	jr	l_game_cls_00104
2395  08A0              l_game_cls_00106:
2396  08A0  FB          	ei
2397  08A1  CD 00 00    	call	_NIRVANAP_start
2398  08A4  21 00 00    	ld	hl,_v0
2399  08A7  36 00       	ld	(hl),0x00
2400  08A9              l_game_cls_00107:
2401  08A9  3E 07       	ld	a,0x07
2402  08AB  21 00 00    	ld	hl,_v0
2403  08AE  96          	sub	a, (hl)
2404  08AF  D8          	ret	C
2405  08B0  21 00 00    	ld	hl,0x0000
2406  08B3  E5          	push	hl
2407  08B4  2A 00 00    	ld	hl,(_v0)
2408  08B7  26 5E       	ld	h,0x5e
2409  08B9  E5          	push	hl
2410  08BA  CD 00 00    	call	_NIRVANAP_spriteT_callee
2411  08BD  21 00 00    	ld	hl,_v0
2412  08C0  34          	inc	(hl)
2413  08C1  18 E6       	jr	l_game_cls_00107
2414  08C3              	SECTION code_compiler
2415  08C3              ;	---------------------------------
2416  08C3              ; Function game_start_timer
2417  08C3              ; ---------------------------------
2418  08C3              _game_start_timer:
2419  08C3  21 00 00    	ld	hl,_NIRVANAP_ISR_HOOK+0
2420  08C6  36 CD       	ld	(hl),0xcd
2421  08C8  23          	inc	hl
2422  08C9  11 00 00    	ld	de,_game_tick
2423  08CC  73          	ld	(hl), e
2424  08CD  23          	inc	hl
2425  08CE  72          	ld	(hl), d
2426  08CF  C9          	ret
2427  08D0              	SECTION code_compiler
2428  08D0              ;	---------------------------------
2429  08D0              ; Function game_anim_air
2430  08D0              ; ---------------------------------
2431  08D0              _game_anim_air:
2432  08D0  2A 00 00    	ld	hl,(_air_curr_byte)
2433  08D3  7E          	ld	a,(hl)
2434  08D4  B7          	or	a,a
2435  08D5  20 35       	jr	NZ,l_game_anim_air_00108
2436  08D7  ED 4B 00 00 	ld	bc,(_air_curr_byte)
2437  08DB  ED 5B 00 00 	ld	de,(_air_end_byte)
2438  08DF  7B          	ld	a,e
2439  08E0  91          	sub	a,c
2440  08E1  7A          	ld	a,d
2441  08E2  98          	sbc	a,b
2442  08E3  30 20       	jr	NC,l_game_anim_air_00105
2443  08E5  2A 00 00    	ld	hl,(_air_curr_byte)
2444  08E8  2B          	dec	hl
2445  08E9  22 00 00    	ld	(_air_curr_byte),hl
2446  08EC  3A 00 00    	ld	a,(_game_round_up)
2447  08EF  B7          	or	a,a
2448  08F0  20 1A       	jr	NZ,l_game_anim_air_00108
2449  08F2  ED 4B 00 00 	ld	bc,(_air_curr_byte)
2450  08F6  79          	ld	a,c
2451  08F7  D6 49       	sub	a,0x49
2452  08F9  20 11       	jr	NZ,l_game_anim_air_00108
2453  08FB  78          	ld	a, b
2454  08FC  D6 52       	sub	a,0x52
2455  08FE  20 0C       	jr	NZ,l_game_anim_air_00108
2456  0900  CD 00 00    	call	_audio_time
2457  0903  18 07       	jr	l_game_anim_air_00108
2458  0905              l_game_anim_air_00105:
2459  0905  01 08 00    	ld	bc,_state+8
2460  0908  0A          	ld	a, (bc)
2461  0909  F6 20       	or	a,0x20
2462  090B  02          	ld	(bc), a
2463  090C              l_game_anim_air_00108:
2464  090C  ED 4B 00 00 	ld	bc,(_air_curr_byte)
2465  0910  0A          	ld	a,(bc)
2466  0911  87          	add	a, a
2467  0912  32 00 00    	ld	(_v0),a
2468  0915  02          	ld	(bc), a
2469  0916  2A 00 00    	ld	hl,(_air_curr_byte)
2470  0919  01 00 01    	ld	bc,0x0100
2471  091C  09          	add	hl,bc
2472  091D  3A 00 00    	ld	a,(_v0)
2473  0920  77          	ld	(hl),a
2474  0921  2A 00 00    	ld	hl,(_air_curr_byte)
2475  0924  01 00 02    	ld	bc,0x0200
2476  0927  09          	add	hl,bc
2477  0928  3A 00 00    	ld	a,(_v0)
2478  092B  77          	ld	(hl),a
2479  092C  2A 00 00    	ld	hl,(_air_curr_byte)
2480  092F  01 00 03    	ld	bc,0x0300
2481  0932  09          	add	hl,bc
2482  0933  3A 00 00    	ld	a,(_v0)
2483  0936  77          	ld	(hl),a
2484  0937  C9          	ret
2485  0938              	SECTION code_compiler
2486  0938              ;	---------------------------------
2487  0938              ; Function game_anim_conveyor
2488  0938              ; ---------------------------------
2489  0938              _game_anim_conveyor:
2490  0938  CD 00 00    	call	___sdcc_enter_ix
2491  093B  F5          	push	af
2492  093C  F5          	push	af
2493  093D  3B          	dec	sp
2494  093E  01 60 00    	ld	bc,_btiles+96
2495  0941  3A 00 00    	ld	a,(_game_conveyor_lin)
2496  0944  32 00 00    	ld	(_i),a
2497  0947  C6 08       	add	a,0x08
2498  0949  DD 77 FB    	ld	(ix-5),a
2499  094C  0A          	ld	a, (bc)
2500  094D  5F          	ld	e, a
2501  094E  3A 00 00    	ld	a,(_game_conveyor_dir)
2502  0951  3D          	dec	a
2503  0952  20 14       	jr	NZ,l_game_anim_conveyor_00102
2504  0954  7B          	ld	a, e
2505  0955  87          	add	a, a
2506  0956  57          	ld	d, a
2507  0957  7B          	ld	a, e
2508  0958  07          	rlca
2509  0959  E6 01       	and	a,0x01
2510  095B  B2          	or	a, d
2511  095C  57          	ld	d,a
2512  095D  02          	ld	(bc),a
2513  095E  87          	add	a, a
2514  095F  5F          	ld	e, a
2515  0960  7A          	ld	a, d
2516  0961  07          	rlca
2517  0962  E6 01       	and	a,0x01
2518  0964  B3          	or	a, e
2519  0965  02          	ld	(bc), a
2520  0966  18 14       	jr	l_game_anim_conveyor_00121
2521  0968              l_game_anim_conveyor_00102:
2522  0968  7B          	ld	a, e
2523  0969  0F          	rrca
2524  096A  E6 80       	and	a,0x80
2525  096C  57          	ld	d, a
2526  096D  CB 3B       	srl	e
2527  096F  7A          	ld	a, d
2528  0970  B3          	or	a, e
2529  0971  57          	ld	d,a
2530  0972  02          	ld	(bc),a
2531  0973  0F          	rrca
2532  0974  E6 80       	and	a,0x80
2533  0976  5F          	ld	e, a
2534  0977  CB 3A       	srl	d
2535  0979  7B          	ld	a, e
2536  097A  B2          	or	a, d
2537  097B  02          	ld	(bc), a
2538  097C              l_game_anim_conveyor_00121:
2539  097C              l_game_anim_conveyor_00112:
2540  097C  3A 00 00    	ld	a,(_i)
2541  097F  DD 96 FB    	sub	a,(ix-5)
2542  0982  D2 0B 0A    	jp	NC, l_game_anim_conveyor_00115
2543  0985  3A 00 00    	ld	a,(_game_conveyor_col0)
2544  0988  DD 77 FC    	ld	(ix-4),a
2545  098B  2A 00 00    	ld	hl,(_i)
2546  098E  CD 00 00    	call	_zx_py2saddr_fastcall
2547  0991  EB          	ex	de,hl
2548  0992  7B          	ld	a, e
2549  0993  DD 86 FC    	add	a,(ix-4)
2550  0996  5F          	ld	e, a
2551  0997  7A          	ld	a, d
2552  0998  CE 00       	adc	a,0x00
2553  099A  57          	ld	d, a
2554  099B  DD 7E FC    	ld	a,(ix-4)
2555  099E  DD 77 FF    	ld	(ix-1),a
2556  09A1              l_game_anim_conveyor_00104:
2557  09A1  DD 7E FF    	ld	a,(ix-1)
2558  09A4  21 00 00    	ld	hl,_game_conveyor_col1
2559  09A7  96          	sub	a, (hl)
2560  09A8  30 08       	jr	NC,l_game_anim_conveyor_00106
2561  09AA  0A          	ld	a, (bc)
2562  09AB  12          	ld	(de), a
2563  09AC  13          	inc	de
2564  09AD  DD 34 FF    	inc	(ix-1)
2565  09B0  18 EF       	jr	l_game_anim_conveyor_00104
2566  09B2              l_game_anim_conveyor_00106:
2567  09B2  03          	inc	bc
2568  09B3  03          	inc	bc
2569  09B4  21 00 00    	ld	hl,_i
2570  09B7  34          	inc	(hl)
2571  09B8  3A 00 00    	ld	a,(_game_conveyor_lin)
2572  09BB  5F          	ld	e,a
2573  09BC  16 00       	ld	d,0x00
2574  09BE  13          	inc	de
2575  09BF  13          	inc	de
2576  09C0  DD 73 FD    	ld	(ix-3),e
2577  09C3  DD 72 FE    	ld	(ix-2),d
2578  09C6  3A 00 00    	ld	a,(_i)
2579  09C9  5F          	ld	e,a
2580  09CA  16 00       	ld	d,0x00
2581  09CC  DD 7E FD    	ld	a,(ix-3)
2582  09CF  93          	sub	a, e
2583  09D0  20 AA       	jr	NZ,l_game_anim_conveyor_00112
2584  09D2  DD 7E FE    	ld	a,(ix-2)
2585  09D5  92          	sub	a, d
2586  09D6  20 A4       	jr	NZ,l_game_anim_conveyor_00112
2587  09D8  0A          	ld	a, (bc)
2588  09D9  5F          	ld	e, a
2589  09DA  3A 00 00    	ld	a,(_game_conveyor_dir)
2590  09DD  3D          	dec	a
2591  09DE  20 16       	jr	NZ,l_game_anim_conveyor_00108
2592  09E0  7B          	ld	a, e
2593  09E1  0F          	rrca
2594  09E2  E6 80       	and	a,0x80
2595  09E4  57          	ld	d, a
2596  09E5  CB 3B       	srl	e
2597  09E7  7A          	ld	a, d
2598  09E8  B3          	or	a, e
2599  09E9  57          	ld	d,a
2600  09EA  02          	ld	(bc),a
2601  09EB  0F          	rrca
2602  09EC  E6 80       	and	a,0x80
2603  09EE  5F          	ld	e, a
2604  09EF  CB 3A       	srl	d
2605  09F1  7B          	ld	a, e
2606  09F2  B2          	or	a, d
2607  09F3  02          	ld	(bc), a
2608  09F4  18 86       	jr	l_game_anim_conveyor_00112
2609  09F6              l_game_anim_conveyor_00108:
2610  09F6  7B          	ld	a, e
2611  09F7  87          	add	a, a
2612  09F8  57          	ld	d, a
2613  09F9  7B          	ld	a, e
2614  09FA  07          	rlca
2615  09FB  E6 01       	and	a,0x01
2616  09FD  B2          	or	a, d
2617  09FE  5F          	ld	e,a
2618  09FF  02          	ld	(bc),a
2619  0A00  87          	add	a, a
2620  0A01  57          	ld	d, a
2621  0A02  7B          	ld	a, e
2622  0A03  07          	rlca
2623  0A04  E6 01       	and	a,0x01
2624  0A06  B2          	or	a, d
2625  0A07  02          	ld	(bc), a
2626  0A08  C3 7C 09    	jp	l_game_anim_conveyor_00112
2627  0A0B              l_game_anim_conveyor_00115:
2628  0A0B  DD F9       	ld	sp, ix
2629  0A0D  DD E1       	pop	ix
2630  0A0F  C9          	ret
2631  0A10              	SECTION code_compiler
2632  0A10              ;	---------------------------------
2633  0A10              ; Function game_round_init
2634  0A10              ; ---------------------------------
2635  0A10              _game_round_init:
2636  0A10  CD 00 00    	call	___sdcc_enter_ix
2637  0A13  21 DB FF    	ld	hl, -37
2638  0A16  39          	add	hl, sp
2639  0A17  F9          	ld	sp, hl
2640  0A18  CD 00 00    	call	_ay_reset
2641  0A1B  2E 00       	ld	l,0x00
2642  0A1D  CD 00 00    	call	_zx_border_fastcall
2643  0A20  21 00 00    	ld	hl,_screen_ink
2644  0A23  36 00       	ld	(hl),0x00
2645  0A25  21 00 20    	ld	hl,0x2000
2646  0A28  E5          	push	hl
2647  0A29  CD 00 00    	call	_game_fill_row
2648  0A2C  21 11 20    	ld	hl,0x2011
2649  0A2F  E5          	push	hl
2650  0A30  CD 00 00    	call	_game_fill_row
2651  0A33  21 12 20    	ld	hl,0x2012
2652  0A36  E5          	push	hl
2653  0A37  CD 00 00    	call	_game_fill_row
2654  0A3A  21 14 20    	ld	hl,0x2014
2655  0A3D  E5          	push	hl
2656  0A3E  CD 00 00    	call	_game_fill_row
2657  0A41  21 16 20    	ld	hl,0x2016
2658  0A44  E5          	push	hl
2659  0A45  CD 00 00    	call	_game_fill_row
2660  0A48  CD 00 00    	call	_spr_clear_scr
2661  0A4B  76          	halt
2662  0A4C  CD 00 00    	call	_NIRVANAP_stop
2663  0A4F  F3          	di
2664  0A50  21 00 00    	ld	hl,_scr_curr
2665  0A53  46          	ld	b, (hl)
2666  0A54  C5          	push	bc
2667  0A55  3E 06       	ld	a,0x06
2668  0A57  F5          	push	af
2669  0A58  33          	inc	sp
2670  0A59  CD 13 13    	call	_page
2671  0A5C  33          	inc	sp
2672  0A5D  C1          	pop	bc
2673  0A5E  11 00 00    	ld	de,_game_borders0+0
2674  0A61  68          	ld	l,b
2675  0A62  26 00       	ld	h,0x00
2676  0A64  19          	add	hl, de
2677  0A65  4E          	ld	c, (hl)
2678  0A66  11 00 00    	ld	de,_map_names0+0
2679  0A69  68          	ld	l, b
2680  0A6A  26 00       	ld	h,0x00
2681  0A6C  29          	add	hl, hl
2682  0A6D  29          	add	hl, hl
2683  0A6E  29          	add	hl, hl
2684  0A6F  29          	add	hl, hl
2685  0A70  29          	add	hl, hl
2686  0A71  19          	add	hl,de
2687  0A72  EB          	ex	de,hl
2688  0A73  21 00 00    	ld	hl,0x0000
2689  0A76  39          	add	hl, sp
2690  0A77  DD 75 FE    	ld	(ix-2),l
2691  0A7A  DD 74 FF    	ld	(ix-1),h
2692  0A7D  C5          	push	bc
2693  0A7E  EB          	ex	de, hl
2694  0A7F  01 20 00    	ld	bc,0x0020
2695  0A82  ED B0       	ldir
2696  0A84  C1          	pop	bc
2697  0A85  78          	ld	a, b
2698  0A86  D6 14       	sub	a,0x14
2699  0A88  3E 00       	ld	a,0x00
2700  0A8A  17          	rla
2701  0A8B  47          	ld	b,a
2702  0A8C  B7          	or	a, a
2703  0A8D  28 05       	jr	Z,l_game_round_init_00102
2704  0A8F  11 00 00    	ld	de,_tile_class1+0
2705  0A92  18 03       	jr	l_game_round_init_00103
2706  0A94              l_game_round_init_00102:
2707  0A94  11 00 00    	ld	de,_tile_class2
2708  0A97              l_game_round_init_00103:
2709  0A97  21 00 00    	ld	hl,_tile_class
2710  0A9A  C5          	push	bc
2711  0A9B  EB          	ex	de, hl
2712  0A9C  01 20 00    	ld	bc,0x0020
2713  0A9F  ED B0       	ldir
2714  0AA1  C1          	pop	bc
2715  0AA2  78          	ld	a, b
2716  0AA3  B7          	or	a, a
2717  0AA4  28 05       	jr	Z,l_game_round_init_00105
2718  0AA6  11 00 00    	ld	de,_spr_init1+0
2719  0AA9  18 03       	jr	l_game_round_init_00106
2720  0AAB              l_game_round_init_00105:
2721  0AAB  11 00 00    	ld	de,_spr_init2
2722  0AAE              l_game_round_init_00106:
2723  0AAE  21 00 00    	ld	hl,_spr_init
2724  0AB1  C5          	push	bc
2725  0AB2  EB          	ex	de, hl
2726  0AB3  01 0E 01    	ld	bc,0x010e
2727  0AB6  ED B0       	ldir
2728  0AB8  AF          	xor	a, a
2729  0AB9  F5          	push	af
2730  0ABA  33          	inc	sp
2731  0ABB  CD 13 13    	call	_page
2732  0ABE  33          	inc	sp
2733  0ABF  C1          	pop	bc
2734  0AC0  DD 7E FE    	ld	a,(ix-2)
2735  0AC3  C6 20       	add	a,0x20
2736  0AC5  5F          	ld	e, a
2737  0AC6  DD 7E FF    	ld	a,(ix-1)
2738  0AC9  CE 00       	adc	a,0x00
2739  0ACB  57          	ld	d, a
2740  0ACC  AF          	xor	a, a
2741  0ACD  12          	ld	(de), a
2742  0ACE  21 00 00    	ld	hl,_map_border
2743  0AD1  71          	ld	(hl), c
2744  0AD2  21 00 00    	ld	hl,0x0000
2745  0AD5  22 00 00    	ld	(_loop_count),hl
2746  0AD8  21 00 00    	ld	hl,0
2747  0ADB  22 00 00    	ld	(_curr_time),hl
2748  0ADE  21 00 00    	ld	hl,0x0000
2749  0AE1  22 00 00    	ld	(_frame_time),hl
2750  0AE4  21 00 00    	ld	hl,_player_coins
2751  0AE7  36 00       	ld	(hl),0x00
2752  0AE9  2A 00 00    	ld	hl,(_air_start_byte)
2753  0AEC  22 00 00    	ld	(_air_curr_byte),hl
2754  0AEF  21 00 00    	ld	hl,_key_last
2755  0AF2  36 00       	ld	(hl),0x00
2756  0AF4  21 00 00    	ld	hl,_key_ink
2757  0AF7  36 06       	ld	(hl),0x06
2758  0AF9  01 00 00    	ld	bc,_obj_col+0
2759  0AFC  1E 00       	ld	e,0x00
2760  0AFE              l_game_round_init_00107:
2761  0AFE  7B          	ld	a, e
2762  0AFF  D6 05       	sub	a,0x05
2763  0B01  30 11       	jr	NC,l_game_round_init_00109
2764  0B03  6B          	ld	l,e
2765  0B04  26 00       	ld	h,0x00
2766  0B06  09          	add	hl, bc
2767  0B07  36 FF       	ld	(hl),0xff
2768  0B09  16 00       	ld	d,0x00
2769  0B0B  21 00 00    	ld	hl,_obj_lin
2770  0B0E  19          	add	hl, de
2771  0B0F  36 FF       	ld	(hl),0xff
2772  0B11  1C          	inc	e
2773  0B12  18 EA       	jr	l_game_round_init_00107
2774  0B14              l_game_round_init_00109:
2775  0B14  3A 00 00    	ld	a,(_scr_curr)
2776  0B17  D6 14       	sub	a,0x14
2777  0B19  30 1B       	jr	NC,l_game_round_init_00111
2778  0B1B  21 00 00    	ld	hl,_game_tileset
2779  0B1E  36 00       	ld	(hl),0x00
2780  0B20  21 00 00    	ld	hl,_game_mode
2781  0B23  36 00       	ld	(hl),0x00
2782  0B25  21 00 00    	ld	hl,_game_crumb_start
2783  0B28  36 14       	ld	(hl),0x14
2784  0B2A  21 00 00    	ld	hl,_game_crumb_end
2785  0B2D  36 1A       	ld	(hl),0x1a
2786  0B2F  21 00 00    	ld	hl,_lapse_crumb
2787  0B32  36 03       	ld	(hl),0x03
2788  0B34  18 19       	jr	l_game_round_init_00112
2789  0B36              l_game_round_init_00111:
2790  0B36  21 00 00    	ld	hl,_game_tileset
2791  0B39  36 01       	ld	(hl),0x01
2792  0B3B  21 00 00    	ld	hl,_game_mode
2793  0B3E  36 01       	ld	(hl),0x01
2794  0B40  21 00 00    	ld	hl,_game_crumb_start
2795  0B43  36 09       	ld	(hl),0x09
2796  0B45  21 00 00    	ld	hl,_game_crumb_end
2797  0B48  36 0B       	ld	(hl),0x0b
2798  0B4A  21 00 00    	ld	hl,_lapse_crumb
2799  0B4D  36 04       	ld	(hl),0x04
2800  0B4F              l_game_round_init_00112:
2801  0B4F  CD 2C 0F    	call	_game_page_map
2802  0B52  CD CE 10    	call	_game_copy_sprite_color_reset
2803  0B55  CD 61 0D    	call	_game_color_hacks
2804  0B58  21 00 08    	ld	hl,0x0800
2805  0B5B  E5          	push	hl
2806  0B5C  CD FC 10    	call	_game_copy_sprite_std
2807  0B5F  F1          	pop	af
2808  0B60  7D          	ld	a,l
2809  0B61  32 00 00    	ld	(_game_tile_cnt),a
2810  0B64  3A 00 00    	ld	a,(_map_paper)
2811  0B67  21 00 00    	ld	hl,_key_ink
2812  0B6A  B6          	or	a, (hl)
2813  0B6B  32 00 00    	ld	(_key_attrib),a
2814  0B6E  32 01 00    	ld	((_key_attrib + 0x0001)),a
2815  0B71  32 02 00    	ld	((_key_attrib + 0x0002)),a
2816  0B74  32 03 00    	ld	((_key_attrib + 0x0003)),a
2817  0B77  FB          	ei
2818  0B78  CD 00 00    	call	_NIRVANAP_start
2819  0B7B  76          	halt
2820  0B7C  3A 00 00    	ld	a,(_game_debug)
2821  0B7F  B7          	or	a, a
2822  0B80  C2 7A 0C    	jp	NZ, l_game_round_init_00124
2823  0B83  3A 00 00    	ld	a,(_game_atrac)
2824  0B86  B7          	or	a, a
2825  0B87  C2 7A 0C    	jp	NZ, l_game_round_init_00124
2826  0B8A  CD 00 00    	call	_audio_round_init
2827  0B8D  21 0A 20    	ld	hl,0x200a
2828  0B90  E5          	push	hl
2829  0B91  CD 00 00    	call	_game_fill_row
2830  0B94  21 00 00    	ld	hl,_s_col0
2831  0B97  36 01       	ld	(hl),0x01
2832  0B99  21 00 00    	ld	hl,_v0
2833  0B9C  36 00       	ld	(hl),0x00
2834  0B9E  DD 7E FE    	ld	a,(ix-2)
2835  0BA1  DD 77 FC    	ld	(ix-4),a
2836  0BA4  DD 7E FF    	ld	a,(ix-1)
2837  0BA7  DD 77 FD    	ld	(ix-3),a
2838  0BAA              l_game_round_init_00120:
2839  0BAA  21 00 00    	ld	hl,_s_col0
2840  0BAD  7E          	ld	a, (hl)
2841  0BAE  D6 1E       	sub	a,0x1e
2842  0BB0  D2 74 0C    	jp	NC, l_game_round_init_00122
2843  0BB3  7E          	ld	a, (hl)
2844  0BB4  B7          	or	a, a
2845  0BB5  28 2B       	jr	Z,l_game_round_init_00114
2846  0BB7  46          	ld	b, (hl)
2847  0BB8  05          	dec	b
2848  0BB9  3E 58       	ld	a,0x58
2849  0BBB  F5          	push	af
2850  0BBC  33          	inc	sp
2851  0BBD  7E          	ld	a, (hl)
2852  0BBE  48          	ld	c,b
2853  0BBF  47          	ld	b,a
2854  0BC0  C5          	push	bc
2855  0BC1  21 00 00    	ld	hl,_attrib
2856  0BC4  E5          	push	hl
2857  0BC5  CD 2E 0E    	call	_game_paint_attrib
2858  0BC8  F1          	pop	af
2859  0BC9  F1          	pop	af
2860  0BCA  33          	inc	sp
2861  0BCB  21 00 00    	ld	hl,_s_col0
2862  0BCE  46          	ld	b, (hl)
2863  0BCF  05          	dec	b
2864  0BD0  3E 60       	ld	a,0x60
2865  0BD2  F5          	push	af
2866  0BD3  33          	inc	sp
2867  0BD4  7E          	ld	a, (hl)
2868  0BD5  48          	ld	c,b
2869  0BD6  47          	ld	b,a
2870  0BD7  C5          	push	bc
2871  0BD8  21 00 00    	ld	hl,_attrib
2872  0BDB  E5          	push	hl
2873  0BDC  CD 2E 0E    	call	_game_paint_attrib
2874  0BDF  F1          	pop	af
2875  0BE0  F1          	pop	af
2876  0BE1  33          	inc	sp
2877  0BE2              l_game_round_init_00114:
2878  0BE2  21 00 00    	ld	hl,_scr_curr
2879  0BE5  7E          	ld	a, (hl)
2880  0BE6  D6 14       	sub	a,0x14
2881  0BE8  38 19       	jr	C,l_game_round_init_00116
2882  0BEA  7E          	ld	a, (hl)
2883  0BEB  C6 ED       	add	a,0xed
2884  0BED  F5          	push	af
2885  0BEE  33          	inc	sp
2886  0BEF  21 0A 11    	ld	hl,0x110a
2887  0BF2  E5          	push	hl
2888  0BF3  CD 00 00    	call	_zx_print_chr
2889  0BF6  21 20 00    	ld	hl,___str_9
2890  0BF9  E5          	push	hl
2891  0BFA  21 0A 15    	ld	hl,0x150a
2892  0BFD  E5          	push	hl
2893  0BFE  CD 00 00    	call	_zx_print_str
2894  0C01  18 19       	jr	l_game_round_init_00117
2895  0C03              l_game_round_init_00116:
2896  0C03  21 00 00    	ld	hl,_scr_curr
2897  0C06  46          	ld	b, (hl)
2898  0C07  04          	inc	b
2899  0C08  C5          	push	bc
2900  0C09  33          	inc	sp
2901  0C0A  21 0A 11    	ld	hl,0x110a
2902  0C0D  E5          	push	hl
2903  0C0E  CD 00 00    	call	_zx_print_chr
2904  0C11  21 22 00    	ld	hl,___str_10
2905  0C14  E5          	push	hl
2906  0C15  21 0A 15    	ld	hl,0x150a
2907  0C18  E5          	push	hl
2908  0C19  CD 00 00    	call	_zx_print_str
2909  0C1C              l_game_round_init_00117:
2910  0C1C  21 24 00    	ld	hl,___str_11
2911  0C1F  E5          	push	hl
2912  0C20  21 0A 0B    	ld	hl,0x0b0a
2913  0C23  E5          	push	hl
2914  0C24  CD 00 00    	call	_zx_print_str
2915  0C27  DD 4E FC    	ld	c,(ix-4)
2916  0C2A  DD 46 FD    	ld	b,(ix-3)
2917  0C2D  C5          	push	bc
2918  0C2E  21 0B 00    	ld	hl,0x000b
2919  0C31  E5          	push	hl
2920  0C32  CD 00 00    	call	_zx_print_str
2921  0C35  21 00 00    	ld	hl,_v0
2922  0C38  34          	inc	(hl)
2923  0C39  21 01 00    	ld	hl,0x0001
2924  0C3C  CD 00 00    	call	_z80_delay_ms_fastcall
2925  0C3F  76          	halt
2926  0C40  3A 00 00    	ld	a,(_v0)
2927  0C43  D6 03       	sub	a,0x03
2928  0C45  20 15       	jr	NZ,l_game_round_init_00119
2929  0C47  3A 00 00    	ld	a,(_s_col0)
2930  0C4A  F5          	push	af
2931  0C4B  33          	inc	sp
2932  0C4C  21 5E 58    	ld	hl,0x585e
2933  0C4F  E5          	push	hl
2934  0C50  CD 00 00    	call	_NIRVANAP_drawT_callee
2935  0C53  21 00 00    	ld	hl,_s_col0
2936  0C56  34          	inc	(hl)
2937  0C57  21 00 00    	ld	hl,_v0
2938  0C5A  36 00       	ld	(hl),0x00
2939  0C5C              l_game_round_init_00119:
2940  0C5C  3A 00 00    	ld	a,(_v0)
2941  0C5F  C6 08       	add	a,0x08
2942  0C61  47          	ld	b, a
2943  0C62  3A 00 00    	ld	a,(_s_col0)
2944  0C65  57          	ld	d,a
2945  0C66  1E 58       	ld	e,0x58
2946  0C68  D5          	push	de
2947  0C69  C5          	push	bc
2948  0C6A  33          	inc	sp
2949  0C6B  AF          	xor	a, a
2950  0C6C  F5          	push	af
2951  0C6D  33          	inc	sp
2952  0C6E  CD 00 00    	call	_NIRVANAP_spriteT_callee
2953  0C71  C3 AA 0B    	jp	l_game_round_init_00120
2954  0C74              l_game_round_init_00122:
2955  0C74  CD 00 00    	call	_ay_reset
2956  0C77  CD 00 00    	call	_spr_clear_scr
2957  0C7A              l_game_round_init_00124:
2958  0C7A  CD 4E 02    	call	_game_draw_map
2959  0C7D  3A 00 00    	ld	a,(_game_atrac)
2960  0C80  B7          	or	a, a
2961  0C81  20 03       	jr	NZ,l_game_round_init_00127
2962  0C83  CD 00 00    	call	_audio_ingame
2963  0C86              l_game_round_init_00127:
2964  0C86  AF          	xor	a, a
2965  0C87  F5          	push	af
2966  0C88  33          	inc	sp
2967  0C89  CD 95 10    	call	_game_flash_exit
2968  0C8C  33          	inc	sp
2969  0C8D  2A 00 00    	ld	hl,(_map_border)
2970  0C90  CD 00 00    	call	_zx_border_fastcall
2971  0C93  21 00 00    	ld	hl,_map_border
2972  0C96  7E          	ld	a, (hl)
2973  0C97  07          	rlca
2974  0C98  07          	rlca
2975  0C99  07          	rlca
2976  0C9A  E6 F8       	and	a,0xf8
2977  0C9C  B6          	or	a, (hl)
2978  0C9D  32 00 00    	ld	(_screen_ink),a
2979  0CA0  21 00 20    	ld	hl,0x2000
2980  0CA3  E5          	push	hl
2981  0CA4  CD 00 00    	call	_game_fill_row
2982  0CA7  3A 00 00    	ld	a,(_game_over)
2983  0CAA  B7          	or	a, a
2984  0CAB  20 17       	jr	NZ,l_game_round_init_00129
2985  0CAD  2A 00 00    	ld	hl,(_player_col_scr)
2986  0CB0  26 08       	ld	h,0x08
2987  0CB2  3A 00 00    	ld	a,(_player_lin_scr)
2988  0CB5  E5          	push	hl
2989  0CB6  F5          	push	af
2990  0CB7  33          	inc	sp
2991  0CB8  CD 00 00    	call	_player_init
2992  0CBB  F1          	pop	af
2993  0CBC  33          	inc	sp
2994  0CBD  01 08 00    	ld	bc,_state+8
2995  0CC0  0A          	ld	a, (bc)
2996  0CC1  E6 DF       	and	a,0xdf
2997  0CC3  02          	ld	(bc), a
2998  0CC4              l_game_round_init_00129:
2999  0CC4  21 00 00    	ld	hl,_screen_ink
3000  0CC7  36 30       	ld	(hl),0x30
3001  0CC9  21 11 20    	ld	hl,0x2011
3002  0CCC  E5          	push	hl
3003  0CCD  CD 00 00    	call	_game_fill_row
3004  0CD0  DD 4E FE    	ld	c,(ix-2)
3005  0CD3  DD 46 FF    	ld	b,(ix-1)
3006  0CD6  C5          	push	bc
3007  0CD7  21 11 00    	ld	hl,0x0011
3008  0CDA  E5          	push	hl
3009  0CDB  CD 00 00    	call	_zx_print_str
3010  0CDE  21 00 00    	ld	hl,_screen_ink
3011  0CE1  36 57       	ld	(hl),0x57
3012  0CE3  21 2A 00    	ld	hl,___str_12
3013  0CE6  E5          	push	hl
3014  0CE7  21 12 00    	ld	hl,0x0012
3015  0CEA  E5          	push	hl
3016  0CEB  CD 00 00    	call	_zx_print_str
3017  0CEE  21 00 00    	ld	hl,_screen_ink
3018  0CF1  36 67       	ld	(hl),0x67
3019  0CF3  21 35 00    	ld	hl,___str_13
3020  0CF6  E5          	push	hl
3021  0CF7  21 12 0A    	ld	hl,0x0a12
3022  0CFA  E5          	push	hl
3023  0CFB  CD 00 00    	call	_zx_print_str
3024  0CFE  21 00 00    	ld	hl,_screen_ink
3025  0D01  36 06       	ld	(hl),0x06
3026  0D03  21 4C 00    	ld	hl,___str_14
3027  0D06  E5          	push	hl
3028  0D07  21 14 00    	ld	hl,0x0014
3029  0D0A  E5          	push	hl
3030  0D0B  CD 00 00    	call	_zx_print_str
3031  0D0E  CD D1 07    	call	_game_print_score
3032  0D11  CD F2 07    	call	_game_print_lives
3033  0D14  21 00 00    	ld	hl,_screen_ink
3034  0D17  36 07       	ld	(hl),0x07
3035  0D19  21 00 00    	ld	hl,0x0000
3036  0D1C  22 00 00    	ld	(_fps),hl
3037  0D1F  3A 00 00    	ld	a,(_scr_curr)
3038  0D22  D6 12       	sub	a,0x12
3039  0D24  20 23       	jr	NZ,l_game_round_init_00134
3040  0D26  21 00 00    	ld	hl,_v0
3041  0D29  36 10       	ld	(hl),0x10
3042  0D2B              l_game_round_init_00130:
3043  0D2B  21 00 00    	ld	hl,_v0
3044  0D2E  7E          	ld	a, (hl)
3045  0D2F  D6 80       	sub	a,0x80
3046  0D31  30 16       	jr	NC,l_game_round_init_00134
3047  0D33  3E 17       	ld	a,0x17
3048  0D35  F5          	push	af
3049  0D36  33          	inc	sp
3050  0D37  56          	ld	d, (hl)
3051  0D38  1E 11       	ld	e,0x11
3052  0D3A  D5          	push	de
3053  0D3B  CD 00 00    	call	_spr_draw8
3054  0D3E  F1          	pop	af
3055  0D3F  33          	inc	sp
3056  0D40  21 00 00    	ld	hl,_v0
3057  0D43  7E          	ld	a, (hl)
3058  0D44  C6 08       	add	a,0x08
3059  0D46  77          	ld	(hl), a
3060  0D47  18 E2       	jr	l_game_round_init_00130
3061  0D49              l_game_round_init_00134:
3062  0D49  3A 00 00    	ld	a,(_game_debug)
3063  0D4C  B7          	or	a, a
3064  0D4D  28 0C       	jr	Z,l_game_round_init_00136
3065  0D4F  3A 00 00    	ld	a,(_scr_curr)
3066  0D52  F5          	push	af
3067  0D53  33          	inc	sp
3068  0D54  21 17 14    	ld	hl,0x1417
3069  0D57  E5          	push	hl
3070  0D58  CD 00 00    	call	_zx_print_chr
3071  0D5B              l_game_round_init_00136:
3072  0D5B  76          	halt
3073  0D5C  DD F9       	ld	sp, ix
3074  0D5E  DD E1       	pop	ix
3075  0D60  C9          	ret
3076  0D61              	SECTION rodata_compiler
3077  0020              ___str_9:
3078  0020  41          	DEFM "A"
3079  0021  00          	DEFB 0x00
3080  0022              	SECTION rodata_compiler
3081  0022              ___str_10:
3082  0022  42          	DEFM "B"
3083  0023  00          	DEFB 0x00
3084  0024              	SECTION rodata_compiler
3085  0024              ___str_11:
3086  0024  52 4F 55 4E 44 
                        	DEFM "ROUND"
3087  0029  00          	DEFB 0x00
3088  002A              	SECTION rodata_compiler
3089  002A              ___str_12:
3090  002A  41 49 52 20 2D 2D 2D 2D 2D 2D 
                        	DEFM "AIR ------"
3091  0034  00          	DEFB 0x00
3092  0035              	SECTION rodata_compiler
3093  0035              ___str_13:
3094  0035  2D 2D 2D 2D 2D 2D 2D 2D 2D 2D 2D 2D 2D 2D 2D 2D 2D 2D 2D 2D 2D 2D 
                        	DEFM "----------------------"
3095  004B  00          	DEFB 0x00
3096  004C              	SECTION rodata_compiler
3097  004C              ___str_14:
3098  004C  48 69 67 68 20 53 63 6F 72 65 20 20 20 20 20 20 20 20 20 53 63 6F 72 65 20 20 20 20 20 20 
                        	DEFM "High Score         Score      "
3099  006A  00          	DEFB 0x00
3100  006B              	SECTION code_compiler
3101  0D61              ;	---------------------------------
3102  0D61              ; Function game_color_hacks
3103  0D61              ; ---------------------------------
3104  0D61              _game_color_hacks:
3105  0D61  21 00 00    	ld	hl,_map_paper
3106  0D64  CB 76       	bit	6, (hl)
3107  0D66  28 05       	jr	Z,l_game_color_hacks_00102
3108  0D68  21 00 00    	ld	hl,_spr_init_bright
3109  0D6B  36 40       	ld	(hl),0x40
3110  0D6D              l_game_color_hacks_00102:
3111  0D6D  3A 00 00    	ld	a,(_scr_curr)
3112  0D70  D6 14       	sub	a,0x14
3113  0D72  30 24       	jr	NC,l_game_color_hacks_00112
3114  0D74  3A 00 00    	ld	a,(_map_paper)
3115  0D77  D6 10       	sub	a,0x10
3116  0D79  20 0A       	jr	NZ,l_game_color_hacks_00104
3117  0D7B  21 00 00    	ld	hl,_spr_init_cin0
3118  0D7E  36 02       	ld	(hl),0x02
3119  0D80  21 00 00    	ld	hl,_spr_init_cout0
3120  0D83  36 03       	ld	(hl),0x03
3121  0D85              l_game_color_hacks_00104:
3122  0D85  3A 00 00    	ld	a,(_map_paper)
3123  0D88  D6 20       	sub	a,0x20
3124  0D8A  20 5F       	jr	NZ,l_game_color_hacks_00114
3125  0D8C  21 00 00    	ld	hl,_spr_init_cin0
3126  0D8F  36 05       	ld	(hl),0x05
3127  0D91  21 00 00    	ld	hl,_spr_init_cout0
3128  0D94  36 01       	ld	(hl),0x01
3129  0D96  18 53       	jr	l_game_color_hacks_00114
3130  0D98              l_game_color_hacks_00112:
3131  0D98  3A 00 00    	ld	a,(_map_paper)
3132  0D9B  D6 08       	sub	a,0x08
3133  0D9D  20 1E       	jr	NZ,l_game_color_hacks_00108
3134  0D9F  21 00 00    	ld	hl,_spr_init_cin0
3135  0DA2  36 01       	ld	(hl),0x01
3136  0DA4  21 00 00    	ld	hl,_spr_init_cout0
3137  0DA7  36 07       	ld	(hl),0x07
3138  0DA9  21 00 00    	ld	hl,_spr_init_cin1
3139  0DAC  36 02       	ld	(hl),0x02
3140  0DAE  21 00 00    	ld	hl,_spr_init_cout1
3141  0DB1  36 04       	ld	(hl),0x04
3142  0DB3  21 00 00    	ld	hl,_spr_init_cin2
3143  0DB6  36 16       	ld	(hl),0x16
3144  0DB8  21 00 00    	ld	hl,_spr_init_cout2
3145  0DBB  36 27       	ld	(hl),0x27
3146  0DBD              l_game_color_hacks_00108:
3147  0DBD  3A 00 00    	ld	a,(_map_paper)
3148  0DC0  D6 38       	sub	a,0x38
3149  0DC2  C0          	ret	NZ
3150  0DC3  21 00 00    	ld	hl,_spr_init_cin0
3151  0DC6  36 06       	ld	(hl),0x06
3152  0DC8  21 00 00    	ld	hl,_spr_init_cout0
3153  0DCB  36 00       	ld	(hl),0x00
3154  0DCD  21 00 00    	ld	hl,_spr_init_cin1
3155  0DD0  36 01       	ld	(hl),0x01
3156  0DD2  21 00 00    	ld	hl,_spr_init_cout1
3157  0DD5  36 01       	ld	(hl),0x01
3158  0DD7  21 00 00    	ld	hl,_spr_init_cin2
3159  0DDA  36 02       	ld	(hl),0x02
3160  0DDC  21 00 00    	ld	hl,_spr_init_cout2
3161  0DDF  36 03       	ld	(hl),0x03
3162  0DE1  21 00 00    	ld	hl,_spr_init_cin3
3163  0DE4  36 16       	ld	(hl),0x16
3164  0DE6  21 00 00    	ld	hl,_spr_init_cout3
3165  0DE9  36 08       	ld	(hl),0x08
3166  0DEB              l_game_color_hacks_00114:
3167  0DEB  C9          	ret
3168  0DEC              	SECTION code_compiler
3169  0DEC              ;	---------------------------------
3170  0DEC              ; Function game_check_map
3171  0DEC              ; ---------------------------------
3172  0DEC              _game_check_map:
3173  0DEC  CD 00 00    	call	___sdcc_enter_ix
3174  0DEF  DD 66 05    	ld	h,(ix+5)
3175  0DF2  DD 6E 04    	ld	l,(ix+4)
3176  0DF5  E5          	push	hl
3177  0DF6  CD 00 00    	call	_spr_calc_index
3178  0DF9  F1          	pop	af
3179  0DFA  22 00 00    	ld	(_index1),hl
3180  0DFD  21 00 00    	ld	hl,_index1
3181  0E00  DD E1       	pop	ix
3182  0E02  C3 05 0E    	jp	_game_check_cell
3183  0E05              	SECTION code_compiler
3184  0E05              ;	---------------------------------
3185  0E05              ; Function game_check_cell
3186  0E05              ; ---------------------------------
3187  0E05              _game_check_cell:
3188  0E05  4E          	ld	c, (hl)
3189  0E06  23          	inc	hl
3190  0E07  46          	ld	b, (hl)
3191  0E08  AF          	xor	a, a
3192  0E09  B9          	cp	a, c
3193  0E0A  3E 02       	ld	a,0x02
3194  0E0C  98          	sbc	a, b
3195  0E0D  30 04       	jr	NC,l_game_check_cell_00102
3196  0E0F  2E 01       	ld	l,0x01
3197  0E11  18 1A       	jr	l_game_check_cell_00106
3198  0E13              l_game_check_cell_00102:
3199  0E13  21 00 00    	ld	hl,_scr_map
3200  0E16  09          	add	hl, bc
3201  0E17  5E          	ld	e, (hl)
3202  0E18  16 00       	ld	d,0x00
3203  0E1A  21 00 00    	ld	hl,_tile_class
3204  0E1D  19          	add	hl, de
3205  0E1E  5E          	ld	e, (hl)
3206  0E1F  ED 43 00 00 	ld	(_index1),bc
3207  0E23  7B          	ld	a,e
3208  0E24  D6 03       	sub	a,0x03
3209  0E26  28 04       	jr	Z,l_game_check_cell_00104
3210  0E28  2E 00       	ld	l,0x00
3211  0E2A  18 01       	jr	l_game_check_cell_00106
3212  0E2C              l_game_check_cell_00104:
3213  0E2C  6B          	ld	l, e
3214  0E2D              l_game_check_cell_00106:
3215  0E2D  C9          	ret
3216  0E2E              	SECTION code_compiler
3217  0E2E              ;	---------------------------------
3218  0E2E              ; Function game_paint_attrib
3219  0E2E              ; ---------------------------------
3220  0E2E              _game_paint_attrib:
3221  0E2E  CD 00 00    	call	___sdcc_enter_ix
3222  0E31  DD 46 06    	ld	b,(ix+6)
3223  0E34              l_game_paint_attrib_00103:
3224  0E34  78          	ld	a, b
3225  0E35  DD 96 07    	sub	a,(ix+7)
3226  0E38  30 13       	jr	NC,l_game_paint_attrib_00105
3227  0E3A  DD 5E 04    	ld	e,(ix+4)
3228  0E3D  DD 56 05    	ld	d,(ix+5)
3229  0E40  C5          	push	bc
3230  0E41  DD 4E 08    	ld	c,(ix+8)
3231  0E44  C5          	push	bc
3232  0E45  D5          	push	de
3233  0E46  CD 00 00    	call	_NIRVANAP_paintC_callee
3234  0E49  C1          	pop	bc
3235  0E4A  04          	inc	b
3236  0E4B  18 E7       	jr	l_game_paint_attrib_00103
3237  0E4D              l_game_paint_attrib_00105:
3238  0E4D  DD E1       	pop	ix
3239  0E4F  C9          	ret
3240  0E50              	SECTION code_compiler
3241  0E50              ;	---------------------------------
3242  0E50              ; Function game_check_time
3243  0E50              ; ---------------------------------
3244  0E50              _game_check_time:
3245  0E50  CD 00 00    	call	___sdcc_enter_ix
3246  0E53  2A 00 00    	ld	hl,(_curr_time)
3247  0E56  4D          	ld	c, l
3248  0E57  DD 6E 04    	ld	l,(ix+4)
3249  0E5A  44          	ld	b,h
3250  0E5B  DD 66 05    	ld	h,(ix+5)
3251  0E5E  5E          	ld	e, (hl)
3252  0E5F  23          	inc	hl
3253  0E60  56          	ld	d, (hl)
3254  0E61  79          	ld	a, c
3255  0E62  93          	sub	a, e
3256  0E63  4F          	ld	c, a
3257  0E64  78          	ld	a, b
3258  0E65  9A          	sbc	a, d
3259  0E66  47          	ld	b, a
3260  0E67  DD 7E 06    	ld	a,(ix+6)
3261  0E6A  91          	sub	a, c
3262  0E6B  DD 7E 07    	ld	a,(ix+7)
3263  0E6E  98          	sbc	a, b
3264  0E6F  30 04       	jr	NC,l_game_check_time_00102
3265  0E71  2E 01       	ld	l,0x01
3266  0E73  18 02       	jr	l_game_check_time_00104
3267  0E75              l_game_check_time_00102:
3268  0E75  2E 00       	ld	l,0x00
3269  0E77              l_game_check_time_00104:
3270  0E77  DD E1       	pop	ix
3271  0E79  C9          	ret
3272  0E7A              	SECTION code_compiler
3273  0E7A              ;	---------------------------------
3274  0E7A              ; Function game_key_paint
3275  0E7A              ; ---------------------------------
3276  0E7A              _game_key_paint:
3277  0E7A  CD 00 00    	call	___sdcc_enter_ix
3278  0E7D  F5          	push	af
3279  0E7E  21 00 00    	ld	hl,_v0
3280  0E81  36 00       	ld	(hl),0x00
3281  0E83  01 00 00    	ld	bc,_obj_col+0
3282  0E86  DD 36 FE 00 	ld	(ix-2),+((_obj_lin) & 0xFF)
3283  0E8A  DD 36 FF 00 	ld	(ix-1),+((_obj_lin) / 256)
3284  0E8E              l_game_key_paint_00105:
3285  0E8E  3A 00 00    	ld	a,(_v0)
3286  0E91  D6 05       	sub	a,0x05
3287  0E93  30 48       	jr	NC,l_game_key_paint_00108
3288  0E95  0A          	ld	a, (bc)
3289  0E96  3C          	inc	a
3290  0E97  28 2A       	jr	Z,l_game_key_paint_00102
3291  0E99  3A 00 00    	ld	a,(_map_paper)
3292  0E9C  21 00 00    	ld	hl,_key_ink
3293  0E9F  B6          	or	a, (hl)
3294  0EA0  E1          	pop	hl
3295  0EA1  32 00 00    	ld	(_v1),a
3296  0EA4  11 00 00    	ld	de,_key_attrib+0
3297  0EA7  12          	ld	(de),a
3298  0EA8  3A 00 00    	ld	a,(_v1)
3299  0EAB  32 01 00    	ld	((_key_attrib + 0x0001)),a
3300  0EAE  32 02 00    	ld	((_key_attrib + 0x0002)),a
3301  0EB1  3A 00 00    	ld	a,(_v1)
3302  0EB4  32 03 00    	ld	((_key_attrib + 0x0003)),a
3303  0EB7  0A          	ld	a,(bc)
3304  0EB8  E5          	push	hl
3305  0EB9  66          	ld	h, (hl)
3306  0EBA  C5          	push	bc
3307  0EBB  6C          	ld	l,h
3308  0EBC  67          	ld	h,a
3309  0EBD  E5          	push	hl
3310  0EBE  D5          	push	de
3311  0EBF  CD 00 00    	call	_NIRVANAP_paintC_callee
3312  0EC2  C1          	pop	bc
3313  0EC3              l_game_key_paint_00102:
3314  0EC3  21 00 00    	ld	hl,_v0
3315  0EC6  34          	inc	(hl)
3316  0EC7  03          	inc	bc
3317  0EC8  DD 34 FE    	inc	(ix-2)
3318  0ECB  20 03       	jr	NZ,l_game_key_paint_00128
3319  0ECD  DD 34 FF    	inc	(ix-1)
3320  0ED0              l_game_key_paint_00128:
3321  0ED0  21 00 00    	ld	hl,_key_ink
3322  0ED3  34          	inc	(hl)
3323  0ED4  3E 06       	ld	a,0x06
3324  0ED6  96          	sub	a, (hl)
3325  0ED7  30 B5       	jr	NC,l_game_key_paint_00105
3326  0ED9  36 03       	ld	(hl),0x03
3327  0EDB  18 B1       	jr	l_game_key_paint_00105
3328  0EDD              l_game_key_paint_00108:
3329  0EDD  F1          	pop	af
3330  0EDE  DD E1       	pop	ix
3331  0EE0  C9          	ret
3332  0EE1              	SECTION code_compiler
3333  0EE1              ;	---------------------------------
3334  0EE1              ; Function game_attribs
3335  0EE1              ; ---------------------------------
3336  0EE1              _game_attribs:
3337  0EE1  01 00 00    	ld	bc,_attrib+0
3338  0EE4  21 00 00    	ld	hl,_map_paper
3339  0EE7  7E          	ld	a, (hl)
3340  0EE8  F6 06       	or	a,0x06
3341  0EEA  02          	ld	(bc), a
3342  0EEB  59          	ld	e, c
3343  0EEC  50          	ld	d, b
3344  0EED  13          	inc	de
3345  0EEE  7E          	ld	a, (hl)
3346  0EEF  F6 46       	or	a,0x46
3347  0EF1  12          	ld	(de), a
3348  0EF2  7E          	ld	a, (hl)
3349  0EF3  F6 07       	or	a,0x07
3350  0EF5  32 02 00    	ld	((_attrib + 0x0002)),a
3351  0EF8  03          	inc	bc
3352  0EF9  03          	inc	bc
3353  0EFA  03          	inc	bc
3354  0EFB  21 00 00    	ld	hl,_map_paper
3355  0EFE  7E          	ld	a, (hl)
3356  0EFF  F6 06       	or	a,0x06
3357  0F01  02          	ld	(bc), a
3358  0F02  01 00 00    	ld	bc,_attrib_hl+0
3359  0F05  7E          	ld	a, (hl)
3360  0F06  F6 15       	or	a,0x15
3361  0F08  02          	ld	(bc), a
3362  0F09  59          	ld	e, c
3363  0F0A  50          	ld	d, b
3364  0F0B  13          	inc	de
3365  0F0C  7E          	ld	a, (hl)
3366  0F0D  F6 55       	or	a,0x55
3367  0F0F  12          	ld	(de), a
3368  0F10  7E          	ld	a, (hl)
3369  0F11  F6 17       	or	a,0x17
3370  0F13  32 02 00    	ld	((_attrib_hl + 0x0002)),a
3371  0F16  03          	inc	bc
3372  0F17  03          	inc	bc
3373  0F18  03          	inc	bc
3374  0F19  3A 00 00    	ld	a,(_map_paper)
3375  0F1C  F6 15       	or	a,0x15
3376  0F1E  02          	ld	(bc), a
3377  0F1F  21 42 43    	ld	hl,0x4342
3378  0F22  22 00 00    	ld	(_attrib_osd),hl
3379  0F25  21 45 46    	ld	hl,0x4645
3380  0F28  22 02 00    	ld	(_attrib_osd + 2),hl
3381  0F2B  C9          	ret
3382  0F2C              	SECTION code_compiler
3383  0F2C              ;	---------------------------------
3384  0F2C              ; Function game_page_map
3385  0F2C              ; ---------------------------------
3386  0F2C              _game_page_map:
3387  0F2C  CD 00 00    	call	___sdcc_enter_ix
3388  0F2F  21 F5 FF    	ld	hl, -11
3389  0F32  39          	add	hl, sp
3390  0F33  F9          	ld	sp, hl
3391  0F34  21 00 00    	ld	hl,_scr_curr
3392  0F37  5E          	ld	e, (hl)
3393  0F38  DD 73 FF    	ld	(ix-1),e
3394  0F3B  3E 13       	ld	a,0x13
3395  0F3D  93          	sub	a, e
3396  0F3E  30 06       	jr	NC,l_game_page_map_00102
3397  0F40  7B          	ld	a, e
3398  0F41  C6 EC       	add	a,0xec
3399  0F43  DD 77 FF    	ld	(ix-1),a
3400  0F46              l_game_page_map_00102:
3401  0F46  DD 36 F9 00 	ld	(ix-7),0x00
3402  0F4A  DD 36 FA 00 	ld	(ix-6),0x00
3403  0F4E  D5          	push	de
3404  0F4F  3E 06       	ld	a,0x06
3405  0F51  F5          	push	af
3406  0F52  33          	inc	sp
3407  0F53  CD 13 13    	call	_page
3408  0F56  33          	inc	sp
3409  0F57  D1          	pop	de
3410  0F58  16 00       	ld	d,0x00
3411  0F5A  6B          	ld	l, e
3412  0F5B  62          	ld	h, d
3413  0F5C  29          	add	hl, hl
3414  0F5D  01 00 00    	ld	bc,_lenght0
3415  0F60  09          	add	hl, bc
3416  0F61  4E          	ld	c, (hl)
3417  0F62  23          	inc	hl
3418  0F63  46          	ld	b, (hl)
3419  0F64  EB          	ex	de,hl
3420  0F65  23          	inc	hl
3421  0F66  29          	add	hl, hl
3422  0F67  11 00 00    	ld	de,_lenght0
3423  0F6A  19          	add	hl, de
3424  0F6B  5E          	ld	e, (hl)
3425  0F6C  23          	inc	hl
3426  0F6D  56          	ld	d, (hl)
3427  0F6E  21 00 00    	ld	hl,_world0
3428  0F71  09          	add	hl, bc
3429  0F72  7B          	ld	a, e
3430  0F73  91          	sub	a, c
3431  0F74  4F          	ld	c, a
3432  0F75  7A          	ld	a, d
3433  0F76  98          	sbc	a, b
3434  0F77  47          	ld	b, a
3435  0F78  C5          	push	bc
3436  0F79  E5          	push	hl
3437  0F7A  21 00 00    	ld	hl,_btiles
3438  0F7D  E5          	push	hl
3439  0F7E  CD 00 00    	call	_memcpy_callee
3440  0F81  AF          	xor	a, a
3441  0F82  F5          	push	af
3442  0F83  33          	inc	sp
3443  0F84  CD 13 13    	call	_page
3444  0F87  33          	inc	sp
3445  0F88  01 00 00    	ld	bc,0x0000
3446  0F8B              l_game_page_map_00121:
3447  0F8B  21 00 00    	ld	hl,_btiles
3448  0F8E  09          	add	hl, bc
3449  0F8F  5E          	ld	e, (hl)
3450  0F90  21 01 00    	ld	hl,0x0001
3451  0F93  09          	add	hl,bc
3452  0F94  DD 75 FD    	ld	(ix-3),l
3453  0F97  DD 74 FE    	ld	(ix-2),h
3454  0F9A  3E 00       	ld	a,+((_btiles) & 0xFF)
3455  0F9C  85          	add	a,l
3456  0F9D  6F          	ld	l,a
3457  0F9E  3E 00       	ld	a,+((_btiles) / 256)
3458  0FA0  8C          	adc	a,h
3459  0FA1  67          	ld	h, a
3460  0FA2  7E          	ld	a, (hl)
3461  0FA3  DD 77 FC    	ld	(ix-4),a
3462  0FA6  7B          	ld	a, e
3463  0FA7  D6 80       	sub	a,0x80
3464  0FA9  30 17       	jr	NC,l_game_page_map_00107
3465  0FAB  3E 00       	ld	a, +((_scr_map) & 0xFF)
3466  0FAD  DD 86 F9    	add	a,(ix-7)
3467  0FB0  6F          	ld	l, a
3468  0FB1  3E 00       	ld	a, +((_scr_map) / 256)
3469  0FB3  DD 8E FA    	adc	a,(ix-6)
3470  0FB6  67          	ld	h, a
3471  0FB7  73          	ld	(hl), e
3472  0FB8  DD 34 F9    	inc	(ix-7)
3473  0FBB  20 3C       	jr	NZ,l_game_page_map_00108
3474  0FBD  DD 34 FA    	inc	(ix-6)
3475  0FC0  18 37       	jr	l_game_page_map_00108
3476  0FC2              l_game_page_map_00107:
3477  0FC2  7B          	ld	a, e
3478  0FC3  C6 80       	add	a,0x80
3479  0FC5  DD 77 FB    	ld	(ix-5),a
3480  0FC8  DD 4E F9    	ld	c,(ix-7)
3481  0FCB  DD 46 FA    	ld	b,(ix-6)
3482  0FCE  11 00 00    	ld	de,0x0000
3483  0FD1              l_game_page_map_00119:
3484  0FD1  DD 6E FB    	ld	l,(ix-5)
3485  0FD4  26 00       	ld	h,0x00
3486  0FD6  7B          	ld	a, e
3487  0FD7  95          	sub	a, l
3488  0FD8  7A          	ld	a, d
3489  0FD9  9C          	sbc	a, h
3490  0FDA  30 11       	jr	NC,l_game_page_map_00135
3491  0FDC  21 00 00    	ld	hl,_scr_map
3492  0FDF  09          	add	hl, bc
3493  0FE0  DD 7E FC    	ld	a,(ix-4)
3494  0FE3  77          	ld	(hl), a
3495  0FE4  03          	inc	bc
3496  0FE5  78          	ld	a, b
3497  0FE6  D6 02       	sub	a,0x02
3498  0FE8  30 03       	jr	NC,l_game_page_map_00135
3499  0FEA  13          	inc	de
3500  0FEB  18 E4       	jr	l_game_page_map_00119
3501  0FED              l_game_page_map_00135:
3502  0FED  DD 71 F9    	ld	(ix-7),c
3503  0FF0  DD 70 FA    	ld	(ix-6),b
3504  0FF3  DD 4E FD    	ld	c,(ix-3)
3505  0FF6  DD 46 FE    	ld	b,(ix-2)
3506  0FF9              l_game_page_map_00108:
3507  0FF9  DD 7E FA    	ld	a,(ix-6)
3508  0FFC  D6 02       	sub	a,0x02
3509  0FFE  30 07       	jr	NC,l_game_page_map_00111
3510  1000  03          	inc	bc
3511  1001  78          	ld	a, b
3512  1002  D6 02       	sub	a,0x02
3513  1004  DA 8B 0F    	jp	C, l_game_page_map_00121
3514  1007              l_game_page_map_00111:
3515  1007  DD 6E FF    	ld	l,(ix-1)
3516  100A  26 00       	ld	h,0x00
3517  100C  4D          	ld	c,l
3518  100D  44          	ld	b,h
3519  100E  29          	add	hl, hl
3520  100F  09          	add	hl, bc
3521  1010  AF          	xor	a,a
3522  1011  CB 3C       	srl	h
3523  1013  CB 1D       	rr	l
3524  1015  1F          	rra
3525  1016  DD 77 F7    	ld	(ix-9),a
3526  1019  DD 75 F8    	ld	(ix-8),l
3527  101C  01 00 00    	ld	bc,0x0000
3528  101F              l_game_page_map_00115:
3529  101F  79          	ld	a, c
3530  1020  D6 80       	sub	a,0x80
3531  1022  78          	ld	a, b
3532  1023  DE 01       	sbc	a,0x01
3533  1025  30 57       	jr	NC,l_game_page_map_00117
3534  1027  DD 36 F5 00 	ld	(ix-11),+((_btiles + 0x1200) & 0xFF)
3535  102B  DD 36 F6 12 	ld	(ix-10),+((_btiles + 0x1200) / 256)
3536  102F  DD 6E F7    	ld	l,(ix-9)
3537  1032  DD 66 F8    	ld	h,(ix-8)
3538  1035  09          	add	hl,bc
3539  1036  3A 00 00    	ld	a,(_scr_curr)
3540  1039  EB          	ex	de,hl
3541  103A  D6 14       	sub	a,0x14
3542  103C  30 07       	jr	NC,l_game_page_map_00113
3543  103E  21 00 00    	ld	hl,_hitiles1
3544  1041  19          	add	hl,de
3545  1042  EB          	ex	de,hl
3546  1043  18 05       	jr	l_game_page_map_00114
3547  1045              l_game_page_map_00113:
3548  1045  21 00 00    	ld	hl,_hitiles2
3549  1048  19          	add	hl,de
3550  1049  EB          	ex	de,hl
3551  104A              l_game_page_map_00114:
3552  104A  C5          	push	bc
3553  104B  D5          	push	de
3554  104C  3E 07       	ld	a,0x07
3555  104E  F5          	push	af
3556  104F  33          	inc	sp
3557  1050  CD 13 13    	call	_page
3558  1053  33          	inc	sp
3559  1054  D1          	pop	de
3560  1055  C1          	pop	bc
3561  1056  E1          	pop	hl
3562  1057  E5          	push	hl
3563  1058  C5          	push	bc
3564  1059  EB          	ex	de, hl
3565  105A  01 30 00    	ld	bc,0x0030
3566  105D  ED B0       	ldir
3567  105F  AF          	xor	a, a
3568  1060  F5          	push	af
3569  1061  33          	inc	sp
3570  1062  CD 13 13    	call	_page
3571  1065  33          	inc	sp
3572  1066  C1          	pop	bc
3573  1067  21 00 00    	ld	hl,_btiles
3574  106A  09          	add	hl, bc
3575  106B  11 00 12    	ld	de, +(_btiles + 0x1200)
3576  106E  C5          	push	bc
3577  106F  EB          	ex	de, hl
3578  1070  01 30 00    	ld	bc,0x0030
3579  1073  ED B0       	ldir
3580  1075  C1          	pop	bc
3581  1076  21 30 00    	ld	hl,0x0030
3582  1079  09          	add	hl,bc
3583  107A  4D          	ld	c, l
3584  107B  44          	ld	b, h
3585  107C  18 A1       	jr	l_game_page_map_00115
3586  107E              l_game_page_map_00117:
3587  107E  3A 20 00    	ld	a, (_btiles + 32)
3588  1081  E6 F8       	and	a,0xf8
3589  1083  21 00 00    	ld	hl,_map_paper
3590  1086  77          	ld	(hl),a
3591  1087  0F          	rrca
3592  1088  0F          	rrca
3593  1089  0F          	rrca
3594  108A  E6 1F       	and	a,0x1f
3595  108C  B6          	or	a, (hl)
3596  108D  32 00 00    	ld	(_map_clear),a
3597  1090  DD F9       	ld	sp, ix
3598  1092  DD E1       	pop	ix
3599  1094  C9          	ret
3600  1095              	SECTION code_compiler
3601  1095              ;	---------------------------------
3602  1095              ; Function game_flash_exit
3603  1095              ; ---------------------------------
3604  1095              _game_flash_exit:
3605  1095  CD 00 00    	call	___sdcc_enter_ix
3606  1098  21 00 00    	ld	hl,_i
3607  109B  36 00       	ld	(hl),0x00
3608  109D  01 70 01    	ld	bc,0x0170
3609  10A0              l_game_flash_exit_00101:
3610  10A0  3A 00 00    	ld	a,(_i)
3611  10A3  D6 10       	sub	a,0x10
3612  10A5  30 14       	jr	NC,l_game_flash_exit_00103
3613  10A7  21 00 00    	ld	hl,_btiles
3614  10AA  09          	add	hl,bc
3615  10AB  7E          	ld	a,(hl)
3616  10AC  EB          	ex	de,hl
3617  10AD  E6 7F       	and	a,0x7f
3618  10AF  12          	ld	(de), a
3619  10B0  DD B6 04    	or	a,(ix+4)
3620  10B3  12          	ld	(de), a
3621  10B4  21 00 00    	ld	hl,_i
3622  10B7  34          	inc	(hl)
3623  10B8  03          	inc	bc
3624  10B9  18 E5       	jr	l_game_flash_exit_00101
3625  10BB              l_game_flash_exit_00103:
3626  10BB  2A FF FF    	ld	hl,(_game_exit_col - 1)
3627  10BE  3A 00 00    	ld	a,(_game_exit_lin)
3628  10C1  6F          	ld	l,a
3629  10C2  E5          	push	hl
3630  10C3  21 06 07    	ld	hl,0x0706
3631  10C6  E5          	push	hl
3632  10C7  CD 00 00    	call	_NIRVANAP_spriteT_callee
3633  10CA  76          	halt
3634  10CB  DD E1       	pop	ix
3635  10CD  C9          	ret
3636  10CE              	SECTION code_compiler
3637  10CE              ;	---------------------------------
3638  10CE              ; Function game_copy_sprite_color_reset
3639  10CE              ; ---------------------------------
3640  10CE              _game_copy_sprite_color_reset:
3641  10CE  21 00 00    	ld	hl,_spr_init_bright
3642  10D1  36 00       	ld	(hl),0x00
3643  10D3  21 00 00    	ld	hl,_spr_init_cin0
3644  10D6  36 00       	ld	(hl),0x00
3645  10D8  21 00 00    	ld	hl,_spr_init_cout0
3646  10DB  36 00       	ld	(hl),0x00
3647  10DD  21 00 00    	ld	hl,_spr_init_cin1
3648  10E0  36 00       	ld	(hl),0x00
3649  10E2  21 00 00    	ld	hl,_spr_init_cout1
3650  10E5  36 00       	ld	(hl),0x00
3651  10E7  21 00 00    	ld	hl,_spr_init_cin2
3652  10EA  36 00       	ld	(hl),0x00
3653  10EC  21 00 00    	ld	hl,_spr_init_cout2
3654  10EF  36 00       	ld	(hl),0x00
3655  10F1  21 00 00    	ld	hl,_spr_init_cin3
3656  10F4  36 00       	ld	(hl),0x00
3657  10F6  21 00 00    	ld	hl,_spr_init_cout3
3658  10F9  36 00       	ld	(hl),0x00
3659  10FB  C9          	ret
3660  10FC              	SECTION code_compiler
3661  10FC              ;	---------------------------------
3662  10FC              ; Function game_copy_sprite_std
3663  10FC              ; ---------------------------------
3664  10FC              _game_copy_sprite_std:
3665  10FC  CD 00 00    	call	___sdcc_enter_ix
3666  10FF  AF          	xor	a, a
3667  1100  F5          	push	af
3668  1101  33          	inc	sp
3669  1102  DD 66 05    	ld	h,(ix+5)
3670  1105  DD 6E 04    	ld	l,(ix+4)
3671  1108  E5          	push	hl
3672  1109  CD A9 11    	call	_game_copy_sprite
3673  110C  F1          	pop	af
3674  110D  33          	inc	sp
3675  110E  DD 46 05    	ld	b,(ix+5)
3676  1111  04          	inc	b
3677  1112  DD 4E 04    	ld	c,(ix+4)
3678  1115  0C          	inc	c
3679  1116  C5          	push	bc
3680  1117  AF          	xor	a, a
3681  1118  F5          	push	af
3682  1119  33          	inc	sp
3683  111A  C5          	push	bc
3684  111B  CD A9 11    	call	_game_copy_sprite
3685  111E  F1          	pop	af
3686  111F  33          	inc	sp
3687  1120  C1          	pop	bc
3688  1121  DD 56 05    	ld	d,(ix+5)
3689  1124  14          	inc	d
3690  1125  14          	inc	d
3691  1126  DD 46 04    	ld	b,(ix+4)
3692  1129  04          	inc	b
3693  112A  04          	inc	b
3694  112B  C5          	push	bc
3695  112C  AF          	xor	a, a
3696  112D  5A          	ld	e,d
3697  112E  57          	ld	d,a
3698  112F  D5          	push	de
3699  1130  C5          	push	bc
3700  1131  33          	inc	sp
3701  1132  CD A9 11    	call	_game_copy_sprite
3702  1135  F1          	pop	af
3703  1136  33          	inc	sp
3704  1137  C1          	pop	bc
3705  1138  DD 56 05    	ld	d,(ix+5)
3706  113B  14          	inc	d
3707  113C  14          	inc	d
3708  113D  14          	inc	d
3709  113E  DD 5E 04    	ld	e,(ix+4)
3710  1141  1C          	inc	e
3711  1142  1C          	inc	e
3712  1143  1C          	inc	e
3713  1144  C5          	push	bc
3714  1145  D5          	push	de
3715  1146  AF          	xor	a, a
3716  1147  F5          	push	af
3717  1148  33          	inc	sp
3718  1149  D5          	push	de
3719  114A  CD A9 11    	call	_game_copy_sprite
3720  114D  F1          	pop	af
3721  114E  33          	inc	sp
3722  114F  D1          	pop	de
3723  1150  C1          	pop	bc
3724  1151  DD 56 05    	ld	d,(ix+5)
3725  1154  14          	inc	d
3726  1155  14          	inc	d
3727  1156  14          	inc	d
3728  1157  14          	inc	d
3729  1158  C5          	push	bc
3730  1159  3E 01       	ld	a,0x01
3731  115B  F5          	push	af
3732  115C  33          	inc	sp
3733  115D  D5          	push	de
3734  115E  CD A9 11    	call	_game_copy_sprite
3735  1161  F1          	pop	af
3736  1162  33          	inc	sp
3737  1163  C1          	pop	bc
3738  1164  DD 7E 05    	ld	a,(ix+5)
3739  1167  C6 05       	add	a,0x05
3740  1169  57          	ld	d, a
3741  116A  C5          	push	bc
3742  116B  3E 01       	ld	a,0x01
3743  116D  5A          	ld	e,d
3744  116E  57          	ld	d,a
3745  116F  D5          	push	de
3746  1170  C5          	push	bc
3747  1171  33          	inc	sp
3748  1172  CD A9 11    	call	_game_copy_sprite
3749  1175  F1          	pop	af
3750  1176  33          	inc	sp
3751  1177  C1          	pop	bc
3752  1178  DD 7E 05    	ld	a,(ix+5)
3753  117B  C6 06       	add	a,0x06
3754  117D  47          	ld	b, a
3755  117E  3E 01       	ld	a,0x01
3756  1180  F5          	push	af
3757  1181  33          	inc	sp
3758  1182  C5          	push	bc
3759  1183  CD A9 11    	call	_game_copy_sprite
3760  1186  F1          	pop	af
3761  1187  33          	inc	sp
3762  1188  DD 7E 05    	ld	a,(ix+5)
3763  118B  C6 07       	add	a,0x07
3764  118D  47          	ld	b, a
3765  118E  3E 01       	ld	a,0x01
3766  1190  48          	ld	c,b
3767  1191  47          	ld	b,a
3768  1192  C5          	push	bc
3769  1193  DD 7E 04    	ld	a,(ix+4)
3770  1196  F5          	push	af
3771  1197  33          	inc	sp
3772  1198  CD A9 11    	call	_game_copy_sprite
3773  119B  F1          	pop	af
3774  119C  33          	inc	sp
3775  119D  CD CE 10    	call	_game_copy_sprite_color_reset
3776  11A0  DD 7E 05    	ld	a,(ix+5)
3777  11A3  C6 08       	add	a,0x08
3778  11A5  6F          	ld	l, a
3779  11A6  DD E1       	pop	ix
3780  11A8  C9          	ret
3781  11A9              	SECTION code_compiler
3782  11A9              ;	---------------------------------
3783  11A9              ; Function game_copy_sprite
3784  11A9              ; ---------------------------------
3785  11A9              _game_copy_sprite:
3786  11A9  CD 00 00    	call	___sdcc_enter_ix
3787  11AC  F5          	push	af
3788  11AD  3B          	dec	sp
3789  11AE  F3          	di
3790  11AF  DD 6E 04    	ld	l,(ix+4)
3791  11B2  26 00       	ld	h,0x00
3792  11B4  4D          	ld	c,l
3793  11B5  44          	ld	b,h
3794  11B6  29          	add	hl, hl
3795  11B7  09          	add	hl, bc
3796  11B8  29          	add	hl, hl
3797  11B9  29          	add	hl, hl
3798  11BA  29          	add	hl, hl
3799  11BB  29          	add	hl, hl
3800  11BC  3A 00 00    	ld	a,(_scr_curr)
3801  11BF  D6 14       	sub	a,0x14
3802  11C1  4D          	ld	c,l
3803  11C2  44          	ld	b,h
3804  11C3  30 08       	jr	NC,l_game_copy_sprite_00102
3805  11C5  21 00 00    	ld	hl,_hisprites1
3806  11C8  09          	add	hl,bc
3807  11C9  4D          	ld	c, l
3808  11CA  44          	ld	b, h
3809  11CB  18 06       	jr	l_game_copy_sprite_00103
3810  11CD              l_game_copy_sprite_00102:
3811  11CD  21 00 00    	ld	hl,_hisprites2
3812  11D0  09          	add	hl,bc
3813  11D1  4D          	ld	c, l
3814  11D2  44          	ld	b, h
3815  11D3              l_game_copy_sprite_00103:
3816  11D3  11 00 12    	ld	de, +(_btiles + 0x1200)
3817  11D6  C5          	push	bc
3818  11D7  D5          	push	de
3819  11D8  3E 03       	ld	a,0x03
3820  11DA  F5          	push	af
3821  11DB  33          	inc	sp
3822  11DC  CD 13 13    	call	_page
3823  11DF  33          	inc	sp
3824  11E0  D1          	pop	de
3825  11E1  E1          	pop	hl
3826  11E2  01 30 00    	ld	bc,0x0030
3827  11E5  ED B0       	ldir
3828  11E7  AF          	xor	a, a
3829  11E8  F5          	push	af
3830  11E9  33          	inc	sp
3831  11EA  CD 13 13    	call	_page
3832  11ED  33          	inc	sp
3833  11EE  FB          	ei
3834  11EF  0E 20       	ld	c,0x20
3835  11F1              l_game_copy_sprite_00115:
3836  11F1  79          	ld	a, c
3837  11F2  D6 30       	sub	a,0x30
3838  11F4  30 42       	jr	NC,l_game_copy_sprite_00117
3839  11F6  3E 00       	ld	a,+((_btiles+0x1200) & 0xFF)
3840  11F8  81          	add	a, c
3841  11F9  5F          	ld	e, a
3842  11FA  3E 12       	ld	a,+((_btiles+0x1200) / 256)
3843  11FC  CE 00       	adc	a,0x00
3844  11FE  57          	ld	d, a
3845  11FF  1A          	ld	a, (de)
3846  1200  47          	ld	b, a
3847  1201  3A 00 00    	ld	a,(_spr_init_cin0)
3848  1204  90          	sub	a, b
3849  1205  20 06       	jr	NZ,l_game_copy_sprite_00113
3850  1207  3A 00 00    	ld	a,(_spr_init_cout0)
3851  120A  12          	ld	(de), a
3852  120B  18 22       	jr	l_game_copy_sprite_00114
3853  120D              l_game_copy_sprite_00113:
3854  120D  3A 00 00    	ld	a,(_spr_init_cin1)
3855  1210  90          	sub	a, b
3856  1211  20 06       	jr	NZ,l_game_copy_sprite_00110
3857  1213  3A 00 00    	ld	a,(_spr_init_cout1)
3858  1216  12          	ld	(de), a
3859  1217  18 16       	jr	l_game_copy_sprite_00114
3860  1219              l_game_copy_sprite_00110:
3861  1219  3A 00 00    	ld	a,(_spr_init_cin2)
3862  121C  90          	sub	a, b
3863  121D  20 06       	jr	NZ,l_game_copy_sprite_00107
3864  121F  3A 00 00    	ld	a,(_spr_init_cout2)
3865  1222  12          	ld	(de), a
3866  1223  18 0A       	jr	l_game_copy_sprite_00114
3867  1225              l_game_copy_sprite_00107:
3868  1225  3A 00 00    	ld	a,(_spr_init_cin3)
3869  1228  90          	sub	a, b
3870  1229  20 04       	jr	NZ,l_game_copy_sprite_00114
3871  122B  3A 00 00    	ld	a,(_spr_init_cout3)
3872  122E  12          	ld	(de), a
3873  122F              l_game_copy_sprite_00114:
3874  122F  1A          	ld	a, (de)
3875  1230  21 00 00    	ld	hl,_spr_init_bright
3876  1233  B6          	or	a, (hl)
3877  1234  12          	ld	(de), a
3878  1235  0C          	inc	c
3879  1236  18 B9       	jr	l_game_copy_sprite_00115
3880  1238              l_game_copy_sprite_00117:
3881  1238  DD 6E 05    	ld	l,(ix+5)
3882  123B  26 00       	ld	h,0x00
3883  123D  4D          	ld	c,l
3884  123E  44          	ld	b,h
3885  123F  29          	add	hl, hl
3886  1240  09          	add	hl, bc
3887  1241  29          	add	hl, hl
3888  1242  29          	add	hl, hl
3889  1243  29          	add	hl, hl
3890  1244  29          	add	hl, hl
3891  1245  DD 75 FE    	ld	(ix-2),l
3892  1248  DD 74 FF    	ld	(ix-1),h
3893  124B  0E 00       	ld	c,0x00
3894  124D              l_game_copy_sprite_00130:
3895  124D  79          	ld	a,c
3896  124E  FE 30       	cp	a,0x30
3897  1250  30 79       	jr	NC,l_game_copy_sprite_00133
3898  1252  3C          	inc	a
3899  1253  DD 77 FD    	ld	(ix-3),a
3900  1256  3E 00       	ld	a, +((_btiles) & 0xFF)
3901  1258  DD 86 FE    	add	a,(ix-2)
3902  125B  5F          	ld	e, a
3903  125C  3E 00       	ld	a, +((_btiles) / 256)
3904  125E  DD 8E FF    	adc	a,(ix-1)
3905  1261  57          	ld	d, a
3906  1262  DD 7E 06    	ld	a,(ix+6)
3907  1265  B7          	or	a, a
3908  1266  28 4D       	jr	Z,l_game_copy_sprite_00128
3909  1268  79          	ld	a, c
3910  1269  D6 20       	sub	a,0x20
3911  126B  30 29       	jr	NC,l_game_copy_sprite_00125
3912  126D  CB 41       	bit	0, c
3913  126F  20 08       	jr	NZ,l_game_copy_sprite_00119
3914  1271  DD 7E FD    	ld	a,(ix-3)
3915  1274  32 00 00    	ld	(_v0),a
3916  1277  18 06       	jr	l_game_copy_sprite_00120
3917  1279              l_game_copy_sprite_00119:
3918  1279  79          	ld	a, c
3919  127A  C6 FF       	add	a,0xff
3920  127C  32 00 00    	ld	(_v0),a
3921  127F              l_game_copy_sprite_00120:
3922  127F  2A 00 00    	ld	hl,(_v0)
3923  1282  26 00       	ld	h,0x00
3924  1284  01 00 12    	ld	bc,+(_btiles + 0x1200)
3925  1287  09          	add	hl,bc
3926  1288  4D          	ld	c,l
3927  1289  46          	ld	b,(hl)
3928  128A  D5          	push	de
3929  128B  C5          	push	bc
3930  128C  33          	inc	sp
3931  128D  CD D0 12    	call	_reverse
3932  1290  33          	inc	sp
3933  1291  D1          	pop	de
3934  1292  7D          	ld	a,l
3935  1293  12          	ld	(de), a
3936  1294  18 27       	jr	l_game_copy_sprite_00129
3937  1296              l_game_copy_sprite_00125:
3938  1296  79          	ld	a,c
3939  1297  FE 28       	cp	a,0x28
3940  1299  30 07       	jr	NC,l_game_copy_sprite_00122
3941  129B  C6 08       	add	a,0x08
3942  129D  32 00 00    	ld	(_v0),a
3943  12A0  18 06       	jr	l_game_copy_sprite_00123
3944  12A2              l_game_copy_sprite_00122:
3945  12A2  79          	ld	a, c
3946  12A3  C6 F8       	add	a,0xf8
3947  12A5  32 00 00    	ld	(_v0),a
3948  12A8              l_game_copy_sprite_00123:
3949  12A8  2A 00 00    	ld	hl,(_v0)
3950  12AB  26 00       	ld	h,0x00
3951  12AD  01 00 12    	ld	bc,+(_btiles + 0x1200)
3952  12B0  09          	add	hl,bc
3953  12B1  7E          	ld	a,(hl)
3954  12B2  12          	ld	(de), a
3955  12B3  18 08       	jr	l_game_copy_sprite_00129
3956  12B5              l_game_copy_sprite_00128:
3957  12B5  06 00       	ld	b,0x00
3958  12B7  21 00 12    	ld	hl,+(_btiles + 0x1200)
3959  12BA  09          	add	hl, bc
3960  12BB  7E          	ld	a, (hl)
3961  12BC  12          	ld	(de), a
3962  12BD              l_game_copy_sprite_00129:
3963  12BD  DD 4E FD    	ld	c,(ix-3)
3964  12C0  DD 34 FE    	inc	(ix-2)
3965  12C3  20 88       	jr	NZ,l_game_copy_sprite_00130
3966  12C5  DD 34 FF    	inc	(ix-1)
3967  12C8  C3 4D 12    	jp	l_game_copy_sprite_00130
3968  12CB              l_game_copy_sprite_00133:
3969  12CB  DD F9       	ld	sp, ix
3970  12CD  DD E1       	pop	ix
3971  12CF  C9          	ret
3972  12D0              	SECTION code_compiler
3973  12D0              ;	---------------------------------
3974  12D0              ; Function reverse
3975  12D0              ; ---------------------------------
3976  12D0              _reverse:
3977  12D0  CD 00 00    	call	___sdcc_enter_ix
3978  12D3  DD 7E 04    	ld	a,(ix+4)
3979  12D6  E6 F0       	and	a,0xf0
3980  12D8  07          	rlca
3981  12D9  07          	rlca
3982  12DA  07          	rlca
3983  12DB  07          	rlca
3984  12DC  E6 0F       	and	a,0x0f
3985  12DE  4F          	ld	c, a
3986  12DF  DD 7E 04    	ld	a,(ix+4)
3987  12E2  E6 0F       	and	a,0x0f
3988  12E4  07          	rlca
3989  12E5  07          	rlca
3990  12E6  07          	rlca
3991  12E7  07          	rlca
3992  12E8  E6 F0       	and	a,0xf0
3993  12EA  B1          	or	a, c
3994  12EB  DD 77 04    	ld	(ix+4),a
3995  12EE  E6 CC       	and	a,0xcc
3996  12F0  4F          	ld	c, a
3997  12F1  CB 39       	srl	c
3998  12F3  CB 39       	srl	c
3999  12F5  DD 7E 04    	ld	a,(ix+4)
4000  12F8  E6 33       	and	a,0x33
4001  12FA  87          	add	a, a
4002  12FB  87          	add	a, a
4003  12FC  B1          	or	a, c
4004  12FD  DD 77 04    	ld	(ix+4),a
4005  1300  E6 AA       	and	a,0xaa
4006  1302  4F          	ld	c, a
4007  1303  CB 39       	srl	c
4008  1305  DD 7E 04    	ld	a,(ix+4)
4009  1308  E6 55       	and	a,0x55
4010  130A  87          	add	a, a
4011  130B  B1          	or	a, c
4012  130C  DD 77 04    	ld	(ix+4),a
4013  130F  6F          	ld	l, a
4014  1310  DD E1       	pop	ix
4015  1312  C9          	ret
4016  1313              	SECTION code_compiler
4017  1313              ;	---------------------------------
4018  1313              ; Function page
4019  1313              ; ---------------------------------
4020  1313              _page:
4021  1313  CD 00 00    	call	___sdcc_enter_ix
4022  1316  DD 7E 04    	ld	a,(ix+4)
4023  1319  C6 10       	add	a,0x10
4024  131B  32 00 00    	ld	(_GLOBAL_ZX_PORT_7FFD),a
4025  131E  01 FD 7F    	ld	bc,_IO_7FFD
4026  1321  ED 79       	out	(c),a
4027  1323  DD E1       	pop	ix
4028  1325  C9          	ret
4029  1326              	SECTION code_compiler
4030  1326              ;	---------------------------------
4031  1326              ; Function game_intro
4032  1326              ; ---------------------------------
4033  1326              _game_intro:
4034  1326  3A 00 00    	ld	a,(_game_debug)
4035  1329  B7          	or	a, a
4036  132A  C2 56 14    	jp	NZ, l_game_intro_00108
4037  132D  CD 00 00    	call	_audio_coin_noentiendo
4038  1330  CD 53 08    	call	_game_cls
4039  1333  21 00 00    	ld	hl,_v0
4040  1336  36 00       	ld	(hl),0x00
4041  1338  21 00 00    	ld	hl,_v2
4042  133B  36 50       	ld	(hl),0x50
4043  133D  21 00 00    	ld	hl,_v1
4044  1340  36 00       	ld	(hl),0x00
4045  1342              l_game_intro_00103:
4046  1342  21 00 00    	ld	hl,_v0
4047  1345  7E          	ld	a, (hl)
4048  1346  D6 10       	sub	a,0x10
4049  1348  30 2E       	jr	NC,l_game_intro_00105
4050  134A  7E          	ld	a, (hl)
4051  134B  C6 08       	add	a,0x08
4052  134D  F5          	push	af
4053  134E  33          	inc	sp
4054  134F  2A 00 00    	ld	hl,(_v2)
4055  1352  26 60       	ld	h,0x60
4056  1354  3A 00 00    	ld	a,(_v1)
4057  1357  E5          	push	hl
4058  1358  F5          	push	af
4059  1359  33          	inc	sp
4060  135A  CD 00 00    	call	_NIRVANAP_spriteT_callee
4061  135D  21 00 00    	ld	hl,_v0
4062  1360  34          	inc	(hl)
4063  1361  34          	inc	(hl)
4064  1362  21 00 00    	ld	hl,_v2
4065  1365  34          	inc	(hl)
4066  1366  21 00 00    	ld	hl,_v1
4067  1369  7E          	ld	a,(hl)
4068  136A  3C          	inc	a
4069  136B  77          	ld	(hl),a
4070  136C  D6 07       	sub	a,0x07
4071  136E  20 D2       	jr	NZ,l_game_intro_00103
4072  1370  21 00 00    	ld	hl,_v1
4073  1373  36 00       	ld	(hl),0x00
4074  1375  76          	halt
4075  1376  18 CA       	jr	l_game_intro_00103
4076  1378              l_game_intro_00105:
4077  1378  21 F4 01    	ld	hl,0x01f4
4078  137B  CD 00 00    	call	_z80_delay_ms_fastcall
4079  137E  21 08 0A    	ld	hl,0x0a08
4080  1381  E5          	push	hl
4081  1382  21 10 04    	ld	hl,0x0410
4082  1385  E5          	push	hl
4083  1386  AF          	xor	a, a
4084  1387  F5          	push	af
4085  1388  33          	inc	sp
4086  1389  CD FD 05    	call	_game_logo1
4087  138C  F1          	pop	af
4088  138D  33          	inc	sp
4089  138E  21 00 13    	ld	hl,0x1300
4090  1391  E3          	ex	(sp),hl
4091  1392  CD B3 16    	call	_game_text
4092  1395  21 01 14    	ld	hl,0x1401
4093  1398  E3          	ex	(sp),hl
4094  1399  CD B3 16    	call	_game_text
4095  139C  21 02 15    	ld	hl,0x1502
4096  139F  E3          	ex	(sp),hl
4097  13A0  CD B3 16    	call	_game_text
4098  13A3  21 03 16    	ld	hl,0x1603
4099  13A6  E3          	ex	(sp),hl
4100  13A7  CD B3 16    	call	_game_text
4101  13AA  F1          	pop	af
4102  13AB  21 19 00    	ld	hl,0x0019
4103  13AE  CD 00 00    	call	_z80_delay_ms_fastcall
4104  13B1  CD 53 08    	call	_game_cls
4105  13B4  21 0A 06    	ld	hl,0x060a
4106  13B7  E5          	push	hl
4107  13B8  21 20 02    	ld	hl,0x0220
4108  13BB  E5          	push	hl
4109  13BC  3E 03       	ld	a,0x03
4110  13BE  F5          	push	af
4111  13BF  33          	inc	sp
4112  13C0  CD FD 05    	call	_game_logo1
4113  13C3  F1          	pop	af
4114  13C4  33          	inc	sp
4115  13C5  21 00 13    	ld	hl,0x1300
4116  13C8  E3          	ex	(sp),hl
4117  13C9  CD B3 16    	call	_game_text
4118  13CC  21 01 14    	ld	hl,0x1401
4119  13CF  E3          	ex	(sp),hl
4120  13D0  CD B3 16    	call	_game_text
4121  13D3  21 02 15    	ld	hl,0x1502
4122  13D6  E3          	ex	(sp),hl
4123  13D7  CD B3 16    	call	_game_text
4124  13DA  21 03 16    	ld	hl,0x1603
4125  13DD  E3          	ex	(sp),hl
4126  13DE  CD B3 16    	call	_game_text
4127  13E1  F1          	pop	af
4128  13E2  21 19 00    	ld	hl,0x0019
4129  13E5  CD 00 00    	call	_z80_delay_ms_fastcall
4130  13E8  CD 53 08    	call	_game_cls
4131  13EB  21 0A 06    	ld	hl,0x060a
4132  13EE  E5          	push	hl
4133  13EF  21 20 02    	ld	hl,0x0220
4134  13F2  E5          	push	hl
4135  13F3  3E 04       	ld	a,0x04
4136  13F5  F5          	push	af
4137  13F6  33          	inc	sp
4138  13F7  CD FD 05    	call	_game_logo1
4139  13FA  F1          	pop	af
4140  13FB  33          	inc	sp
4141  13FC  21 00 13    	ld	hl,0x1300
4142  13FF  E3          	ex	(sp),hl
4143  1400  CD B3 16    	call	_game_text
4144  1403  21 01 14    	ld	hl,0x1401
4145  1406  E3          	ex	(sp),hl
4146  1407  CD B3 16    	call	_game_text
4147  140A  21 02 15    	ld	hl,0x1502
4148  140D  E3          	ex	(sp),hl
4149  140E  CD B3 16    	call	_game_text
4150  1411  21 03 16    	ld	hl,0x1603
4151  1414  E3          	ex	(sp),hl
4152  1415  CD B3 16    	call	_game_text
4153  1418  F1          	pop	af
4154  1419  21 19 00    	ld	hl,0x0019
4155  141C  CD 00 00    	call	_z80_delay_ms_fastcall
4156  141F  CD 53 08    	call	_game_cls
4157  1422  21 0A 06    	ld	hl,0x060a
4158  1425  E5          	push	hl
4159  1426  21 20 02    	ld	hl,0x0220
4160  1429  E5          	push	hl
4161  142A  3E 05       	ld	a,0x05
4162  142C  F5          	push	af
4163  142D  33          	inc	sp
4164  142E  CD FD 05    	call	_game_logo1
4165  1431  F1          	pop	af
4166  1432  33          	inc	sp
4167  1433  21 00 13    	ld	hl,0x1300
4168  1436  E3          	ex	(sp),hl
4169  1437  CD B3 16    	call	_game_text
4170  143A  21 01 14    	ld	hl,0x1401
4171  143D  E3          	ex	(sp),hl
4172  143E  CD B3 16    	call	_game_text
4173  1441  21 02 15    	ld	hl,0x1502
4174  1444  E3          	ex	(sp),hl
4175  1445  CD B3 16    	call	_game_text
4176  1448  21 03 16    	ld	hl,0x1603
4177  144B  E3          	ex	(sp),hl
4178  144C  CD B3 16    	call	_game_text
4179  144F  F1          	pop	af
4180  1450  21 19 00    	ld	hl,0x0019
4181  1453  CD 00 00    	call	_z80_delay_ms_fastcall
4182  1456              l_game_intro_00108:
4183  1456  C9          	ret
4184  1457              	SECTION code_compiler
4185  1457              ;	---------------------------------
4186  1457              ; Function game_shoe
4187  1457              ; ---------------------------------
4188  1457              _game_shoe:
4189  1457  CD 00 00    	call	___sdcc_enter_ix
4190  145A  3B          	dec	sp
4191  145B  CD 53 08    	call	_game_cls
4192  145E  CD 00 00    	call	_audio_game_over
4193  1461  3E 13       	ld	a,0x13
4194  1463  21 00 00    	ld	hl,_scr_curr
4195  1466  96          	sub	a, (hl)
4196  1467  30 0D       	jr	NC,l_game_shoe_00102
4197  1469  21 60 0F    	ld	hl,0x0f60
4198  146C  E5          	push	hl
4199  146D  3E 5A       	ld	a,0x5a
4200  146F  F5          	push	af
4201  1470  33          	inc	sp
4202  1471  CD 00 00    	call	_NIRVANAP_drawT_callee
4203  1474  18 0B       	jr	l_game_shoe_00103
4204  1476              l_game_shoe_00102:
4205  1476  21 60 0F    	ld	hl,0x0f60
4206  1479  E5          	push	hl
4207  147A  3E 5B       	ld	a,0x5b
4208  147C  F5          	push	af
4209  147D  33          	inc	sp
4210  147E  CD 00 00    	call	_NIRVANAP_drawT_callee
4211  1481              l_game_shoe_00103:
4212  1481  21 70 0F    	ld	hl,0x0f70
4213  1484  E5          	push	hl
4214  1485  3E 5C       	ld	a,0x5c
4215  1487  F5          	push	af
4216  1488  33          	inc	sp
4217  1489  CD 00 00    	call	_NIRVANAP_drawT_callee
4218  148C  21 00 00    	ld	hl,_v0
4219  148F  36 10       	ld	(hl),0x10
4220  1491              l_game_shoe_00104:
4221  1491  3E 5E       	ld	a,0x5e
4222  1493  21 00 00    	ld	hl,_v0
4223  1496  96          	sub	a, (hl)
4224  1497  38 15       	jr	C,l_game_shoe_00106
4225  1499  34          	inc	(hl)
4226  149A  34          	inc	(hl)
4227  149B  6E          	ld	l,(hl)
4228  149C  26 0F       	ld	h,0x0f
4229  149E  E5          	push	hl
4230  149F  21 00 5D    	ld	hl,0x5d00
4231  14A2  E5          	push	hl
4232  14A3  CD 00 00    	call	_NIRVANAP_spriteT_callee
4233  14A6  21 19 00    	ld	hl,0x0019
4234  14A9  CD 00 00    	call	_z80_delay_ms_fastcall
4235  14AC  18 E3       	jr	l_game_shoe_00104
4236  14AE              l_game_shoe_00106:
4237  14AE  21 00 00    	ld	hl,_v0
4238  14B1  36 01       	ld	(hl),0x01
4239  14B3  2A 00 00    	ld	hl,(_curr_time)
4240  14B6  22 00 00    	ld	(_time_conv),hl
4241  14B9  3E 0A       	ld	a,0x0a
4242  14BB  2A 00 00    	ld	hl,(_scr_curr)
4243  14BE  67          	ld	h,a
4244  14BF  E5          	push	hl
4245  14C0  CD 00 00    	call	__divuchar_callee
4246  14C3  7D          	ld	a,l
4247  14C4  32 05 00    	ld	((_code0 + 0x0005)),a
4248  14C7  47          	ld	b,a
4249  14C8  5F          	ld	e, a
4250  14C9  87          	add	a, a
4251  14CA  87          	add	a, a
4252  14CB  83          	add	a, e
4253  14CC  87          	add	a, a
4254  14CD  4F          	ld	c, a
4255  14CE  3A 00 00    	ld	a,(_scr_curr)
4256  14D1  91          	sub	a, c
4257  14D2  DD 77 FF    	ld	(ix-1),a
4258  14D5  21 02 00    	ld	hl, +(_code0 + 0x0002)
4259  14D8  DD 7E FF    	ld	a,(ix-1)
4260  14DB  77          	ld	(hl), a
4261  14DC  2A 00 00    	ld	hl,(_game_lives)
4262  14DF  C5          	push	bc
4263  14E0  26 64       	ld	h,0x64
4264  14E2  E5          	push	hl
4265  14E3  CD 00 00    	call	__divuchar_callee
4266  14E6  F1          	pop	af
4267  14E7  4D          	ld	c,l
4268  14E8  47          	ld	b, a
4269  14E9  21 03 00    	ld	hl, +(_code0 + 0x0003)
4270  14EC  71          	ld	(hl), c
4271  14ED  3A 00 00    	ld	a,(_game_lives)
4272  14F0  5F          	ld	e,a
4273  14F1  16 00       	ld	d,0x00
4274  14F3  D5          	push	de
4275  14F4  59          	ld	e,c
4276  14F5  16 00       	ld	d,0x00
4277  14F7  6B          	ld	l, e
4278  14F8  62          	ld	h, d
4279  14F9  29          	add	hl, hl
4280  14FA  19          	add	hl, de
4281  14FB  29          	add	hl, hl
4282  14FC  29          	add	hl, hl
4283  14FD  29          	add	hl, hl
4284  14FE  19          	add	hl, de
4285  14FF  29          	add	hl, hl
4286  1500  29          	add	hl, hl
4287  1501  D1          	pop	de
4288  1502  7B          	ld	a, e
4289  1503  95          	sub	a, l
4290  1504  5F          	ld	e, a
4291  1505  7A          	ld	a, d
4292  1506  9C          	sbc	a, h
4293  1507  57          	ld	d, a
4294  1508  C5          	push	bc
4295  1509  21 0A 00    	ld	hl,0x000a
4296  150C  E5          	push	hl
4297  150D  D5          	push	de
4298  150E  CD 00 00    	call	__divsint_callee
4299  1511  C1          	pop	bc
4300  1512  55          	ld	d,l
4301  1513  21 06 00    	ld	hl, +(_code0 + 0x0006)
4302  1516  72          	ld	(hl), d
4303  1517  79          	ld	a, c
4304  1518  87          	add	a, a
4305  1519  81          	add	a, c
4306  151A  87          	add	a, a
4307  151B  87          	add	a, a
4308  151C  87          	add	a, a
4309  151D  81          	add	a, c
4310  151E  87          	add	a, a
4311  151F  87          	add	a, a
4312  1520  5F          	ld	e, a
4313  1521  D5          	push	de
4314  1522  6A          	ld	l, d
4315  1523  5D          	ld	e, l
4316  1524  29          	add	hl, hl
4317  1525  29          	add	hl, hl
4318  1526  19          	add	hl, de
4319  1527  29          	add	hl, hl
4320  1528  D1          	pop	de
4321  1529  7B          	ld	a, e
4322  152A  85          	add	a, l
4323  152B  5F          	ld	e, a
4324  152C  3A 00 00    	ld	a,(_game_lives)
4325  152F  93          	sub	a, e
4326  1530  21 00 00    	ld	hl,_code0
4327  1533  77          	ld	(hl),a
4328  1534  5F          	ld	e,a
4329  1535  78          	ld	a, b
4330  1536  DD 86 FF    	add	a,(ix-1)
4331  1539  6F          	ld	l, a
4332  153A  19          	add	hl, de
4333  153B  7D          	ld	a, l
4334  153C  82          	add	a, d
4335  153D  81          	add	a, c
4336  153E  32 00 00    	ld	(_v3),a
4337  1541  6F          	ld	l,a
4338  1542  26 64       	ld	h,0x64
4339  1544  E5          	push	hl
4340  1545  CD 00 00    	call	__divuchar_callee
4341  1548  7D          	ld	a,l
4342  1549  32 07 00    	ld	((_code0 + 0x0007)),a
4343  154C  4F          	ld	c,a
4344  154D  21 00 00    	ld	hl,_v3
4345  1550  5E          	ld	e, (hl)
4346  1551  06 00       	ld	b,0x00
4347  1553  D5          	push	de
4348  1554  59          	ld	e,c
4349  1555  16 00       	ld	d,0x00
4350  1557  6B          	ld	l, e
4351  1558  62          	ld	h, d
4352  1559  29          	add	hl, hl
4353  155A  19          	add	hl, de
4354  155B  29          	add	hl, hl
4355  155C  29          	add	hl, hl
4356  155D  29          	add	hl, hl
4357  155E  19          	add	hl, de
4358  155F  29          	add	hl, hl
4359  1560  29          	add	hl, hl
4360  1561  D1          	pop	de
4361  1562  55          	ld	d,l
4362  1563  7B          	ld	a, e
4363  1564  92          	sub	a, d
4364  1565  5F          	ld	e, a
4365  1566  78          	ld	a, b
4366  1567  9D          	sbc	a, l
4367  1568  57          	ld	d, a
4368  1569  C5          	push	bc
4369  156A  21 0A 00    	ld	hl,0x000a
4370  156D  E5          	push	hl
4371  156E  D5          	push	de
4372  156F  CD 00 00    	call	__divsint_callee
4373  1572  EB          	ex	de,hl
4374  1573  C1          	pop	bc
4375  1574  21 04 00    	ld	hl, +(_code0 + 0x0004)
4376  1577  73          	ld	(hl), e
4377  1578  79          	ld	a, c
4378  1579  87          	add	a, a
4379  157A  81          	add	a, c
4380  157B  87          	add	a, a
4381  157C  87          	add	a, a
4382  157D  87          	add	a, a
4383  157E  81          	add	a, c
4384  157F  87          	add	a, a
4385  1580  87          	add	a, a
4386  1581  4F          	ld	c, a
4387  1582  6B          	ld	l, e
4388  1583  29          	add	hl, hl
4389  1584  29          	add	hl, hl
4390  1585  19          	add	hl, de
4391  1586  29          	add	hl, hl
4392  1587  79          	ld	a, c
4393  1588  85          	add	a, l
4394  1589  4F          	ld	c, a
4395  158A  3A 00 00    	ld	a,(_v3)
4396  158D  91          	sub	a, c
4397  158E  32 01 00    	ld	((_code0 + 0x0001)),a
4398  1591  21 00 00    	ld	hl,_screen_ink
4399  1594  36 46       	ld	(hl),0x46
4400  1596  21 6B 00    	ld	hl,___str_15
4401  1599  E5          	push	hl
4402  159A  21 14 08    	ld	hl,0x0814
4403  159D  E5          	push	hl
4404  159E  CD 00 00    	call	_zx_print_str
4405  15A1  21 00 00    	ld	hl,_i
4406  15A4  36 00       	ld	(hl),0x00
4407  15A6              l_game_shoe_00107:
4408  15A6  21 00 00    	ld	hl,_i
4409  15A9  7E          	ld	a, (hl)
4410  15AA  D6 08       	sub	a,0x08
4411  15AC  30 25       	jr	NC,l_game_shoe_00125
4412  15AE  4E          	ld	c,(hl)
4413  15AF  06 00       	ld	b,0x00
4414  15B1  21 00 00    	ld	hl,_code0
4415  15B4  09          	add	hl,bc
4416  15B5  4E          	ld	c, (hl)
4417  15B6  06 00       	ld	b,0x00
4418  15B8  21 00 00    	ld	hl,_game_encode
4419  15BB  09          	add	hl, bc
4420  15BC  56          	ld	d, (hl)
4421  15BD  3A 00 00    	ld	a,(_i)
4422  15C0  C6 0F       	add	a,0x0f
4423  15C2  5F          	ld	e, a
4424  15C3  D5          	push	de
4425  15C4  3E 14       	ld	a,0x14
4426  15C6  F5          	push	af
4427  15C7  33          	inc	sp
4428  15C8  CD 91 16    	call	_zx_print_char
4429  15CB  F1          	pop	af
4430  15CC  33          	inc	sp
4431  15CD  21 00 00    	ld	hl,_i
4432  15D0  34          	inc	(hl)
4433  15D1  18 D3       	jr	l_game_shoe_00107
4434  15D3              l_game_shoe_00125:
4435  15D3              l_game_shoe_00113:
4436  15D3  3A 00 00    	ld	a,(_v0)
4437  15D6  B7          	or	a, a
4438  15D7  CA 56 16    	jp	Z, l_game_shoe_00116
4439  15DA  21 0C 38    	ld	hl,0x380c
4440  15DD  E5          	push	hl
4441  15DE  3E 08       	ld	a,0x08
4442  15E0  F5          	push	af
4443  15E1  33          	inc	sp
4444  15E2  21 00 00    	ld	hl,_attrib_osd
4445  15E5  E5          	push	hl
4446  15E6  CD 2E 0E    	call	_game_paint_attrib
4447  15E9  F1          	pop	af
4448  15EA  33          	inc	sp
4449  15EB  21 73 00    	ld	hl,___str_16
4450  15EE  E3          	ex	(sp),hl
4451  15EF  21 06 08    	ld	hl,0x0806
4452  15F2  E5          	push	hl
4453  15F3  CD 00 00    	call	_zx_print_str
4454  15F6  21 18 38    	ld	hl,0x3818
4455  15F9  E5          	push	hl
4456  15FA  3E 14       	ld	a,0x14
4457  15FC  F5          	push	af
4458  15FD  33          	inc	sp
4459  15FE  21 00 00    	ld	hl,_attrib_osd
4460  1601  E5          	push	hl
4461  1602  CD 2E 0E    	call	_game_paint_attrib
4462  1605  F1          	pop	af
4463  1606  33          	inc	sp
4464  1607  21 78 00    	ld	hl,___str_17
4465  160A  E3          	ex	(sp),hl
4466  160B  21 06 14    	ld	hl,0x1406
4467  160E  E5          	push	hl
4468  160F  CD 00 00    	call	_zx_print_str
4469  1612  01 03 00    	ld	bc,_attrib_osd + 3
4470  1615  0A          	ld	a, (bc)
4471  1616  32 00 00    	ld	(_v1),a
4472  1619  11 02 00    	ld	de,_attrib_osd + 2
4473  161C  1A          	ld	a, (de)
4474  161D  02          	ld	(bc), a
4475  161E  01 01 00    	ld	bc,_attrib_osd + 1
4476  1621  0A          	ld	a, (bc)
4477  1622  12          	ld	(de), a
4478  1623  3A 00 00    	ld	a,(_attrib_osd)
4479  1626  02          	ld	(bc), a
4480  1627  3A 00 00    	ld	a,(_v1)
4481  162A  32 00 00    	ld	(_attrib_osd),a
4482  162D  CD 00 00    	call	_in_inkey
4483  1630  7D          	ld	a,l
4484  1631  32 00 00    	ld	(_v2),a
4485  1634  B7          	or	a, a
4486  1635  20 11       	jr	NZ,l_game_shoe_00110
4487  1637  21 F4 01    	ld	hl,0x01f4
4488  163A  E5          	push	hl
4489  163B  21 00 00    	ld	hl,_time_conv
4490  163E  E5          	push	hl
4491  163F  CD 50 0E    	call	_game_check_time
4492  1642  F1          	pop	af
4493  1643  F1          	pop	af
4494  1644  7D          	ld	a, l
4495  1645  B7          	or	a, a
4496  1646  28 05       	jr	Z,l_game_shoe_00111
4497  1648              l_game_shoe_00110:
4498  1648  21 00 00    	ld	hl,_v0
4499  164B  36 00       	ld	(hl),0x00
4500  164D              l_game_shoe_00111:
4501  164D  21 0A 00    	ld	hl,0x000a
4502  1650  CD 00 00    	call	_z80_delay_ms_fastcall
4503  1653  C3 D3 15    	jp	l_game_shoe_00113
4504  1656              l_game_shoe_00116:
4505  1656  33          	inc	sp
4506  1657  DD E1       	pop	ix
4507  1659  C9          	ret
4508  165A              	SECTION rodata_compiler
4509  006B              ___str_15:
4510  006B  43 4F 44 45 20 3A 20 
                        	DEFM "CODE : "
4511  0072  00          	DEFB 0x00
4512  0073              	SECTION rodata_compiler
4513  0073              ___str_16:
4514  0073  47 61 6D 65 	DEFM "Game"
4515  0077  00          	DEFB 0x00
4516  0078              	SECTION rodata_compiler
4517  0078              ___str_17:
4518  0078  4F 76 65 72 	DEFM "Over"
4519  007C  00          	DEFB 0x00
4520  007D              	SECTION code_compiler
4521  165A              ;	---------------------------------
4522  165A              ; Function game_crumble
4523  165A              ; ---------------------------------
4524  165A              _game_crumble:
4525  165A  3A 08 00    	ld	a,(_state + 0x0008)
4526  165D  CB 47       	bit	0, a
4527  165F  20 2F       	jr	NZ,l_game_crumble_00104
4528  1661  CB 4F       	bit	1, a
4529  1663  20 2B       	jr	NZ,l_game_crumble_00104
4530  1665  3A 08 00    	ld	a,(_col + 0x0008)
4531  1668  32 00 00    	ld	(_s_col1),a
4532  166B  3A 08 00    	ld	a,(_lin + 0x0008)
4533  166E  C6 10       	add	a,0x10
4534  1670  47          	ld	b, a
4535  1671  3A 00 00    	ld	a,(_s_col1)
4536  1674  48          	ld	c,b
4537  1675  47          	ld	b,a
4538  1676  C5          	push	bc
4539  1677  CD 00 00    	call	_spr_calc_index
4540  167A  F1          	pop	af
4541  167B  22 00 00    	ld	(_index1),hl
4542  167E  CD 00 00    	call	_player_crumble
4543  1681  21 00 00    	ld	hl,_index1
4544  1684  34          	inc	(hl)
4545  1685  20 02       	jr	NZ,l_game_crumble_00118
4546  1687  23          	inc	hl
4547  1688  34          	inc	(hl)
4548  1689              l_game_crumble_00118:
4549  1689  21 00 00    	ld	hl,_s_col1
4550  168C  34          	inc	(hl)
4551  168D  CD 00 00    	call	_player_crumble
4552  1690              l_game_crumble_00104:
4553  1690  C9          	ret
4554  1691              	SECTION code_compiler
4555  1691              ;	---------------------------------
4556  1691              ; Function zx_print_char
4557  1691              ; ---------------------------------
4558  1691              _zx_print_char:
4559  1691  CD 00 00    	call	___sdcc_enter_ix
4560  1694  F5          	push	af
4561  1695  21 00 00    	ld	hl,0x0000
4562  1698  39          	add	hl, sp
4563  1699  DD 7E 06    	ld	a,(ix+6)
4564  169C  77          	ld	(hl),a
4565  169D  5D          	ld	e,l
4566  169E  54          	ld	d,h
4567  169F  4D          	ld	c,l
4568  16A0  44          	ld	b,h
4569  16A1  13          	inc	de
4570  16A2  AF          	xor	a, a
4571  16A3  12          	ld	(de), a
4572  16A4  C5          	push	bc
4573  16A5  DD 66 05    	ld	h,(ix+5)
4574  16A8  DD 6E 04    	ld	l,(ix+4)
4575  16AB  E5          	push	hl
4576  16AC  CD 00 00    	call	_zx_print_str
4577  16AF  F1          	pop	af
4578  16B0  DD E1       	pop	ix
4579  16B2  C9          	ret
4580  16B3              	SECTION code_compiler
4581  16B3              ;	---------------------------------
4582  16B3              ; Function game_text
4583  16B3              ; ---------------------------------
4584  16B3              _game_text:
4585  16B3  CD 00 00    	call	___sdcc_enter_ix
4586  16B6  21 DE FF    	ld	hl, -34
4587  16B9  39          	add	hl, sp
4588  16BA  F9          	ld	sp, hl
4589  16BB  01 00 00    	ld	bc,_texts+0
4590  16BE  DD 6E 04    	ld	l,(ix+4)
4591  16C1  16 00       	ld	d,0x00
4592  16C3  62          	ld	h, d
4593  16C4  29          	add	hl, hl
4594  16C5  29          	add	hl, hl
4595  16C6  29          	add	hl, hl
4596  16C7  29          	add	hl, hl
4597  16C8  29          	add	hl, hl
4598  16C9  09          	add	hl,bc
4599  16CA  4D          	ld	c, l
4600  16CB  44          	ld	b, h
4601  16CC  21 00 00    	ld	hl,0x0000
4602  16CF  39          	add	hl, sp
4603  16D0  DD 75 FE    	ld	(ix-2),l
4604  16D3  DD 74 FF    	ld	(ix-1),h
4605  16D6  EB          	ex	de,hl
4606  16D7  F3          	di
4607  16D8  C5          	push	bc
4608  16D9  D5          	push	de
4609  16DA  3E 06       	ld	a,0x06
4610  16DC  F5          	push	af
4611  16DD  33          	inc	sp
4612  16DE  CD 13 13    	call	_page
4613  16E1  33          	inc	sp
4614  16E2  D1          	pop	de
4615  16E3  E1          	pop	hl
4616  16E4  01 20 00    	ld	bc,0x0020
4617  16E7  ED B0       	ldir
4618  16E9  AF          	xor	a, a
4619  16EA  F5          	push	af
4620  16EB  33          	inc	sp
4621  16EC  CD 13 13    	call	_page
4622  16EF  33          	inc	sp
4623  16F0  FB          	ei
4624  16F1  0E 01       	ld	c,0x01
4625  16F3  21 00 00    	ld	hl,_v0
4626  16F6  36 00       	ld	(hl),0x00
4627  16F8  21 00 00    	ld	hl,_s_col1
4628  16FB  36 00       	ld	(hl),0x00
4629  16FD  21 00 00    	ld	hl,_color
4630  1700  36 01       	ld	(hl),0x01
4631  1702              l_game_text_00112:
4632  1702  79          	ld	a, c
4633  1703  B7          	or	a, a
4634  1704  CA 84 17    	jp	Z, l_game_text_00115
4635  1707  CD 00 00    	call	_in_test_key
4636  170A  7D          	ld	a,l
4637  170B  32 00 00    	ld	(_v3),a
4638  170E  47          	ld	b,a
4639  170F  21 00 00    	ld	hl,_color
4640  1712  36 01       	ld	(hl),0x01
4641  1714              l_game_text_00103:
4642  1714  21 00 00    	ld	hl,_color
4643  1717  7E          	ld	a, (hl)
4644  1718  D6 08       	sub	a,0x08
4645  171A  30 3A       	jr	NC,l_game_text_00105
4646  171C  7E          	ld	a, (hl)
4647  171D  F6 40       	or	a,0x40
4648  171F  32 00 00    	ld	(_screen_ink),a
4649  1722  DD 7E FE    	ld	a,(ix-2)
4650  1725  21 00 00    	ld	hl,_v0
4651  1728  86          	add	a, (hl)
4652  1729  5F          	ld	e, a
4653  172A  DD 7E FF    	ld	a,(ix-1)
4654  172D  CE 00       	adc	a,0x00
4655  172F  57          	ld	d, a
4656  1730  1A          	ld	a, (de)
4657  1731  47          	ld	b, a
4658  1732  C5          	push	bc
4659  1733  C5          	push	bc
4660  1734  33          	inc	sp
4661  1735  2A FF FF    	ld	hl,(_s_col1-1)
4662  1738  DD 6E 05    	ld	l,(ix+5)
4663  173B  E5          	push	hl
4664  173C  CD 91 16    	call	_zx_print_char
4665  173F  F1          	pop	af
4666  1740  33          	inc	sp
4667  1741  C1          	pop	bc
4668  1742  3A 00 00    	ld	a,(_v3)
4669  1745  B7          	or	a, a
4670  1746  20 08       	jr	NZ,l_game_text_00102
4671  1748  C5          	push	bc
4672  1749  21 01 00    	ld	hl,0x0001
4673  174C  CD 00 00    	call	_z80_delay_ms_fastcall
4674  174F  C1          	pop	bc
4675  1750              l_game_text_00102:
4676  1750  21 00 00    	ld	hl,_color
4677  1753  34          	inc	(hl)
4678  1754  18 BE       	jr	l_game_text_00103
4679  1756              l_game_text_00105:
4680  1756  3A 00 00    	ld	a,(_v3)
4681  1759  B7          	or	a, a
4682  175A  20 08       	jr	NZ,l_game_text_00107
4683  175C  C5          	push	bc
4684  175D  21 08 00    	ld	hl,0x0008
4685  1760  CD 00 00    	call	_z80_delay_ms_fastcall
4686  1763  C1          	pop	bc
4687  1764              l_game_text_00107:
4688  1764  21 00 00    	ld	hl,_v0
4689  1767  34          	inc	(hl)
4690  1768  21 00 00    	ld	hl,_s_col1
4691  176B  34          	inc	(hl)
4692  176C  21 00 00    	ld	hl,_color
4693  176F  34          	inc	(hl)
4694  1770  3E 07       	ld	a,0x07
4695  1772  96          	sub	a, (hl)
4696  1773  30 02       	jr	NC,l_game_text_00109
4697  1775  36 01       	ld	(hl),0x01
4698  1777              l_game_text_00109:
4699  1777  3E 1F       	ld	a,0x1f
4700  1779  21 00 00    	ld	hl,_v0
4701  177C  96          	sub	a, (hl)
4702  177D  30 83       	jr	NC,l_game_text_00112
4703  177F  0E 00       	ld	c,0x00
4704  1781  C3 02 17    	jp	l_game_text_00112
4705  1784              l_game_text_00115:
4706  1784  DD F9       	ld	sp, ix
4707  1786  DD E1       	pop	ix
4708  1788  C9          	ret
4709  1789              	SECTION code_compiler
4710  1789              ;	---------------------------------
4711  1789              ; Function game_end_willy
4712  1789              ; ---------------------------------
4713  1789              _game_end_willy:
4714  1789  CD 53 08    	call	_game_cls
4715  178C  21 0A 06    	ld	hl,0x060a
4716  178F  E5          	push	hl
4717  1790  21 20 02    	ld	hl,0x0220
4718  1793  E5          	push	hl
4719  1794  3E 04       	ld	a,0x04
4720  1796  F5          	push	af
4721  1797  33          	inc	sp
4722  1798  CD FD 05    	call	_game_logo1
4723  179B  F1          	pop	af
4724  179C  33          	inc	sp
4725  179D  21 00 13    	ld	hl,0x1300
4726  17A0  E3          	ex	(sp),hl
4727  17A1  CD B3 16    	call	_game_text
4728  17A4  21 01 14    	ld	hl,0x1401
4729  17A7  E3          	ex	(sp),hl
4730  17A8  CD B3 16    	call	_game_text
4731  17AB  21 02 15    	ld	hl,0x1502
4732  17AE  E3          	ex	(sp),hl
4733  17AF  CD B3 16    	call	_game_text
4734  17B2  21 03 16    	ld	hl,0x1603
4735  17B5  E3          	ex	(sp),hl
4736  17B6  CD B3 16    	call	_game_text
4737  17B9  F1          	pop	af
4738  17BA  21 19 00    	ld	hl,0x0019
4739  17BD  CD 00 00    	call	_z80_delay_ms_fastcall
4740  17C0  CD 53 08    	call	_game_cls
4741  17C3  21 0A 06    	ld	hl,0x060a
4742  17C6  E5          	push	hl
4743  17C7  21 20 02    	ld	hl,0x0220
4744  17CA  E5          	push	hl
4745  17CB  3E 05       	ld	a,0x05
4746  17CD  F5          	push	af
4747  17CE  33          	inc	sp
4748  17CF  CD FD 05    	call	_game_logo1
4749  17D2  F1          	pop	af
4750  17D3  33          	inc	sp
4751  17D4  21 00 13    	ld	hl,0x1300
4752  17D7  E3          	ex	(sp),hl
4753  17D8  CD B3 16    	call	_game_text
4754  17DB  21 01 14    	ld	hl,0x1401
4755  17DE  E3          	ex	(sp),hl
4756  17DF  CD B3 16    	call	_game_text
4757  17E2  21 02 15    	ld	hl,0x1502
4758  17E5  E3          	ex	(sp),hl
4759  17E6  CD B3 16    	call	_game_text
4760  17E9  21 03 16    	ld	hl,0x1603
4761  17EC  E3          	ex	(sp),hl
4762  17ED  CD B3 16    	call	_game_text
4763  17F0  F1          	pop	af
4764  17F1  21 19 00    	ld	hl,0x0019
4765  17F4  CD 00 00    	call	_z80_delay_ms_fastcall
4766  17F7  C3 53 08    	jp  _game_cls
4767  17FA              	SECTION code_compiler
4768  17FA              ;	---------------------------------
4769  17FA              ; Function game_end_pietro
4770  17FA              ; ---------------------------------
4771  17FA              _game_end_pietro:
4772  17FA  CD 53 08    	call	_game_cls
4773  17FD  21 0A 06    	ld	hl,0x060a
4774  1800  E5          	push	hl
4775  1801  21 20 02    	ld	hl,0x0220
4776  1804  E5          	push	hl
4777  1805  3E 04       	ld	a,0x04
4778  1807  F5          	push	af
4779  1808  33          	inc	sp
4780  1809  CD FD 05    	call	_game_logo1
4781  180C  F1          	pop	af
4782  180D  33          	inc	sp
4783  180E  21 00 13    	ld	hl,0x1300
4784  1811  E3          	ex	(sp),hl
4785  1812  CD B3 16    	call	_game_text
4786  1815  21 01 14    	ld	hl,0x1401
4787  1818  E3          	ex	(sp),hl
4788  1819  CD B3 16    	call	_game_text
4789  181C  21 02 15    	ld	hl,0x1502
4790  181F  E3          	ex	(sp),hl
4791  1820  CD B3 16    	call	_game_text
4792  1823  21 03 16    	ld	hl,0x1603
4793  1826  E3          	ex	(sp),hl
4794  1827  CD B3 16    	call	_game_text
4795  182A  F1          	pop	af
4796  182B  21 19 00    	ld	hl,0x0019
4797  182E  CD 00 00    	call	_z80_delay_ms_fastcall
4798  1831  CD 53 08    	call	_game_cls
4799  1834  21 0A 06    	ld	hl,0x060a
4800  1837  E5          	push	hl
4801  1838  21 20 02    	ld	hl,0x0220
4802  183B  E5          	push	hl
4803  183C  3E 05       	ld	a,0x05
4804  183E  F5          	push	af
4805  183F  33          	inc	sp
4806  1840  CD FD 05    	call	_game_logo1
4807  1843  F1          	pop	af
4808  1844  33          	inc	sp
4809  1845  21 00 13    	ld	hl,0x1300
4810  1848  E3          	ex	(sp),hl
4811  1849  CD B3 16    	call	_game_text
4812  184C  21 01 14    	ld	hl,0x1401
4813  184F  E3          	ex	(sp),hl
4814  1850  CD B3 16    	call	_game_text
4815  1853  21 02 15    	ld	hl,0x1502
4816  1856  E3          	ex	(sp),hl
4817  1857  CD B3 16    	call	_game_text
4818  185A  21 03 16    	ld	hl,0x1603
4819  185D  E3          	ex	(sp),hl
4820  185E  CD B3 16    	call	_game_text
4821  1861  F1          	pop	af
4822  1862  21 19 00    	ld	hl,0x0019
4823  1865  CD 00 00    	call	_z80_delay_ms_fastcall
4824  1868  C3 53 08    	jp  _game_cls
4825  186B              	SECTION IGNORE
4826  0000              
