1     0000              MODULE game_player_c
2     0000              LINE 0, "game_player.c"
0     0000              
1     0000              ;--------------------------------------------------------
2     0000              ; File Created by SDCC : free open source ANSI-C Compiler
3     0000              ; Version 3.6.9 #9958 (Mac OS X i386)
4     0000              ;--------------------------------------------------------
5     0000              ; Processed by Z88DK
6     0000              ;--------------------------------------------------------
7     0000              
8     0000              	EXTERN __divschar
9     0000              	EXTERN __divschar_callee
10    0000              	EXTERN __divsint
11    0000              	EXTERN __divsint_callee
12    0000              	EXTERN __divslong
13    0000              	EXTERN __divslong_callee
14    0000              	EXTERN __divslonglong
15    0000              	EXTERN __divslonglong_callee
16    0000              	EXTERN __divsuchar
17    0000              	EXTERN __divsuchar_callee
18    0000              	EXTERN __divuchar
19    0000              	EXTERN __divuchar_callee
20    0000              	EXTERN __divuint
21    0000              	EXTERN __divuint_callee
22    0000              	EXTERN __divulong
23    0000              	EXTERN __divulong_callee
24    0000              	EXTERN __divulonglong
25    0000              	EXTERN __divulonglong_callee
26    0000              	EXTERN __divuschar
27    0000              	EXTERN __divuschar_callee
28    0000              	EXTERN __modschar
29    0000              	EXTERN __modschar_callee
30    0000              	EXTERN __modsint
31    0000              	EXTERN __modsint_callee
32    0000              	EXTERN __modslong
33    0000              	EXTERN __modslong_callee
34    0000              	EXTERN __modslonglong
35    0000              	EXTERN __modslonglong_callee
36    0000              	EXTERN __modsuchar
37    0000              	EXTERN __modsuchar_callee
38    0000              	EXTERN __moduchar
39    0000              	EXTERN __moduchar_callee
40    0000              	EXTERN __moduint
41    0000              	EXTERN __moduint_callee
42    0000              	EXTERN __modulong
43    0000              	EXTERN __modulong_callee
44    0000              	EXTERN __modulonglong
45    0000              	EXTERN __modulonglong_callee
46    0000              	EXTERN __moduschar
47    0000              	EXTERN __moduschar_callee
48    0000              	EXTERN __mulint
49    0000              	EXTERN __mulint_callee
50    0000              	EXTERN __mullong
51    0000              	EXTERN __mullong_callee
52    0000              	EXTERN __mullonglong
53    0000              	EXTERN __mullonglong_callee
54    0000              	EXTERN __mulschar
55    0000              	EXTERN __mulschar_callee
56    0000              	EXTERN __mulsuchar
57    0000              	EXTERN __mulsuchar_callee
58    0000              	EXTERN __muluschar
59    0000              	EXTERN __muluschar_callee
60    0000              	EXTERN __rlslonglong
61    0000              	EXTERN __rlslonglong_callee
62    0000              	EXTERN __rlulonglong
63    0000              	EXTERN __rlulonglong_callee
64    0000              	EXTERN __rrslonglong
65    0000              	EXTERN __rrslonglong_callee
66    0000              	EXTERN __rrulonglong
67    0000              	EXTERN __rrulonglong_callee
68    0000              	EXTERN ___sdcc_call_hl
69    0000              	EXTERN ___sdcc_call_iy
70    0000              	EXTERN ___sdcc_enter_ix
71    0000              	EXTERN _banked_call
72    0000              	EXTERN _banked_ret
73    0000              	EXTERN ___fs2schar
74    0000              	EXTERN ___fs2schar_callee
75    0000              	EXTERN ___fs2sint
76    0000              	EXTERN ___fs2sint_callee
77    0000              	EXTERN ___fs2slong
78    0000              	EXTERN ___fs2slong_callee
79    0000              	EXTERN ___fs2slonglong
80    0000              	EXTERN ___fs2slonglong_callee
81    0000              	EXTERN ___fs2uchar
82    0000              	EXTERN ___fs2uchar_callee
83    0000              	EXTERN ___fs2uint
84    0000              	EXTERN ___fs2uint_callee
85    0000              	EXTERN ___fs2ulong
86    0000              	EXTERN ___fs2ulong_callee
87    0000              	EXTERN ___fs2ulonglong
88    0000              	EXTERN ___fs2ulonglong_callee
89    0000              	EXTERN ___fsadd
90    0000              	EXTERN ___fsadd_callee
91    0000              	EXTERN ___fsdiv
92    0000              	EXTERN ___fsdiv_callee
93    0000              	EXTERN ___fseq
94    0000              	EXTERN ___fseq_callee
95    0000              	EXTERN ___fsgt
96    0000              	EXTERN ___fsgt_callee
97    0000              	EXTERN ___fslt
98    0000              	EXTERN ___fslt_callee
99    0000              	EXTERN ___fsmul
100   0000              	EXTERN ___fsmul_callee
101   0000              	EXTERN ___fsneq
102   0000              	EXTERN ___fsneq_callee
103   0000              	EXTERN ___fssub
104   0000              	EXTERN ___fssub_callee
105   0000              	EXTERN ___schar2fs
106   0000              	EXTERN ___schar2fs_callee
107   0000              	EXTERN ___sint2fs
108   0000              	EXTERN ___sint2fs_callee
109   0000              	EXTERN ___slong2fs
110   0000              	EXTERN ___slong2fs_callee
111   0000              	EXTERN ___slonglong2fs
112   0000              	EXTERN ___slonglong2fs_callee
113   0000              	EXTERN ___uchar2fs
114   0000              	EXTERN ___uchar2fs_callee
115   0000              	EXTERN ___uint2fs
116   0000              	EXTERN ___uint2fs_callee
117   0000              	EXTERN ___ulong2fs
118   0000              	EXTERN ___ulong2fs_callee
119   0000              	EXTERN ___ulonglong2fs
120   0000              	EXTERN ___ulonglong2fs_callee
121   0000              	EXTERN ____sdcc_2_copy_src_mhl_dst_deix
122   0000              	EXTERN ____sdcc_2_copy_src_mhl_dst_bcix
123   0000              	EXTERN ____sdcc_4_copy_src_mhl_dst_deix
124   0000              	EXTERN ____sdcc_4_copy_src_mhl_dst_bcix
125   0000              	EXTERN ____sdcc_4_copy_src_mhl_dst_mbc
126   0000              	EXTERN ____sdcc_4_ldi_nosave_bc
127   0000              	EXTERN ____sdcc_4_ldi_save_bc
128   0000              	EXTERN ____sdcc_4_push_hlix
129   0000              	EXTERN ____sdcc_4_push_mhl
130   0000              	EXTERN ____sdcc_lib_setmem_hl
131   0000              	EXTERN ____sdcc_ll_add_de_bc_hl
132   0000              	EXTERN ____sdcc_ll_add_de_bc_hlix
133   0000              	EXTERN ____sdcc_ll_add_de_hlix_bc
134   0000              	EXTERN ____sdcc_ll_add_de_hlix_bcix
135   0000              	EXTERN ____sdcc_ll_add_deix_bc_hl
136   0000              	EXTERN ____sdcc_ll_add_deix_hlix
137   0000              	EXTERN ____sdcc_ll_add_hlix_bc_deix
138   0000              	EXTERN ____sdcc_ll_add_hlix_deix_bc
139   0000              	EXTERN ____sdcc_ll_add_hlix_deix_bcix
140   0000              	EXTERN ____sdcc_ll_asr_hlix_a
141   0000              	EXTERN ____sdcc_ll_asr_mbc_a
142   0000              	EXTERN ____sdcc_ll_copy_src_de_dst_hlix
143   0000              	EXTERN ____sdcc_ll_copy_src_de_dst_hlsp
144   0000              	EXTERN ____sdcc_ll_copy_src_deix_dst_hl
145   0000              	EXTERN ____sdcc_ll_copy_src_deix_dst_hlix
146   0000              	EXTERN ____sdcc_ll_copy_src_deixm_dst_hlsp
147   0000              	EXTERN ____sdcc_ll_copy_src_desp_dst_hlsp
148   0000              	EXTERN ____sdcc_ll_copy_src_hl_dst_de
149   0000              	EXTERN ____sdcc_ll_copy_src_hlsp_dst_de
150   0000              	EXTERN ____sdcc_ll_copy_src_hlsp_dst_deixm
151   0000              	EXTERN ____sdcc_ll_lsl_hlix_a
152   0000              	EXTERN ____sdcc_ll_lsl_mbc_a
153   0000              	EXTERN ____sdcc_ll_lsr_hlix_a
154   0000              	EXTERN ____sdcc_ll_lsr_mbc_a
155   0000              	EXTERN ____sdcc_ll_push_hlix
156   0000              	EXTERN ____sdcc_ll_push_mhl
157   0000              	EXTERN ____sdcc_ll_sub_de_bc_hl
158   0000              	EXTERN ____sdcc_ll_sub_de_bc_hlix
159   0000              	EXTERN ____sdcc_ll_sub_de_hlix_bc
160   0000              	EXTERN ____sdcc_ll_sub_de_hlix_bcix
161   0000              	EXTERN ____sdcc_ll_sub_deix_bc_hl
162   0000              	EXTERN ____sdcc_ll_sub_deix_hlix
163   0000              	EXTERN ____sdcc_ll_sub_hlix_bc_deix
164   0000              	EXTERN ____sdcc_ll_sub_hlix_deix_bc
165   0000              	EXTERN ____sdcc_ll_sub_hlix_deix_bcix
166   0000              	EXTERN ____sdcc_load_debc_deix
167   0000              	EXTERN ____sdcc_load_dehl_deix
168   0000              	EXTERN ____sdcc_load_debc_mhl
169   0000              	EXTERN ____sdcc_load_hlde_mhl
170   0000              	EXTERN ____sdcc_store_dehl_bcix
171   0000              	EXTERN ____sdcc_store_debc_hlix
172   0000              	EXTERN ____sdcc_store_debc_mhl
173   0000              	EXTERN ____sdcc_cpu_pop_ei
174   0000              	EXTERN ____sdcc_cpu_pop_ei_jp
175   0000              	EXTERN ____sdcc_cpu_push_di
176   0000              	EXTERN ____sdcc_outi
177   0000              	EXTERN ____sdcc_outi_128
178   0000              	EXTERN ____sdcc_outi_256
179   0000              	EXTERN ____sdcc_ldi
180   0000              	EXTERN ____sdcc_ldi_128
181   0000              	EXTERN ____sdcc_ldi_256
182   0000              	EXTERN ____sdcc_4_copy_srcd_hlix_dst_deix
183   0000              	EXTERN ____sdcc_4_and_src_mbc_mhl_dst_deix
184   0000              	EXTERN ____sdcc_4_or_src_mbc_mhl_dst_deix
185   0000              	EXTERN ____sdcc_4_xor_src_mbc_mhl_dst_deix
186   0000              	EXTERN ____sdcc_4_or_src_dehl_dst_bcix
187   0000              	EXTERN ____sdcc_4_xor_src_dehl_dst_bcix
188   0000              	EXTERN ____sdcc_4_and_src_dehl_dst_bcix
189   0000              	EXTERN ____sdcc_4_xor_src_mbc_mhl_dst_debc
190   0000              	EXTERN ____sdcc_4_or_src_mbc_mhl_dst_debc
191   0000              	EXTERN ____sdcc_4_and_src_mbc_mhl_dst_debc
192   0000              	EXTERN ____sdcc_4_cpl_src_mhl_dst_debc
193   0000              	EXTERN ____sdcc_4_xor_src_debc_mhl_dst_debc
194   0000              	EXTERN ____sdcc_4_or_src_debc_mhl_dst_debc
195   0000              	EXTERN ____sdcc_4_and_src_debc_mhl_dst_debc
196   0000              	EXTERN ____sdcc_4_and_src_debc_hlix_dst_debc
197   0000              	EXTERN ____sdcc_4_or_src_debc_hlix_dst_debc
198   0000              	EXTERN ____sdcc_4_xor_src_debc_hlix_dst_debc
199   0000              
200   0000              ;--------------------------------------------------------
201   0000              ; Public variables in this module
202   0000              ;--------------------------------------------------------
203   0000              	GLOBAL _player_1up
204   0000              	GLOBAL _player_move_gasta
205   0000              	GLOBAL _player_collision
206   0000              	GLOBAL _player_init
207   0000              	GLOBAL _player_turn
208   0000              	GLOBAL _player_move
209   0000              	GLOBAL _player_check_input
210   0000              	GLOBAL _player_move_jump
211   0000              	GLOBAL _player_move_walk
212   0000              	GLOBAL _player_tile
213   0000              	GLOBAL _player_score_add
214   0000              	GLOBAL _player_pick_item
215   0000              	GLOBAL _player_pick_deadly
216   0000              	GLOBAL _player_check_ceil
217   0000              	GLOBAL _player_check_floor_jump
218   0000              	GLOBAL _player_check_floor_walk
219   0000              	GLOBAL _player_lost_life
220   0000              ;--------------------------------------------------------
221   0000              ; Externals used
222   0000              ;--------------------------------------------------------
223   0000              	GLOBAL _ulltoa_callee
224   0000              	GLOBAL _ulltoa
225   0000              	GLOBAL _strtoull_callee
226   0000              	GLOBAL _strtoull
227   0000              	GLOBAL _strtoll_callee
228   0000              	GLOBAL _strtoll
229   0000              	GLOBAL _lltoa_callee
230   0000              	GLOBAL _lltoa
231   0000              	GLOBAL _llabs_callee
232   0000              	GLOBAL _llabs
233   0000              	GLOBAL __lldivu__callee
234   0000              	GLOBAL __lldivu_
235   0000              	GLOBAL __lldiv__callee
236   0000              	GLOBAL __lldiv_
237   0000              	GLOBAL _atoll_callee
238   0000              	GLOBAL _atoll
239   0000              	GLOBAL _realloc_unlocked_callee
240   0000              	GLOBAL _realloc_unlocked
241   0000              	GLOBAL _malloc_unlocked_fastcall
242   0000              	GLOBAL _malloc_unlocked
243   0000              	GLOBAL _free_unlocked_fastcall
244   0000              	GLOBAL _free_unlocked
245   0000              	GLOBAL _calloc_unlocked_callee
246   0000              	GLOBAL _calloc_unlocked
247   0000              	GLOBAL _aligned_alloc_unlocked_callee
248   0000              	GLOBAL _aligned_alloc_unlocked
249   0000              	GLOBAL _realloc_callee
250   0000              	GLOBAL _realloc
251   0000              	GLOBAL _malloc_fastcall
252   0000              	GLOBAL _malloc
253   0000              	GLOBAL _free_fastcall
254   0000              	GLOBAL _free
255   0000              	GLOBAL _calloc_callee
256   0000              	GLOBAL _calloc
257   0000              	GLOBAL _aligned_alloc_callee
258   0000              	GLOBAL _aligned_alloc
259   0000              	GLOBAL _utoa_callee
260   0000              	GLOBAL _utoa
261   0000              	GLOBAL _ultoa_callee
262   0000              	GLOBAL _ultoa
263   0000              	GLOBAL _system_fastcall
264   0000              	GLOBAL _system
265   0000              	GLOBAL _strtoul_callee
266   0000              	GLOBAL _strtoul
267   0000              	GLOBAL _strtol_callee
268   0000              	GLOBAL _strtol
269   0000              	GLOBAL _strtof_callee
270   0000              	GLOBAL _strtof
271   0000              	GLOBAL _strtod_callee
272   0000              	GLOBAL _strtod
273   0000              	GLOBAL _srand_fastcall
274   0000              	GLOBAL _srand
275   0000              	GLOBAL _rand
276   0000              	GLOBAL _quick_exit_fastcall
277   0000              	GLOBAL _quick_exit
278   0000              	GLOBAL _qsort_callee
279   0000              	GLOBAL _qsort
280   0000              	GLOBAL _ltoa_callee
281   0000              	GLOBAL _ltoa
282   0000              	GLOBAL _labs_fastcall
283   0000              	GLOBAL _labs
284   0000              	GLOBAL _itoa_callee
285   0000              	GLOBAL _itoa
286   0000              	GLOBAL _ftoh_callee
287   0000              	GLOBAL _ftoh
288   0000              	GLOBAL _ftog_callee
289   0000              	GLOBAL _ftog
290   0000              	GLOBAL _ftoe_callee
291   0000              	GLOBAL _ftoe
292   0000              	GLOBAL _ftoa_callee
293   0000              	GLOBAL _ftoa
294   0000              	GLOBAL _exit_fastcall
295   0000              	GLOBAL _exit
296   0000              	GLOBAL _dtoh_callee
297   0000              	GLOBAL _dtoh
298   0000              	GLOBAL _dtog_callee
299   0000              	GLOBAL _dtog
300   0000              	GLOBAL _dtoe_callee
301   0000              	GLOBAL _dtoe
302   0000              	GLOBAL _dtoa_callee
303   0000              	GLOBAL _dtoa
304   0000              	GLOBAL _bsearch_callee
305   0000              	GLOBAL _bsearch
306   0000              	GLOBAL _atol_fastcall
307   0000              	GLOBAL _atol
308   0000              	GLOBAL _atoi_fastcall
309   0000              	GLOBAL _atoi
310   0000              	GLOBAL _atof_fastcall
311   0000              	GLOBAL _atof
312   0000              	GLOBAL _atexit_fastcall
313   0000              	GLOBAL _atexit
314   0000              	GLOBAL _at_quick_exit_fastcall
315   0000              	GLOBAL _at_quick_exit
316   0000              	GLOBAL _abs_fastcall
317   0000              	GLOBAL _abs
318   0000              	GLOBAL _abort
319   0000              	GLOBAL __strtou__callee
320   0000              	GLOBAL __strtou_
321   0000              	GLOBAL __strtoi__callee
322   0000              	GLOBAL __strtoi_
323   0000              	GLOBAL __random_uniform_xor_8__fastcall
324   0000              	GLOBAL __random_uniform_xor_8_
325   0000              	GLOBAL __random_uniform_xor_32__fastcall
326   0000              	GLOBAL __random_uniform_xor_32_
327   0000              	GLOBAL __random_uniform_cmwc_8__fastcall
328   0000              	GLOBAL __random_uniform_cmwc_8_
329   0000              	GLOBAL __shellsort__callee
330   0000              	GLOBAL __shellsort_
331   0000              	GLOBAL __quicksort__callee
332   0000              	GLOBAL __quicksort_
333   0000              	GLOBAL __insertion_sort__callee
334   0000              	GLOBAL __insertion_sort_
335   0000              	GLOBAL __ldivu__callee
336   0000              	GLOBAL __ldivu_
337   0000              	GLOBAL __ldiv__callee
338   0000              	GLOBAL __ldiv_
339   0000              	GLOBAL __divu__callee
340   0000              	GLOBAL __divu_
341   0000              	GLOBAL __div__callee
342   0000              	GLOBAL __div_
343   0000              	GLOBAL _NIRVANAP_drawTW_raw_callee
344   0000              	GLOBAL _NIRVANAP_drawTW_raw
345   0000              	GLOBAL _NIRVANAP_drawTW_callee
346   0000              	GLOBAL _NIRVANAP_drawTW
347   0000              	GLOBAL _NIRVANAP_drawW_raw_callee
348   0000              	GLOBAL _NIRVANAP_drawW_raw
349   0000              	GLOBAL _NIRVANAP_drawW_callee
350   0000              	GLOBAL _NIRVANAP_drawW
351   0000              	GLOBAL _NIRVANAP_spriteT_callee
352   0000              	GLOBAL _NIRVANAP_spriteT
353   0000              	GLOBAL _NIRVANAP_fillC_callee
354   0000              	GLOBAL _NIRVANAP_fillC
355   0000              	GLOBAL _NIRVANAP_readC_callee
356   0000              	GLOBAL _NIRVANAP_readC
357   0000              	GLOBAL _NIRVANAP_paintC_callee
358   0000              	GLOBAL _NIRVANAP_paintC
359   0000              	GLOBAL _NIRVANAP_printC_callee
360   0000              	GLOBAL _NIRVANAP_printC
361   0000              	GLOBAL _NIRVANAP_fillT_raw_callee
362   0000              	GLOBAL _NIRVANAP_fillT_raw
363   0000              	GLOBAL _NIRVANAP_fillT_callee
364   0000              	GLOBAL _NIRVANAP_fillT
365   0000              	GLOBAL _NIRVANAP_drawT_raw_callee
366   0000              	GLOBAL _NIRVANAP_drawT_raw
367   0000              	GLOBAL _NIRVANAP_drawT_callee
368   0000              	GLOBAL _NIRVANAP_drawT
369   0000              	GLOBAL _NIRVANAP_stop
370   0000              	GLOBAL _NIRVANAP_start
371   0000              	GLOBAL _zx_print_str
372   0000              	GLOBAL _zx_print_int
373   0000              	GLOBAL _zx_print_chr
374   0000              	GLOBAL _zx_print_bonus_time
375   0000              	GLOBAL _zx_isr
376   0000              	GLOBAL _z80_otdr_callee
377   0000              	GLOBAL _z80_otdr
378   0000              	GLOBAL _z80_otir_callee
379   0000              	GLOBAL _z80_otir
380   0000              	GLOBAL _z80_outp_callee
381   0000              	GLOBAL _z80_outp
382   0000              	GLOBAL _z80_indr_callee
383   0000              	GLOBAL _z80_indr
384   0000              	GLOBAL _z80_inir_callee
385   0000              	GLOBAL _z80_inir
386   0000              	GLOBAL _z80_inp_fastcall
387   0000              	GLOBAL _z80_inp
388   0000              	GLOBAL _z80_set_int_state_fastcall
389   0000              	GLOBAL _z80_set_int_state
390   0000              	GLOBAL _z80_get_int_state
391   0000              	GLOBAL _z80_delay_tstate_fastcall
392   0000              	GLOBAL _z80_delay_tstate
393   0000              	GLOBAL _z80_delay_ms_fastcall
394   0000              	GLOBAL _z80_delay_ms
395   0000              	GLOBAL _im2_remove_generic_callback_callee
396   0000              	GLOBAL _im2_remove_generic_callback
397   0000              	GLOBAL _im2_prepend_generic_callback_callee
398   0000              	GLOBAL _im2_prepend_generic_callback
399   0000              	GLOBAL _im2_append_generic_callback_callee
400   0000              	GLOBAL _im2_append_generic_callback
401   0000              	GLOBAL _im2_create_generic_isr_8080_callee
402   0000              	GLOBAL _im2_create_generic_isr_8080
403   0000              	GLOBAL _im2_create_generic_isr_callee
404   0000              	GLOBAL _im2_create_generic_isr
405   0000              	GLOBAL _im2_install_isr_callee
406   0000              	GLOBAL _im2_install_isr
407   0000              	GLOBAL _im2_init_fastcall
408   0000              	GLOBAL _im2_init
409   0000              	GLOBAL _intrinsic_swap_word_32_fastcall
410   0000              	GLOBAL _intrinsic_swap_word_32
411   0000              	GLOBAL _intrinsic_swap_endian_32_fastcall
412   0000              	GLOBAL _intrinsic_swap_endian_32
413   0000              	GLOBAL _intrinsic_swap_endian_16_fastcall
414   0000              	GLOBAL _intrinsic_swap_endian_16
415   0000              	GLOBAL _intrinsic_return_de
416   0000              	GLOBAL _intrinsic_return_bc
417   0000              	GLOBAL _intrinsic_exx
418   0000              	GLOBAL _intrinsic_ex_de_hl
419   0000              	GLOBAL _intrinsic_nop
420   0000              	GLOBAL _intrinsic_im_2
421   0000              	GLOBAL _intrinsic_im_1
422   0000              	GLOBAL _intrinsic_im_0
423   0000              	GLOBAL _intrinsic_retn
424   0000              	GLOBAL _intrinsic_reti
425   0000              	GLOBAL _intrinsic_halt
426   0000              	GLOBAL _intrinsic_ei
427   0000              	GLOBAL _intrinsic_di
428   0000              	GLOBAL _intrinsic_stub
429   0000              	GLOBAL _intrinsic_ini
430   0000              	GLOBAL _intrinsic_outi
431   0000              	GLOBAL _intrinsic_ldi
432   0000              	GLOBAL _zx_pattern_fill_callee
433   0000              	GLOBAL _zx_pattern_fill
434   0000              	GLOBAL _zx_saddrpup_fastcall
435   0000              	GLOBAL _zx_saddrpup
436   0000              	GLOBAL _zx_saddrpright_callee
437   0000              	GLOBAL _zx_saddrpright
438   0000              	GLOBAL _zx_saddrpleft_callee
439   0000              	GLOBAL _zx_saddrpleft
440   0000              	GLOBAL _zx_saddrpdown_fastcall
441   0000              	GLOBAL _zx_saddrpdown
442   0000              	GLOBAL _zx_saddrcup_fastcall
443   0000              	GLOBAL _zx_saddrcup
444   0000              	GLOBAL _zx_saddrcright_fastcall
445   0000              	GLOBAL _zx_saddrcright
446   0000              	GLOBAL _zx_saddrcleft_fastcall
447   0000              	GLOBAL _zx_saddrcleft
448   0000              	GLOBAL _zx_saddrcdown_fastcall
449   0000              	GLOBAL _zx_saddrcdown
450   0000              	GLOBAL _zx_saddr2py_fastcall
451   0000              	GLOBAL _zx_saddr2py
452   0000              	GLOBAL _zx_saddr2px_fastcall
453   0000              	GLOBAL _zx_saddr2px
454   0000              	GLOBAL _zx_saddr2cy_fastcall
455   0000              	GLOBAL _zx_saddr2cy
456   0000              	GLOBAL _zx_saddr2cx_fastcall
457   0000              	GLOBAL _zx_saddr2cx
458   0000              	GLOBAL _zx_saddr2aaddr_fastcall
459   0000              	GLOBAL _zx_saddr2aaddr
460   0000              	GLOBAL _zx_py2saddr_fastcall
461   0000              	GLOBAL _zx_py2saddr
462   0000              	GLOBAL _zx_py2aaddr_fastcall
463   0000              	GLOBAL _zx_py2aaddr
464   0000              	GLOBAL _zx_pxy2saddr_callee
465   0000              	GLOBAL _zx_pxy2saddr
466   0000              	GLOBAL _zx_pxy2aaddr_callee
467   0000              	GLOBAL _zx_pxy2aaddr
468   0000              	GLOBAL _zx_px2bitmask_fastcall
469   0000              	GLOBAL _zx_px2bitmask
470   0000              	GLOBAL _zx_cy2saddr_fastcall
471   0000              	GLOBAL _zx_cy2saddr
472   0000              	GLOBAL _zx_cy2aaddr_fastcall
473   0000              	GLOBAL _zx_cy2aaddr
474   0000              	GLOBAL _zx_cxy2saddr_callee
475   0000              	GLOBAL _zx_cxy2saddr
476   0000              	GLOBAL _zx_cxy2aaddr_callee
477   0000              	GLOBAL _zx_cxy2aaddr
478   0000              	GLOBAL _zx_bitmask2px_fastcall
479   0000              	GLOBAL _zx_bitmask2px
480   0000              	GLOBAL _zx_aaddrcup_fastcall
481   0000              	GLOBAL _zx_aaddrcup
482   0000              	GLOBAL _zx_aaddrcright_fastcall
483   0000              	GLOBAL _zx_aaddrcright
484   0000              	GLOBAL _zx_aaddrcleft_fastcall
485   0000              	GLOBAL _zx_aaddrcleft
486   0000              	GLOBAL _zx_aaddrcdown_fastcall
487   0000              	GLOBAL _zx_aaddrcdown
488   0000              	GLOBAL _zx_aaddr2saddr_fastcall
489   0000              	GLOBAL _zx_aaddr2saddr
490   0000              	GLOBAL _zx_aaddr2py_fastcall
491   0000              	GLOBAL _zx_aaddr2py
492   0000              	GLOBAL _zx_aaddr2px_fastcall
493   0000              	GLOBAL _zx_aaddr2px
494   0000              	GLOBAL _zx_aaddr2cy_fastcall
495   0000              	GLOBAL _zx_aaddr2cy
496   0000              	GLOBAL _zx_aaddr2cx_fastcall
497   0000              	GLOBAL _zx_aaddr2cx
498   0000              	GLOBAL _zx_visit_wc_pix_callee
499   0000              	GLOBAL _zx_visit_wc_pix
500   0000              	GLOBAL _zx_visit_wc_attr_callee
501   0000              	GLOBAL _zx_visit_wc_attr
502   0000              	GLOBAL _zx_scroll_wc_up_pix_callee
503   0000              	GLOBAL _zx_scroll_wc_up_pix
504   0000              	GLOBAL _zx_scroll_wc_up_attr_callee
505   0000              	GLOBAL _zx_scroll_wc_up_attr
506   0000              	GLOBAL _zx_scroll_wc_up_callee
507   0000              	GLOBAL _zx_scroll_wc_up
508   0000              	GLOBAL _zx_scroll_up_pix_callee
509   0000              	GLOBAL _zx_scroll_up_pix
510   0000              	GLOBAL _zx_scroll_up_attr_callee
511   0000              	GLOBAL _zx_scroll_up_attr
512   0000              	GLOBAL _zx_scroll_up_callee
513   0000              	GLOBAL _zx_scroll_up
514   0000              	GLOBAL _zx_cls_wc_pix_callee
515   0000              	GLOBAL _zx_cls_wc_pix
516   0000              	GLOBAL _zx_cls_wc_attr_callee
517   0000              	GLOBAL _zx_cls_wc_attr
518   0000              	GLOBAL _zx_cls_wc_callee
519   0000              	GLOBAL _zx_cls_wc
520   0000              	GLOBAL _zx_cls_pix_fastcall
521   0000              	GLOBAL _zx_cls_pix
522   0000              	GLOBAL _zx_cls_attr_fastcall
523   0000              	GLOBAL _zx_cls_attr
524   0000              	GLOBAL _zx_cls_fastcall
525   0000              	GLOBAL _zx_cls
526   0000              	GLOBAL _zx_border_fastcall
527   0000              	GLOBAL _zx_border
528   0000              	GLOBAL _zx_tape_verify_block_callee
529   0000              	GLOBAL _zx_tape_verify_block
530   0000              	GLOBAL _zx_tape_save_block_callee
531   0000              	GLOBAL _zx_tape_save_block
532   0000              	GLOBAL _zx_tape_load_block_callee
533   0000              	GLOBAL _zx_tape_load_block
534   0000              	GLOBAL _spr_destroy
535   0000              	GLOBAL _spr_unflattenP1
536   0000              	GLOBAL _spr_flatten
537   0000              	GLOBAL _spr_btile_paint_back
538   0000              	GLOBAL _spr_init_effects
539   0000              	GLOBAL _spr_turn_horizontal
540   0000              	GLOBAL _spr_play_anim
541   0000              	GLOBAL _spr_add_anim
542   0000              	GLOBAL _spr_clear_scr
543   0000              	GLOBAL _spr_back_repaint
544   0000              	GLOBAL _spr_tile_dir
545   0000              	GLOBAL _spr_tile
546   0000              	GLOBAL _spr_paint_player
547   0000              	GLOBAL _spr_paint
548   0000              	GLOBAL _spr_move_left
549   0000              	GLOBAL _spr_move_right
550   0000              	GLOBAL _spr_move_left_f
551   0000              	GLOBAL _spr_move_right_f
552   0000              	GLOBAL _spr_move_horizontal
553   0000              	GLOBAL _spr_move_down
554   0000              	GLOBAL _spr_move_up
555   0000              	GLOBAL _spr_set_right
556   0000              	GLOBAL _spr_set_left
557   0000              	GLOBAL _spr_set_down
558   0000              	GLOBAL _spr_set_up
559   0000              	GLOBAL _spr_calc_index
560   0000              	GLOBAL _spr_chktime
561   0000              	GLOBAL _game_page_map
562   0000              	GLOBAL _game_attribs
563   0000              	GLOBAL _game_add_enemy
564   0000              	GLOBAL _game_print_header
565   0000              	GLOBAL _game_check_time
566   0000              	GLOBAL _game_rotate_attrib_osd
567   0000              	GLOBAL _game_rotate_attrib
568   0000              	GLOBAL _game_colour_message
569   0000              	GLOBAL _game_paint_attrib
570   0000              	GLOBAL _game_print_score
571   0000              	GLOBAL _game_cell_paint_index
572   0000              	GLOBAL _game_cell_paint
573   0000              	GLOBAL _game_check_cell
574   0000              	GLOBAL _game_check_map
575   0000              	GLOBAL _game_loop
576   0000              	GLOBAL _game_round_init
577   0000              	GLOBAL _game_start_timer
578   0000              	GLOBAL _game_update_stats
579   0000              	GLOBAL _game_print_footer
580   0000              	GLOBAL _game_fill_row
581   0000              	GLOBAL _game_cls
582   0000              	GLOBAL _game_fps
583   0000              	GLOBAL _game_draw_map
584   0000              	GLOBAL _enemy_avoid_dead
585   0000              	GLOBAL _enemy_avoid_fall
586   0000              	GLOBAL _enemy_kill
587   0000              	GLOBAL _enemy_init
588   0000              	GLOBAL _enemy_move
589   0000              	GLOBAL _enemy_turn
590   0000              	GLOBAL _enemy_static
591   0000              	GLOBAL _enemy_walk
592   0000              	GLOBAL _enemy_horizontal
593   0000              	GLOBAL _enemy_vertical
594   0000              	GLOBAL _ay_reset
595   0000              	GLOBAL _ay_song_stop
596   0000              	GLOBAL _ay_song_play
597   0000              	GLOBAL _ay_fx_stop
598   0000              	GLOBAL _ay_fx_play
599   0000              	GLOBAL _ay_is_playing
600   0000              	GLOBAL _audio_levelup
601   0000              	GLOBAL _audio_menu
602   0000              	GLOBAL _audio_game_end
603   0000              	GLOBAL _audio_level_complete
604   0000              	GLOBAL _audio_level_start
605   0000              	GLOBAL _audio_lotr_lose_a_life
606   0000              	GLOBAL _audio_puerta
607   0000              	GLOBAL _audio_sin_mana
608   0000              	GLOBAL _audio_magic1
609   0000              	GLOBAL _audio_coin
610   0000              	GLOBAL _audio_golpe
611   0000              	GLOBAL _audio_salto
612   0000              	GLOBAL _audio_efecto
613   0000              	GLOBAL _audio_disparo_fire
614   0000              	GLOBAL _audio_disparo_axe
615   0000              	GLOBAL _audio_disparo2
616   0000              	GLOBAL _audio_disparo1
617   0000              	GLOBAL _audio_explosion1
618   0000              	GLOBAL _audio_explosion
619   0000              	GLOBAL _audio_ingame
620   0000              	GLOBAL _test_func
621   0000              	GLOBAL _test_proc
622   0000              	GLOBAL _in_mouse_kempston_wheel_delta
623   0000              	GLOBAL _in_mouse_kempston_wheel
624   0000              	GLOBAL _in_mouse_kempston_callee
625   0000              	GLOBAL _in_mouse_kempston
626   0000              	GLOBAL _in_mouse_kempston_setpos_callee
627   0000              	GLOBAL _in_mouse_kempston_setpos
628   0000              	GLOBAL _in_mouse_kempston_reset
629   0000              	GLOBAL _in_mouse_kempston_init
630   0000              	GLOBAL _in_mouse_amx_wheel_delta
631   0000              	GLOBAL _in_mouse_amx_wheel
632   0000              	GLOBAL _in_mouse_amx_callee
633   0000              	GLOBAL _in_mouse_amx
634   0000              	GLOBAL _in_mouse_amx_setpos_callee
635   0000              	GLOBAL _in_mouse_amx_setpos
636   0000              	GLOBAL _in_mouse_amx_reset
637   0000              	GLOBAL _in_mouse_amx_init_callee
638   0000              	GLOBAL _in_mouse_amx_init
639   0000              	GLOBAL _in_stick_sinclair2
640   0000              	GLOBAL _in_stick_sinclair1
641   0000              	GLOBAL _in_stick_kempston
642   0000              	GLOBAL _in_stick_fuller
643   0000              	GLOBAL _in_stick_cursor
644   0000              	GLOBAL _in_stick_keyboard_fastcall
645   0000              	GLOBAL _in_stick_keyboard
646   0000              	GLOBAL _in_wait_nokey
647   0000              	GLOBAL _in_wait_key
648   0000              	GLOBAL _in_test_key
649   0000              	GLOBAL _in_pause_fastcall
650   0000              	GLOBAL _in_pause
651   0000              	GLOBAL _in_key_scancode_fastcall
652   0000              	GLOBAL _in_key_scancode
653   0000              	GLOBAL _in_key_pressed_fastcall
654   0000              	GLOBAL _in_key_pressed
655   0000              	GLOBAL _in_inkey
656   0000              	GLOBAL _NIRVANAP_CHAR_TABLE
657   0000              	GLOBAL _NIRVANAP_WIDE_IMAGES
658   0000              	GLOBAL _NIRVANAP_TILE_IMAGES
659   0000              	GLOBAL _NIRVANAP_HOLE
660   0000              	GLOBAL _NIRVANAP_ISR_HOOK
661   0000              	GLOBAL _scan_map
662   0000              	GLOBAL _key_map
663   0000              	GLOBAL _map_paper_last_a
664   0000              	GLOBAL _map_paper_last
665   0000              	GLOBAL _map_paper_clr
666   0000              	GLOBAL _map_paper
667   0000              	GLOBAL _anim_count
668   0000              	GLOBAL _anim_respanwn
669   0000              	GLOBAL _anim_loop
670   0000              	GLOBAL _anim_end
671   0000              	GLOBAL _anim_int
672   0000              	GLOBAL _anim_tile
673   0000              	GLOBAL _anim_col
674   0000              	GLOBAL _anim_lin
675   0000              	GLOBAL _map_heigth
676   0000              	GLOBAL _map_width
677   0000              	GLOBAL _scr_curr
678   0000              	GLOBAL _sprite_kind
679   0000              	GLOBAL _scr_map
680   0000              	GLOBAL _spr_init
681   0000              	GLOBAL _spr_map_tile
682   0000              	GLOBAL _sprite_frames
683   0000              	GLOBAL _sprite_base_speed
684   0000              	GLOBAL _sprite_speed
685   0000              	GLOBAL _screen_ink
686   0000              	GLOBAL _screen_paper
687   0000              	GLOBAL _game_start_scr
688   0000              	GLOBAL _game_score_top
689   0000              	GLOBAL _player_coins
690   0000              	GLOBAL _player_lives
691   0000              	GLOBAL _game_over
692   0000              	GLOBAL _game_sound
693   0000              	GLOBAL _game_inf_lives
694   0000              	GLOBAL _game_inmune
695   0000              	GLOBAL _sprite_curr_index
696   0000              	GLOBAL _spr_count
697   0000              	GLOBAL _last_rotated
698   0000              	GLOBAL _anim_time
699   0000              	GLOBAL _frame_time
700   0000              	GLOBAL _curr_time
701   0000              	GLOBAL _game_conveyor_flag
702   0000              	GLOBAL _conv3
703   0000              	GLOBAL _conv2
704   0000              	GLOBAL _conv1
705   0000              	GLOBAL _conv0
706   0000              	GLOBAL _p_state_a
707   0000              	GLOBAL _p_state
708   0000              	GLOBAL _attrib8
709   0000              	GLOBAL _attrib7
710   0000              	GLOBAL _attrib6
711   0000              	GLOBAL _attrib5
712   0000              	GLOBAL _attrib4
713   0000              	GLOBAL _attrib3
714   0000              	GLOBAL _attrib2
715   0000              	GLOBAL _attrib1
716   0000              	GLOBAL _attrib0
717   0000              	GLOBAL _attrib_red
718   0000              	GLOBAL _game_attrib_osd
719   0000              	GLOBAL _attrib_osd
720   0000              	GLOBAL _attrib_hl
721   0000              	GLOBAL _attrib
722   0000              	GLOBAL _zx_val_asm
723   0000              	GLOBAL _enemies
724   0000              	GLOBAL _tmp_ui
725   0000              	GLOBAL _tmp_sc
726   0000              	GLOBAL _tmp_uc
727   0000              	GLOBAL _tmp1
728   0000              	GLOBAL _tmp0
729   0000              	GLOBAL _tmp
730   0000              	GLOBAL _index1
731   0000              	GLOBAL _index0
732   0000              	GLOBAL _loop_count
733   0000              	GLOBAL _s_class
734   0000              	GLOBAL _s_row1
735   0000              	GLOBAL _s_col1
736   0000              	GLOBAL _s_col0
737   0000              	GLOBAL _s_lin1
738   0000              	GLOBAL _s_lin0
739   0000              	GLOBAL _s_tile1
740   0000              	GLOBAL _s_tile0
741   0000              	GLOBAL _player_kill_index
742   0000              	GLOBAL _player_killed
743   0000              	GLOBAL _player_jump_top
744   0000              	GLOBAL _player_hit_count
745   0000              	GLOBAL _game_fps_show
746   0000              	GLOBAL _game_debug
747   0000              	GLOBAL _sprite
748   0000              	GLOBAL _fps
749   0000              	GLOBAL _menu_curr_sel
750   0000              	GLOBAL _game_control_mode
751   0000              	GLOBAL _game_round_up
752   0000              	GLOBAL _game_conveyor_col1
753   0000              	GLOBAL _game_conveyor_col0
754   0000              	GLOBAL _game_conveyor_lin
755   0000              	GLOBAL _game_conveyor_dir
756   0000              	GLOBAL _game_song_play_start
757   0000              	GLOBAL _game_song_play
758   0000              	GLOBAL _game_world
759   0000              	GLOBAL _game_gravity
760   0000              	GLOBAL _player_jumpcount
761   0000              	GLOBAL _player_hit
762   0000              	GLOBAL _player_hit_time
763   0000              	GLOBAL _player_lin_scr
764   0000              	GLOBAL _player_col_scr
765   0000              	GLOBAL _player_max_vita
766   0000              	GLOBAL _player_max_mana
767   0000              	GLOBAL _player_keys
768   0000              	GLOBAL _player_vel_inc
769   0000              	GLOBAL _player_vel_y0
770   0000              	GLOBAL _player_vel_y
771   0000              	GLOBAL _player_score
772   0000              	GLOBAL _last_time
773   0000              	GLOBAL _obj_count
774   0000              	GLOBAL _obj_col
775   0000              	GLOBAL _obj_lin
776   0000              	GLOBAL _spr_timer
777   0000              	GLOBAL _jump_lin
778   0000              	GLOBAL _colint
779   0000              	GLOBAL _col
780   0000              	GLOBAL _tbuffer
781   0000              	GLOBAL _lin
782   0000              	GLOBAL _tile
783   0000              	GLOBAL _value_b
784   0000              	GLOBAL _value_a
785   0000              	GLOBAL _state_a
786   0000              	GLOBAL _state
787   0000              	GLOBAL _class
788   0000              	GLOBAL _dirs
789   0000              	GLOBAL _k2
790   0000              	GLOBAL _k1
791   0000              	GLOBAL _joyfunc2
792   0000              	GLOBAL _joyfunc1
793   0000              	GLOBAL _btiles
794   0000              	GLOBAL _v3
795   0000              	GLOBAL _v2
796   0000              	GLOBAL _v1
797   0000              	GLOBAL _v0
798   0000              	GLOBAL _i
799   0000              	GLOBAL _spec128
800   0000              	GLOBAL _GLOBAL_ZX_PORT_7FFD
801   0000              	GLOBAL _GLOBAL_ZX_PORT_1FFD
802   0000              	GLOBAL _GLOBAL_ZX_PORT_FE
803   0000              	GLOBAL _ay_fx_06_disparo_fire
804   0000              	GLOBAL _ay_fx_06_disparo_axe
805   0000              	GLOBAL _ay_fx_06_explosion1
806   0000              	GLOBAL _ay_fx_06_efecto
807   0000              	GLOBAL _ay_fx_06_disparo2
808   0000              	GLOBAL _ay_fx_06_disparo1
809   0000              	GLOBAL _ay_fx_06_levelup
810   0000              	GLOBAL _ay_fx_06_magic
811   0000              	GLOBAL _ay_fx_06_sin_mana
812   0000              	GLOBAL _ay_fx_06_salto
813   0000              	GLOBAL _ay_fx_06_puerta
814   0000              	GLOBAL _ay_fx_06_magic1
815   0000              	GLOBAL _ay_fx_06_golpe
816   0000              	GLOBAL _ay_fx_06_explosion
817   0000              	GLOBAL _ay_fx_06_dano_por_toque
818   0000              	GLOBAL _ay_fx_06_coin
819   0000              	GLOBAL _ay_song_06_lotr_level_start
820   0000              	GLOBAL _ay_song_06_lotr_level_complete
821   0000              	GLOBAL _ay_song_06_lotr_lose_a_life
822   0000              	GLOBAL _ay_song_04_ingame0
823   0000              	GLOBAL _ay_song_04_ingame
824   0000              	GLOBAL _lenght0
825   0000              	GLOBAL _world0
826   0000              ;--------------------------------------------------------
827   0000              ; special function registers
828   0000              ;--------------------------------------------------------
829   0000              defc _IO_FE	=	0x00fe
830   0000              defc _IO_1FFD	=	0x1ffd
831   0000              defc _IO_7FFD	=	0x7ffd
832   0000              ;--------------------------------------------------------
833   0000              ; ram data
834   0000              ;--------------------------------------------------------
835   0000              	SECTION bss_compiler
836   0000              ;--------------------------------------------------------
837   0000              ; ram data
838   0000              ;--------------------------------------------------------
839   0000              
840   0000              IF 0
841   0000              
842   0000              ; .area _INITIALIZED removed by z88dk
843   0000              
844   0000              
845   0000              ENDIF
846   0000              
847   0000              ;--------------------------------------------------------
848   0000              ; absolute external ram data
849   0000              ;--------------------------------------------------------
850   0000              	SECTION IGNORE
851   0000              ;--------------------------------------------------------
852   0000              ; global & static initialisations
853   0000              ;--------------------------------------------------------
854   0000              	SECTION code_crt_init
855   0000              ;--------------------------------------------------------
856   0000              ; Home
857   0000              ;--------------------------------------------------------
858   0000              	SECTION IGNORE
859   0000              ;--------------------------------------------------------
860   0000              ; code
861   0000              ;--------------------------------------------------------
862   0000              	SECTION code_compiler
863   0000              ;	---------------------------------
864   0000              ; Function player_init
865   0000              ; ---------------------------------
866   0000              _player_init:
867   0000  CD 00 00    	call	___sdcc_enter_ix
868   0003  21 07 00    	ld	hl, +(_class + 0x0007)
869   0006  36 FF       	ld	(hl),0xff
870   0008  3A 00 00    	ld	a,(_sprite_base_speed)
871   000B  32 07 00    	ld	((_sprite_speed + 0x0007)),a
872   000E  21 07 00    	ld	hl, +(_tile + 0x0007)
873   0011  DD 7E 06    	ld	a,(ix+6)
874   0014  77          	ld	(hl), a
875   0015  21 07 00    	ld	hl, +(_lin + 0x0007)
876   0018  DD 7E 04    	ld	a,(ix+4)
877   001B  77          	ld	(hl), a
878   001C  21 07 00    	ld	hl, +(_col + 0x0007)
879   001F  DD 7E 05    	ld	a,(ix+5)
880   0022  77          	ld	(hl), a
881   0023  21 07 00    	ld	hl, +(_colint + 0x0007)
882   0026  36 00       	ld	(hl),0x00
883   0028  21 07 00    	ld	hl, +(_state + 0x0007)
884   002B  36 00       	ld	(hl),0x00
885   002D  21 07 00    	ld	hl, +(_state_a + 0x0007)
886   0030  36 00       	ld	(hl),0x00
887   0032  21 07 00    	ld	hl, +(_jump_lin + 0x0007)
888   0035  DD 7E 04    	ld	a,(ix+4)
889   0038  77          	ld	(hl), a
890   0039  2A 00 00    	ld	hl,(_curr_time)
891   003C  22 0E 00    	ld	(_last_time + 0x000e),hl
892   003F  21 00 00    	ld	hl,0x0000
893   0042  22 00 00    	ld	(_player_vel_y),hl
894   0045  ED 4B 00 00 	ld	bc,(_p_state_a)
895   0049  0A          	ld	a,(bc)
896   004A  F6 10       	or	a,0x10
897   004C  02          	ld	(bc), a
898   004D  DD 7E 04    	ld	a,(ix+4)
899   0050  C6 10       	add	a,0x10
900   0052  47          	ld	b, a
901   0053  DD 7E 05    	ld	a,(ix+5)
902   0056  48          	ld	c,b
903   0057  47          	ld	b,a
904   0058  C5          	push	bc
905   0059  DD 56 06    	ld	d,(ix+6)
906   005C  1E 07       	ld	e,0x07
907   005E  D5          	push	de
908   005F  CD 00 00    	call	_NIRVANAP_spriteT_callee
909   0062  DD E1       	pop	ix
910   0064  C9          	ret
911   0065              	SECTION code_compiler
912   0065              ;	---------------------------------
913   0065              ; Function player_turn
914   0065              ; ---------------------------------
915   0065              _player_turn:
916   0065  21 00 00    	ld	hl,_sprite
917   0068  CD 00 00    	call	_spr_chktime
918   006B  7D          	ld	a, l
919   006C  B7          	or	a, a
920   006D  28 50       	jr	Z,l_player_turn_00108
921   006F  2E 02       	ld	l,0x02
922   0071  CD 00 00    	call	_zx_border_fastcall
923   0074  21 00 00    	ld	hl,_k1
924   0077  E5          	push	hl
925   0078  2A 00 00    	ld	hl,(_joyfunc1)
926   007B  CD 00 00    	call	___sdcc_call_hl
927   007E  F1          	pop	af
928   007F  7D          	ld	a,l
929   0080  32 00 00    	ld	(_dirs),a
930   0083  21 07 00    	ld	hl,+(_state + 0x0007)
931   0086  22 00 00    	ld	(_p_state),hl
932   0089  21 07 00    	ld	hl,+(_state_a + 0x0007)
933   008C  22 00 00    	ld	(_p_state_a),hl
934   008F  3A 07 00    	ld	a,(_lin + 0x0007)
935   0092  32 00 00    	ld	(_s_lin0),a
936   0095  3A 07 00    	ld	a,(_col + 0x0007)
937   0098  32 00 00    	ld	(_s_col0),a
938   009B  21 00 00    	ld	hl,_s_class
939   009E  36 00       	ld	(hl),0x00
940   00A0  CD F6 01    	call	_player_move
941   00A3  CD C0 00    	call	_player_collision
942   00A6  21 00 00    	ld	hl,_player_killed
943   00A9  7E          	ld	a, (hl)
944   00AA  B7          	or	a, a
945   00AB  28 12       	jr	Z,l_player_turn_00108
946   00AD  36 00       	ld	(hl),0x00
947   00AF  3A 00 00    	ld	a,(_game_inmune)
948   00B2  B7          	or	a, a
949   00B3  28 07       	jr	Z,l_player_turn_00102
950   00B5  2E 02       	ld	l,0x02
951   00B7  CD 00 00    	call	_zx_border_fastcall
952   00BA  18 03       	jr	l_player_turn_00108
953   00BC              l_player_turn_00102:
954   00BC  CD 48 07    	call	_player_lost_life
955   00BF              l_player_turn_00108:
956   00BF  C9          	ret
957   00C0              	SECTION code_compiler
958   00C0              ;	---------------------------------
959   00C0              ; Function player_collision
960   00C0              ; ---------------------------------
961   00C0              _player_collision:
962   00C0  21 07 00    	ld	hl,+(_col + 0x0007)
963   00C3  56          	ld	d, (hl)
964   00C4  21 07 00    	ld	hl,+(_lin + 0x0007)
965   00C7  5E          	ld	e, (hl)
966   00C8  D5          	push	de
967   00C9  CD 00 00    	call	_spr_calc_index
968   00CC  F1          	pop	af
969   00CD  22 00 00    	ld	(_index1),hl
970   00D0  01 00 00    	ld	bc,_scr_map
971   00D3  09          	add	hl,bc
972   00D4  7E          	ld	a,(hl)
973   00D5  32 00 00    	ld	(_v0),a
974   00D8  F5          	push	af
975   00D9  33          	inc	sp
976   00DA  CD 30 05    	call	_player_pick_deadly
977   00DD  33          	inc	sp
978   00DE  7D          	ld	a,l
979   00DF  32 00 00    	ld	(_v0),a
980   00E2  2A 00 00    	ld	hl,(_index1)
981   00E5  E5          	push	hl
982   00E6  F5          	push	af
983   00E7  33          	inc	sp
984   00E8  CD F7 04    	call	_player_pick_item
985   00EB  F1          	pop	af
986   00EC  33          	inc	sp
987   00ED  7D          	ld	a,l
988   00EE  32 00 00    	ld	(_v0),a
989   00F1  21 07 00    	ld	hl,+(_col + 0x0007)
990   00F4  56          	ld	d, (hl)
991   00F5  3A 07 00    	ld	a,(_lin + 0x0007)
992   00F8  C6 0E       	add	a,0x0e
993   00FA  5F          	ld	e, a
994   00FB  D5          	push	de
995   00FC  CD 00 00    	call	_spr_calc_index
996   00FF  F1          	pop	af
997   0100  22 00 00    	ld	(_index1),hl
998   0103  01 00 00    	ld	bc,_scr_map
999   0106  09          	add	hl,bc
1000  0107  7E          	ld	a,(hl)
1001  0108  32 00 00    	ld	(_v0),a
1002  010B  F5          	push	af
1003  010C  33          	inc	sp
1004  010D  CD 30 05    	call	_player_pick_deadly
1005  0110  33          	inc	sp
1006  0111  7D          	ld	a,l
1007  0112  32 00 00    	ld	(_v0),a
1008  0115  2A 00 00    	ld	hl,(_index1)
1009  0118  E5          	push	hl
1010  0119  F5          	push	af
1011  011A  33          	inc	sp
1012  011B  CD F7 04    	call	_player_pick_item
1013  011E  F1          	pop	af
1014  011F  33          	inc	sp
1015  0120  7D          	ld	a,l
1016  0121  32 00 00    	ld	(_v0),a
1017  0124  21 07 00    	ld	hl,+(_col + 0x0007)
1018  0127  56          	ld	d, (hl)
1019  0128  14          	inc	d
1020  0129  21 07 00    	ld	hl,+(_lin + 0x0007)
1021  012C  5E          	ld	e, (hl)
1022  012D  D5          	push	de
1023  012E  CD 00 00    	call	_spr_calc_index
1024  0131  F1          	pop	af
1025  0132  22 00 00    	ld	(_index1),hl
1026  0135  01 00 00    	ld	bc,_scr_map
1027  0138  09          	add	hl,bc
1028  0139  7E          	ld	a,(hl)
1029  013A  32 00 00    	ld	(_v0),a
1030  013D  F5          	push	af
1031  013E  33          	inc	sp
1032  013F  CD 30 05    	call	_player_pick_deadly
1033  0142  33          	inc	sp
1034  0143  7D          	ld	a,l
1035  0144  32 00 00    	ld	(_v0),a
1036  0147  2A 00 00    	ld	hl,(_index1)
1037  014A  E5          	push	hl
1038  014B  F5          	push	af
1039  014C  33          	inc	sp
1040  014D  CD F7 04    	call	_player_pick_item
1041  0150  F1          	pop	af
1042  0151  33          	inc	sp
1043  0152  7D          	ld	a,l
1044  0153  32 00 00    	ld	(_v0),a
1045  0156  21 07 00    	ld	hl,+(_col + 0x0007)
1046  0159  56          	ld	d, (hl)
1047  015A  14          	inc	d
1048  015B  3A 07 00    	ld	a,(_lin + 0x0007)
1049  015E  C6 0E       	add	a,0x0e
1050  0160  5F          	ld	e, a
1051  0161  D5          	push	de
1052  0162  CD 00 00    	call	_spr_calc_index
1053  0165  F1          	pop	af
1054  0166  22 00 00    	ld	(_index1),hl
1055  0169  01 00 00    	ld	bc,_scr_map
1056  016C  09          	add	hl,bc
1057  016D  7E          	ld	a,(hl)
1058  016E  32 00 00    	ld	(_v0),a
1059  0171  F5          	push	af
1060  0172  33          	inc	sp
1061  0173  CD 30 05    	call	_player_pick_deadly
1062  0176  33          	inc	sp
1063  0177  7D          	ld	a,l
1064  0178  32 00 00    	ld	(_v0),a
1065  017B  2A 00 00    	ld	hl,(_index1)
1066  017E  E5          	push	hl
1067  017F  F5          	push	af
1068  0180  33          	inc	sp
1069  0181  CD F7 04    	call	_player_pick_item
1070  0184  F1          	pop	af
1071  0185  33          	inc	sp
1072  0186  7D          	ld	a,l
1073  0187  32 00 00    	ld	(_v0),a
1074  018A  21 00 00    	ld	hl,_i
1075  018D  36 00       	ld	(hl),0x00
1076  018F              l_player_collision_00108:
1077  018F  2A 00 00    	ld	hl,(_i)
1078  0192  26 00       	ld	h,0x00
1079  0194  01 00 00    	ld	bc,_class
1080  0197  09          	add	hl,bc
1081  0198  7E          	ld	a,(hl)
1082  0199  B7          	or	a,a
1083  019A  28 4F       	jr	Z,l_player_collision_00109
1084  019C  2A 00 00    	ld	hl,(_i)
1085  019F  26 00       	ld	h,0x00
1086  01A1  01 00 00    	ld	bc,_col
1087  01A4  09          	add	hl,bc
1088  01A5  4E          	ld	c, (hl)
1089  01A6  06 00       	ld	b,0x00
1090  01A8  ED 5B 07 00 	ld	de,(_col + 0x0007)
1091  01AC  50          	ld	d,b
1092  01AD  79          	ld	a, c
1093  01AE  93          	sub	a, e
1094  01AF  6F          	ld	l, a
1095  01B0  78          	ld	a, b
1096  01B1  9A          	sbc	a, d
1097  01B2  67          	ld	h, a
1098  01B3  CD 00 00    	call	_abs_fastcall
1099  01B6  7D          	ld	a,l
1100  01B7  32 00 00    	ld	(_v0),a
1101  01BA  D6 02       	sub	a,0x02
1102  01BC  30 2D       	jr	NC,l_player_collision_00109
1103  01BE  2A 00 00    	ld	hl,(_i)
1104  01C1  26 00       	ld	h,0x00
1105  01C3  01 00 00    	ld	bc,_lin
1106  01C6  09          	add	hl,bc
1107  01C7  4E          	ld	c,(hl)
1108  01C8  06 00       	ld	b,0x00
1109  01CA  ED 5B 07 00 	ld	de,(_lin + 0x0007)
1110  01CE  50          	ld	d,b
1111  01CF  79          	ld	a, c
1112  01D0  93          	sub	a, e
1113  01D1  6F          	ld	l, a
1114  01D2  78          	ld	a, b
1115  01D3  9A          	sbc	a, d
1116  01D4  67          	ld	h, a
1117  01D5  CD 00 00    	call	_abs_fastcall
1118  01D8  7D          	ld	a,l
1119  01D9  32 00 00    	ld	(_v1),a
1120  01DC  D6 10       	sub	a,0x10
1121  01DE  30 0B       	jr	NC,l_player_collision_00109
1122  01E0  21 FF FF    	ld	hl,0xffff
1123  01E3  22 00 00    	ld	(_player_kill_index),hl
1124  01E6  21 00 00    	ld	hl,_player_killed
1125  01E9  36 01       	ld	(hl),0x01
1126  01EB              l_player_collision_00109:
1127  01EB  21 00 00    	ld	hl,_i
1128  01EE  7E          	ld	a,(hl)
1129  01EF  3C          	inc	a
1130  01F0  77          	ld	(hl),a
1131  01F1  D6 07       	sub	a,0x07
1132  01F3  38 9A       	jr	C,l_player_collision_00108
1133  01F5  C9          	ret
1134  01F6              	SECTION code_compiler
1135  01F6              ;	---------------------------------
1136  01F6              ; Function player_move
1137  01F6              ; ---------------------------------
1138  01F6              _player_move:
1139  01F6  2A 00 00    	ld	hl,(_p_state)
1140  01F9  7E          	ld	a,(hl)
1141  01FA  CB 47       	bit	0, a
1142  01FC  20 04       	jr	NZ,l_player_move_00101
1143  01FE  CB 4F       	bit	1, a
1144  0200  28 08       	jr	Z,l_player_move_00102
1145  0202              l_player_move_00101:
1146  0202  CD 7A 02    	call	_player_move_jump
1147  0205  CD 00 00    	call	_spr_move_horizontal
1148  0208  18 06       	jr	l_player_move_00103
1149  020A              l_player_move_00102:
1150  020A  CD AA 03    	call	_player_move_walk
1151  020D  CD 16 02    	call	_player_move_gasta
1152  0210              l_player_move_00103:
1153  0210  CD 00 00    	call	_spr_paint_player
1154  0213  2E 00       	ld	l,0x00
1155  0215  C9          	ret
1156  0216              	SECTION code_compiler
1157  0216              ;	---------------------------------
1158  0216              ; Function player_move_gasta
1159  0216              ; ---------------------------------
1160  0216              _player_move_gasta:
1161  0216  21 07 00    	ld	hl,+(_col + 0x0007)
1162  0219  46          	ld	b, (hl)
1163  021A  3A 07 00    	ld	a,(_lin + 0x0007)
1164  021D  C6 10       	add	a,0x10
1165  021F  4F          	ld	c,a
1166  0220  C5          	push	bc
1167  0221  CD 3C 06    	call	_player_check_floor_walk
1168  0224  F1          	pop	af
1169  0225  7D          	ld	a, l
1170  0226  B7          	or	a, a
1171  0227  C8          	ret	Z
1172  0228  CD 00 00    	call	_spr_move_horizontal
1173  022B  ED 4B 00 00 	ld	bc,(_p_state)
1174  022F  0A          	ld	a,(bc)
1175  0230  F6 02       	or	a,0x02
1176  0232  02          	ld	(bc),a
1177  0233  ED 4B 00 00 	ld	bc,(_p_state)
1178  0237  0A          	ld	a,(bc)
1179  0238  E6 F7       	and	a,0xf7
1180  023A  02          	ld	(bc),a
1181  023B  ED 4B 00 00 	ld	bc,(_p_state)
1182  023F  0A          	ld	a,(bc)
1183  0240  E6 FB       	and	a,0xfb
1184  0242  02          	ld	(bc), a
1185  0243  C9          	ret
1186  0244              	SECTION code_compiler
1187  0244              ;	---------------------------------
1188  0244              ; Function player_check_input
1189  0244              ; ---------------------------------
1190  0244              _player_check_input:
1191  0244  21 00 00    	ld	hl,_dirs
1192  0247  CB 56       	bit	2,(hl)
1193  0249  28 06       	jr	Z,l_player_check_input_00102
1194  024B  CB 5E       	bit	3,(hl)
1195  024D  28 02       	jr	Z,l_player_check_input_00102
1196  024F  36 00       	ld	(hl),0x00
1197  0251              l_player_check_input_00102:
1198  0251  2A 00 00    	ld	hl,(_p_state)
1199  0254  4E          	ld	c, (hl)
1200  0255  3A 00 00    	ld	a,(_dirs)
1201  0258  E6 80       	and	a,0x80
1202  025A  CB 61       	bit	4, c
1203  025C  28 07       	jr	Z,l_player_check_input_00111
1204  025E  B7          	or	a, a
1205  025F  28 16       	jr	Z,l_player_check_input_00112
1206  0261  2E 01       	ld	l,0x01
1207  0263  18 14       	jr	l_player_check_input_00113
1208  0265              l_player_check_input_00111:
1209  0265  21 00 00    	ld	hl,_dirs
1210  0268  CB 56       	bit	2,(hl)
1211  026A  20 07       	jr	NZ,l_player_check_input_00106
1212  026C  CB 5E       	bit	3, (hl)
1213  026E  20 03       	jr	NZ,l_player_check_input_00106
1214  0270  B7          	or	a, a
1215  0271  28 04       	jr	Z,l_player_check_input_00112
1216  0273              l_player_check_input_00106:
1217  0273  2E 01       	ld	l,0x01
1218  0275  18 02       	jr	l_player_check_input_00113
1219  0277              l_player_check_input_00112:
1220  0277  2E 00       	ld	l,0x00
1221  0279              l_player_check_input_00113:
1222  0279  C9          	ret
1223  027A              	SECTION code_compiler
1224  027A              ;	---------------------------------
1225  027A              ; Function player_move_jump
1226  027A              ; ---------------------------------
1227  027A              _player_move_jump:
1228  027A  CD 00 00    	call	___sdcc_enter_ix
1229  027D  F5          	push	af
1230  027E  3B          	dec	sp
1231  027F  2A 00 00    	ld	hl,(_player_vel_y)
1232  0282  ED 5B 00 00 	ld	de,(_game_gravity)
1233  0286  19          	add	hl,de
1234  0287  22 00 00    	ld	(_player_vel_y),hl
1235  028A  21 64 00    	ld	hl,0x0064
1236  028D  E5          	push	hl
1237  028E  2A 00 00    	ld	hl,(_player_vel_y)
1238  0291  E5          	push	hl
1239  0292  CD 00 00    	call	__divsint_callee
1240  0295  EB          	ex	de,hl
1241  0296  CB 43       	bit	0,e
1242  0298  21 00 00    	ld	hl,_s_lin1
1243  029B  73          	ld	(hl),e
1244  029C  28 04       	jr	Z,l_player_move_jump_00102
1245  029E  21 00 00    	ld	hl,_s_lin1
1246  02A1  35          	dec	(hl)
1247  02A2              l_player_move_jump_00102:
1248  02A2  01 07 00    	ld	bc,_lin+7
1249  02A5  0A          	ld	a, (bc)
1250  02A6  DD 77 FF    	ld	(ix-1),a
1251  02A9  21 00 00    	ld	hl,_s_lin1
1252  02AC  86          	add	a, (hl)
1253  02AD  77          	ld	(hl), a
1254  02AE  AF          	xor	a, a
1255  02AF  BB          	cp	a, e
1256  02B0  9A          	sbc	a, d
1257  02B1  E2 B6 02    	jp	PO, l_player_move_jump_00154
1258  02B4  EE 80       	xor	a,0x80
1259  02B6              l_player_move_jump_00154:
1260  02B6  FA 02 03    	jp	M, l_player_move_jump_00117
1261  02B9  C5          	push	bc
1262  02BA  CD 00 00    	call	_spr_set_up
1263  02BD  C1          	pop	bc
1264  02BE  3E 80       	ld	a,0x80
1265  02C0  21 00 00    	ld	hl,_s_lin1
1266  02C3  96          	sub	a, (hl)
1267  02C4  30 02       	jr	NC,l_player_move_jump_00104
1268  02C6  36 00       	ld	(hl),0x00
1269  02C8              l_player_move_jump_00104:
1270  02C8  21 07 00    	ld	hl,+(_col + 0x0007)
1271  02CB  56          	ld	d, (hl)
1272  02CC  C5          	push	bc
1273  02CD  D5          	push	de
1274  02CE  33          	inc	sp
1275  02CF  3A 00 00    	ld	a,(_s_lin1)
1276  02D2  F5          	push	af
1277  02D3  33          	inc	sp
1278  02D4  CD 65 05    	call	_player_check_ceil
1279  02D7  F1          	pop	af
1280  02D8  C1          	pop	bc
1281  02D9  7D          	ld	a, l
1282  02DA  B7          	or	a, a
1283  02DB  20 18       	jr	NZ,l_player_move_jump_00106
1284  02DD  21 00 00    	ld	hl,0x0000
1285  02E0  22 00 00    	ld	(_player_vel_y),hl
1286  02E3  ED 4B 00 00 	ld	bc,(_p_state)
1287  02E7  0A          	ld	a,(bc)
1288  02E8  E6 FB       	and	a,0xfb
1289  02EA  02          	ld	(bc),a
1290  02EB  ED 4B 00 00 	ld	bc,(_p_state)
1291  02EF  0A          	ld	a,(bc)
1292  02F0  E6 F7       	and	a,0xf7
1293  02F2  02          	ld	(bc), a
1294  02F3  18 04       	jr	l_player_move_jump_00107
1295  02F5              l_player_move_jump_00106:
1296  02F5  3A 00 00    	ld	a,(_s_lin1)
1297  02F8  02          	ld	(bc), a
1298  02F9              l_player_move_jump_00107:
1299  02F9  3A 00 00    	ld	a,(_s_lin1)
1300  02FC  32 00 00    	ld	(_player_jump_top),a
1301  02FF  C3 A3 03    	jp	l_player_move_jump_00118
1302  0302              l_player_move_jump_00117:
1303  0302  C5          	push	bc
1304  0303  CD 00 00    	call	_spr_set_down
1305  0306  C1          	pop	bc
1306  0307  3E 68       	ld	a,0x68
1307  0309  21 00 00    	ld	hl,_s_lin1
1308  030C  96          	sub	a, (hl)
1309  030D  30 02       	jr	NC,l_player_move_jump_00109
1310  030F  36 68       	ld	(hl),0x68
1311  0311              l_player_move_jump_00109:
1312  0311  3A 00 00    	ld	a,(_s_lin1)
1313  0314  5F          	ld	e,a
1314  0315  16 00       	ld	d,0x00
1315  0317  3A 00 00    	ld	a,(_player_jump_top)
1316  031A  DD 77 FD    	ld	(ix-3),a
1317  031D  DD 36 FE 00 	ld	(ix-2),0x00
1318  0321  7B          	ld	a, e
1319  0322  DD 96 FD    	sub	a,(ix-3)
1320  0325  5F          	ld	e, a
1321  0326  7A          	ld	a, d
1322  0327  DD 9E FE    	sbc	a,(ix-2)
1323  032A  57          	ld	d, a
1324  032B  3E 02       	ld	a,0x02
1325  032D  BB          	cp	a, e
1326  032E  3E 00       	ld	a,0x00
1327  0330  9A          	sbc	a, d
1328  0331  E2 36 03    	jp	PO, l_player_move_jump_00155
1329  0334  EE 80       	xor	a,0x80
1330  0336              l_player_move_jump_00155:
1331  0336  F2 9F 03    	jp	P, l_player_move_jump_00115
1332  0339  21 07 00    	ld	hl,+(_col + 0x0007)
1333  033C  56          	ld	d, (hl)
1334  033D  0A          	ld	a, (bc)
1335  033E  C6 10       	add	a,0x10
1336  0340  C5          	push	bc
1337  0341  5F          	ld	e,a
1338  0342  D5          	push	de
1339  0343  CD C7 05    	call	_player_check_floor_jump
1340  0346  F1          	pop	af
1341  0347  C1          	pop	bc
1342  0348  7D          	ld	a,l
1343  0349  B7          	or	a, a
1344  034A  20 53       	jr	NZ,l_player_move_jump_00115
1345  034C  3A 00 00    	ld	a,(_s_lin1)
1346  034F  0F          	rrca
1347  0350  0F          	rrca
1348  0351  0F          	rrca
1349  0352  E6 1F       	and	a,0x1f
1350  0354  07          	rlca
1351  0355  07          	rlca
1352  0356  07          	rlca
1353  0357  E6 F8       	and	a,0xf8
1354  0359  32 00 00    	ld	(_tmp_uc),a
1355  035C  5F          	ld	e,a
1356  035D  16 00       	ld	d,0x00
1357  035F  3A 00 00    	ld	a,(_s_lin1)
1358  0362  DD 77 FD    	ld	(ix-3),a
1359  0365  DD 36 FE 00 	ld	(ix-2),0x00
1360  0369  7B          	ld	a, e
1361  036A  DD 96 FD    	sub	a,(ix-3)
1362  036D  5F          	ld	e, a
1363  036E  7A          	ld	a, d
1364  036F  DD 9E FE    	sbc	a,(ix-2)
1365  0372  57          	ld	d, a
1366  0373  3E 02       	ld	a,0x02
1367  0375  BB          	cp	a, e
1368  0376  3E 00       	ld	a,0x00
1369  0378  9A          	sbc	a, d
1370  0379  E2 7E 03    	jp	PO, l_player_move_jump_00156
1371  037C  EE 80       	xor	a,0x80
1372  037E              l_player_move_jump_00156:
1373  037E  FA 9F 03    	jp	M, l_player_move_jump_00115
1374  0381  3A 00 00    	ld	a,(_tmp_uc)
1375  0384  02          	ld	(bc), a
1376  0385  21 00 00    	ld	hl,0x0000
1377  0388  22 00 00    	ld	(_player_vel_y),hl
1378  038B  ED 4B 00 00 	ld	bc,(_p_state)
1379  038F  0A          	ld	a,(bc)
1380  0390  E6 FD       	and	a,0xfd
1381  0392  02          	ld	(bc),a
1382  0393  ED 4B 00 00 	ld	bc,(_p_state)
1383  0397  0A          	ld	a,(bc)
1384  0398  E6 FE       	and	a,0xfe
1385  039A  02          	ld	(bc), a
1386  039B  2E 01       	ld	l,0x01
1387  039D  18 06       	jr	l_player_move_jump_00119
1388  039F              l_player_move_jump_00115:
1389  039F  3A 00 00    	ld	a,(_s_lin1)
1390  03A2  02          	ld	(bc), a
1391  03A3              l_player_move_jump_00118:
1392  03A3  2E 00       	ld	l,0x00
1393  03A5              l_player_move_jump_00119:
1394  03A5  DD F9       	ld	sp, ix
1395  03A7  DD E1       	pop	ix
1396  03A9  C9          	ret
1397  03AA              	SECTION code_compiler
1398  03AA              ;	---------------------------------
1399  03AA              ; Function player_move_walk
1400  03AA              ; ---------------------------------
1401  03AA              _player_move_walk:
1402  03AA  CD 44 02    	call	_player_check_input
1403  03AD  7D          	ld	a,l
1404  03AE  B7          	or	a,a
1405  03AF  CA 4B 04    	jp	Z, l_player_move_walk_00122
1406  03B2  21 00 00    	ld	hl,_dirs
1407  03B5  CB 7E       	bit	7, (hl)
1408  03B7  28 6C       	jr	Z,l_player_move_walk_00111
1409  03B9  21 07 00    	ld	hl,+(_col + 0x0007)
1410  03BC  56          	ld	d, (hl)
1411  03BD  21 07 00    	ld	hl,+(_lin + 0x0007)
1412  03C0  46          	ld	b, (hl)
1413  03C1  05          	dec	b
1414  03C2  05          	dec	b
1415  03C3  58          	ld	e,b
1416  03C4  D5          	push	de
1417  03C5  CD 65 05    	call	_player_check_ceil
1418  03C8  F1          	pop	af
1419  03C9  7D          	ld	a, l
1420  03CA  B7          	or	a, a
1421  03CB  28 54       	jr	Z,l_player_move_walk_00109
1422  03CD  21 00 00    	ld	hl,_player_vel_inc
1423  03D0  36 01       	ld	(hl),0x01
1424  03D2  21 00 00    	ld	hl,_player_jumpcount
1425  03D5  36 FF       	ld	(hl),0xff
1426  03D7  CD 00 00    	call	_audio_salto
1427  03DA  CD 00 00    	call	_spr_set_up
1428  03DD  3A 07 00    	ld	a,(_lin + 0x0007)
1429  03E0  32 07 00    	ld	(_jump_lin+7),a
1430  03E3  2A 00 00    	ld	hl,(_player_vel_y0)
1431  03E6  22 00 00    	ld	(_player_vel_y),hl
1432  03E9  ED 4B 00 00 	ld	bc,(_p_state)
1433  03ED  0A          	ld	a,(bc)
1434  03EE  E6 F7       	and	a,0xf7
1435  03F0  02          	ld	(bc),a
1436  03F1  ED 4B 00 00 	ld	bc,(_p_state)
1437  03F5  0A          	ld	a,(bc)
1438  03F6  E6 FB       	and	a,0xfb
1439  03F8  02          	ld	(bc),a
1440  03F9  2A 00 00    	ld	hl,(_p_state)
1441  03FC  CB 66       	bit	4,(hl)
1442  03FE  28 05       	jr	Z,l_player_move_walk_00106
1443  0400  CD 00 00    	call	_spr_set_left
1444  0403  18 14       	jr	l_player_move_walk_00107
1445  0405              l_player_move_walk_00106:
1446  0405  21 00 00    	ld	hl,_dirs
1447  0408  CB 56       	bit	2, (hl)
1448  040A  28 03       	jr	Z,l_player_move_walk_00102
1449  040C  CD 00 00    	call	_spr_set_left
1450  040F              l_player_move_walk_00102:
1451  040F  21 00 00    	ld	hl,_dirs
1452  0412  CB 5E       	bit	3, (hl)
1453  0414  28 03       	jr	Z,l_player_move_walk_00107
1454  0416  CD 00 00    	call	_spr_set_right
1455  0419              l_player_move_walk_00107:
1456  0419  21 60 04    	ld	hl,0x0460
1457  041C  E5          	push	hl
1458  041D  CD BD 04    	call	_player_tile
1459  0420  F1          	pop	af
1460  0421              l_player_move_walk_00109:
1461  0421  2E 01       	ld	l,0x01
1462  0423  18 65       	jr	l_player_move_walk_00124
1463  0425              l_player_move_walk_00111:
1464  0425  21 00 00    	ld	hl,_dirs
1465  0428  CB 5E       	bit	3, (hl)
1466  042A  28 06       	jr	Z,l_player_move_walk_00113
1467  042C  CD 00 00    	call	_spr_set_right
1468  042F  CD 00 00    	call	_spr_move_horizontal
1469  0432              l_player_move_walk_00113:
1470  0432  21 00 00    	ld	hl,_dirs
1471  0435  CB 56       	bit	2, (hl)
1472  0437  28 06       	jr	Z,l_player_move_walk_00115
1473  0439  CD 00 00    	call	_spr_set_left
1474  043C  CD 00 00    	call	_spr_move_horizontal
1475  043F              l_player_move_walk_00115:
1476  043F  21 60 04    	ld	hl,0x0460
1477  0442  E5          	push	hl
1478  0443  CD BD 04    	call	_player_tile
1479  0446  F1          	pop	af
1480  0447  2E 01       	ld	l,0x01
1481  0449  18 3F       	jr	l_player_move_walk_00124
1482  044B              l_player_move_walk_00122:
1483  044B  ED 4B 00 00 	ld	bc,(_p_state)
1484  044F  0A          	ld	a,(bc)
1485  0450  E6 F7       	and	a,0xf7
1486  0452  02          	ld	(bc),a
1487  0453  ED 4B 00 00 	ld	bc,(_p_state)
1488  0457  0A          	ld	a,(bc)
1489  0458  E6 FB       	and	a,0xfb
1490  045A  02          	ld	(bc),a
1491  045B  ED 4B 00 00 	ld	bc,(_p_state)
1492  045F  0A          	ld	a,(bc)
1493  0460  CB 67       	bit	4,a
1494  0462  28 24       	jr	Z,l_player_move_walk_00123
1495  0464  5F          	ld	e,a
1496  0465  3A 00 00    	ld	a,(_game_conveyor_dir)
1497  0468  3C          	inc	a
1498  0469  20 0E       	jr	NZ,l_player_move_walk_00117
1499  046B  7B          	ld	a, e
1500  046C  F6 08       	or	a,0x08
1501  046E  02          	ld	(bc), a
1502  046F  21 60 04    	ld	hl,0x0460
1503  0472  E5          	push	hl
1504  0473  CD BD 04    	call	_player_tile
1505  0476  F1          	pop	af
1506  0477  18 0C       	jr	l_player_move_walk_00118
1507  0479              l_player_move_walk_00117:
1508  0479  7B          	ld	a, e
1509  047A  F6 04       	or	a,0x04
1510  047C  02          	ld	(bc), a
1511  047D  21 60 04    	ld	hl,0x0460
1512  0480  E5          	push	hl
1513  0481  CD BD 04    	call	_player_tile
1514  0484  F1          	pop	af
1515  0485              l_player_move_walk_00118:
1516  0485  CD 00 00    	call	_spr_move_horizontal
1517  0488              l_player_move_walk_00123:
1518  0488  2E 00       	ld	l,0x00
1519  048A              l_player_move_walk_00124:
1520  048A  C9          	ret
1521  048B              	SECTION code_compiler
1522  048B              ;	---------------------------------
1523  048B              ; Function player_1up
1524  048B              ; ---------------------------------
1525  048B              _player_1up:
1526  048B  21 00 00    	ld	hl,_player_lives
1527  048E  7E          	ld	a, (hl)
1528  048F  D6 64       	sub	a,0x64
1529  0491  D0          	ret	NC
1530  0492  34          	inc	(hl)
1531  0493  CD 00 00    	call	_spr_flatten
1532  0496  21 00 00    	ld	hl,___str_0
1533  0499  E5          	push	hl
1534  049A  21 0C 0C    	ld	hl,0x0c0c
1535  049D  E5          	push	hl
1536  049E  CD 00 00    	call	_zx_print_str
1537  04A1  AF          	xor	a, a
1538  04A2  F5          	push	af
1539  04A3  33          	inc	sp
1540  04A4  21 19 00    	ld	hl,0x0019
1541  04A7  E5          	push	hl
1542  04A8  21 0C 11    	ld	hl,0x110c
1543  04AB  E5          	push	hl
1544  04AC  3E 0C       	ld	a,0x0c
1545  04AE  F5          	push	af
1546  04AF  33          	inc	sp
1547  04B0  CD 00 00    	call	_game_colour_message
1548  04B3  F1          	pop	af
1549  04B4  F1          	pop	af
1550  04B5  F1          	pop	af
1551  04B6  CD 00 00    	call	_game_update_stats
1552  04B9  CD 00 00    	call	_spr_unflattenP1
1553  04BC  C9          	ret
1554  04BD              	SECTION rodata_compiler
1555  0000              ___str_0:
1556  0000  31 20 55 50 21 
                        	DEFM "1 UP!"
1557  0005  00          	DEFB 0x00
1558  0006              	SECTION code_compiler
1559  04BD              ;	---------------------------------
1560  04BD              ; Function player_tile
1561  04BD              ; ---------------------------------
1562  04BD              _player_tile:
1563  04BD  CD 00 00    	call	___sdcc_enter_ix
1564  04C0  21 05 00    	ld	hl,0x0005
1565  04C3  39          	add	hl, sp
1566  04C4  EB          	ex	de,hl
1567  04C5  21 04 00    	ld	hl,0x0004
1568  04C8  39          	add	hl, sp
1569  04C9  D5          	push	de
1570  04CA  E5          	push	hl
1571  04CB  CD 00 00    	call	_spr_tile_dir
1572  04CE  F1          	pop	af
1573  04CF  F1          	pop	af
1574  04D0  7D          	ld	a,l
1575  04D1  32 07 00    	ld	((_tile + 0x0007)),a
1576  04D4  DD E1       	pop	ix
1577  04D6  C9          	ret
1578  04D7              	SECTION code_compiler
1579  04D7              ;	---------------------------------
1580  04D7              ; Function player_score_add
1581  04D7              ; ---------------------------------
1582  04D7              _player_score_add:
1583  04D7  ED 4B 00 00 	ld	bc,(_player_score)
1584  04DB  09          	add	hl,bc
1585  04DC  22 00 00    	ld	(_player_score),hl
1586  04DF  3A 00 00    	ld	a,(_game_score_top)
1587  04E2  21 00 00    	ld	hl,_player_score
1588  04E5  96          	sub	a, (hl)
1589  04E6  3A 01 00    	ld	a,(_game_score_top + 1)
1590  04E9  23          	inc	hl
1591  04EA  9E          	sbc	a, (hl)
1592  04EB  D2 00 00    	jp	NC,_game_print_score
1593  04EE  2A 00 00    	ld	hl,(_player_score)
1594  04F1  22 00 00    	ld	(_game_score_top),hl
1595  04F4  C3 00 00    	jp  _game_print_score
1596  04F7              	SECTION code_compiler
1597  04F7              ;	---------------------------------
1598  04F7              ; Function player_pick_item
1599  04F7              ; ---------------------------------
1600  04F7              _player_pick_item:
1601  04F7  CD 00 00    	call	___sdcc_enter_ix
1602  04FA  DD 7E 04    	ld	a,(ix+4)
1603  04FD  D6 0E       	sub	a,0x0e
1604  04FF  20 29       	jr	NZ,l_player_pick_item_00102
1605  0501  3E 00       	ld	a, +((_scr_map) & 0xFF)
1606  0503  DD 86 05    	add	a,(ix+5)
1607  0506  4F          	ld	c, a
1608  0507  3E 00       	ld	a, +((_scr_map) / 256)
1609  0509  DD 8E 06    	adc	a,(ix+6)
1610  050C  47          	ld	b, a
1611  050D  AF          	xor	a, a
1612  050E  02          	ld	(bc), a
1613  050F  21 00 00    	ld	hl,_player_coins
1614  0512  7E          	ld	a,(hl)
1615  0513  3C          	inc	a
1616  0514  77          	ld	(hl),a
1617  0515  F5          	push	af
1618  0516  33          	inc	sp
1619  0517  21 15 00    	ld	hl,0x0015
1620  051A  E5          	push	hl
1621  051B  CD 00 00    	call	_zx_print_chr
1622  051E  2E 06       	ld	l,0x06
1623  0520  CD 00 00    	call	_zx_border_fastcall
1624  0523  CD 00 00    	call	_audio_coin
1625  0526  2E 00       	ld	l,0x00
1626  0528  18 03       	jr	l_player_pick_item_00103
1627  052A              l_player_pick_item_00102:
1628  052A  DD 6E 04    	ld	l,(ix+4)
1629  052D              l_player_pick_item_00103:
1630  052D  DD E1       	pop	ix
1631  052F  C9          	ret
1632  0530              	SECTION code_compiler
1633  0530              ;	---------------------------------
1634  0530              ; Function player_pick_deadly
1635  0530              ; ---------------------------------
1636  0530              _player_pick_deadly:
1637  0530  CD 00 00    	call	___sdcc_enter_ix
1638  0533  DD 7E 04    	ld	a,(ix+4)
1639  0536  D6 0C       	sub	a,0x0c
1640  0538  28 07       	jr	Z,l_player_pick_deadly_00101
1641  053A  DD 7E 04    	ld	a,(ix+4)
1642  053D  D6 0D       	sub	a,0x0d
1643  053F  20 1E       	jr	NZ,l_player_pick_deadly_00102
1644  0541              l_player_pick_deadly_00101:
1645  0541  21 00 00    	ld	hl,_player_killed
1646  0544  36 01       	ld	(hl),0x01
1647  0546  2A 00 00    	ld	hl,(_index1)
1648  0549  22 00 00    	ld	(_player_kill_index),hl
1649  054C  2E 02       	ld	l,0x02
1650  054E  CD 00 00    	call	_zx_border_fastcall
1651  0551  21 00 00    	ld	hl,_v0
1652  0554  36 00       	ld	(hl),0x00
1653  0556  21 00 00    	ld	hl,_v1
1654  0559  36 00       	ld	(hl),0x00
1655  055B  2E 00       	ld	l,0x00
1656  055D  18 03       	jr	l_player_pick_deadly_00104
1657  055F              l_player_pick_deadly_00102:
1658  055F  DD 6E 04    	ld	l,(ix+4)
1659  0562              l_player_pick_deadly_00104:
1660  0562  DD E1       	pop	ix
1661  0564  C9          	ret
1662  0565              	SECTION code_compiler
1663  0565              ;	---------------------------------
1664  0565              ; Function player_check_ceil
1665  0565              ; ---------------------------------
1666  0565              _player_check_ceil:
1667  0565  CD 00 00    	call	___sdcc_enter_ix
1668  0568  3A 07 00    	ld	a,(_colint + 0x0007)
1669  056B  D6 03       	sub	a,0x03
1670  056D  30 18       	jr	NC,l_player_check_ceil_00102
1671  056F  DD 66 05    	ld	h,(ix+5)
1672  0572  DD 6E 04    	ld	l,(ix+4)
1673  0575  E5          	push	hl
1674  0576  CD 00 00    	call	_spr_calc_index
1675  0579  F1          	pop	af
1676  057A  22 00 00    	ld	(_index1),hl
1677  057D  01 00 00    	ld	bc,_scr_map
1678  0580  09          	add	hl,bc
1679  0581  7E          	ld	a,(hl)
1680  0582  32 00 00    	ld	(_v0),a
1681  0585  18 05       	jr	l_player_check_ceil_00103
1682  0587              l_player_check_ceil_00102:
1683  0587  21 00 00    	ld	hl,_v0
1684  058A  36 00       	ld	(hl),0x00
1685  058C              l_player_check_ceil_00103:
1686  058C  3A 07 00    	ld	a,(_colint + 0x0007)
1687  058F  B7          	or	a, a
1688  0590  28 19       	jr	Z,l_player_check_ceil_00105
1689  0592  DD 46 05    	ld	b,(ix+5)
1690  0595  04          	inc	b
1691  0596  DD 4E 04    	ld	c,(ix+4)
1692  0599  C5          	push	bc
1693  059A  CD 00 00    	call	_spr_calc_index
1694  059D  F1          	pop	af
1695  059E  22 00 00    	ld	(_index1),hl
1696  05A1  01 00 00    	ld	bc,_scr_map
1697  05A4  09          	add	hl,bc
1698  05A5  7E          	ld	a,(hl)
1699  05A6  32 00 00    	ld	(_v1),a
1700  05A9  18 05       	jr	l_player_check_ceil_00106
1701  05AB              l_player_check_ceil_00105:
1702  05AB  21 00 00    	ld	hl,_v1
1703  05AE  36 00       	ld	(hl),0x00
1704  05B0              l_player_check_ceil_00106:
1705  05B0  3A 00 00    	ld	a,(_v0)
1706  05B3  D6 0A       	sub	a,0x0a
1707  05B5  28 0B       	jr	Z,l_player_check_ceil_00108
1708  05B7  3A 00 00    	ld	a,(_v1)
1709  05BA  D6 0A       	sub	a,0x0a
1710  05BC  28 04       	jr	Z,l_player_check_ceil_00108
1711  05BE  2E 01       	ld	l,0x01
1712  05C0  18 02       	jr	l_player_check_ceil_00110
1713  05C2              l_player_check_ceil_00108:
1714  05C2  2E 00       	ld	l,0x00
1715  05C4              l_player_check_ceil_00110:
1716  05C4  DD E1       	pop	ix
1717  05C6  C9          	ret
1718  05C7              	SECTION code_compiler
1719  05C7              ;	---------------------------------
1720  05C7              ; Function player_check_floor_jump
1721  05C7              ; ---------------------------------
1722  05C7              _player_check_floor_jump:
1723  05C7  CD 00 00    	call	___sdcc_enter_ix
1724  05CA  DD 66 05    	ld	h,(ix+5)
1725  05CD  DD 6E 04    	ld	l,(ix+4)
1726  05D0  E5          	push	hl
1727  05D1  CD 00 00    	call	_spr_calc_index
1728  05D4  F1          	pop	af
1729  05D5  22 00 00    	ld	(_index1),hl
1730  05D8  01 00 00    	ld	bc,_scr_map
1731  05DB  09          	add	hl,bc
1732  05DC  7E          	ld	a,(hl)
1733  05DD  32 00 00    	ld	(_v0),a
1734  05E0  DD 46 05    	ld	b,(ix+5)
1735  05E3  04          	inc	b
1736  05E4  DD 4E 04    	ld	c,(ix+4)
1737  05E7  C5          	push	bc
1738  05E8  CD 00 00    	call	_spr_calc_index
1739  05EB  F1          	pop	af
1740  05EC  22 00 00    	ld	(_index1),hl
1741  05EF  01 00 00    	ld	bc,_scr_map
1742  05F2  09          	add	hl,bc
1743  05F3  7E          	ld	a,(hl)
1744  05F4  32 00 00    	ld	(_v1),a
1745  05F7  ED 4B 00 00 	ld	bc,(_p_state)
1746  05FB  0A          	ld	a,(bc)
1747  05FC  5F          	ld	e,a
1748  05FD  3A 00 00    	ld	a,(_v0)
1749  0600  D6 0B       	sub	a,0x0b
1750  0602  28 07       	jr	Z,l_player_check_floor_jump_00101
1751  0604  3A 00 00    	ld	a,(_v1)
1752  0607  D6 0B       	sub	a,0x0b
1753  0609  20 06       	jr	NZ,l_player_check_floor_jump_00102
1754  060B              l_player_check_floor_jump_00101:
1755  060B  7B          	ld	a, e
1756  060C  F6 10       	or	a,0x10
1757  060E  02          	ld	(bc), a
1758  060F  18 04       	jr	l_player_check_floor_jump_00103
1759  0611              l_player_check_floor_jump_00102:
1760  0611  CB A3       	res	4, e
1761  0613  7B          	ld	a, e
1762  0614  02          	ld	(bc), a
1763  0615              l_player_check_floor_jump_00103:
1764  0615  21 00 00    	ld	hl,_v0
1765  0618  7E          	ld	a, (hl)
1766  0619  D6 01       	sub	a,0x01
1767  061B  38 09       	jr	C,l_player_check_floor_jump_00106
1768  061D  3E 0B       	ld	a,0x0b
1769  061F  96          	sub	a, (hl)
1770  0620  38 04       	jr	C,l_player_check_floor_jump_00106
1771  0622  2E 00       	ld	l,0x00
1772  0624  18 13       	jr	l_player_check_floor_jump_00111
1773  0626              l_player_check_floor_jump_00106:
1774  0626  21 00 00    	ld	hl,_v1
1775  0629  7E          	ld	a, (hl)
1776  062A  D6 01       	sub	a,0x01
1777  062C  38 09       	jr	C,l_player_check_floor_jump_00109
1778  062E  3E 0B       	ld	a,0x0b
1779  0630  96          	sub	a, (hl)
1780  0631  38 04       	jr	C,l_player_check_floor_jump_00109
1781  0633  2E 00       	ld	l,0x00
1782  0635  18 02       	jr	l_player_check_floor_jump_00111
1783  0637              l_player_check_floor_jump_00109:
1784  0637  2E 01       	ld	l,0x01
1785  0639              l_player_check_floor_jump_00111:
1786  0639  DD E1       	pop	ix
1787  063B  C9          	ret
1788  063C              	SECTION code_compiler
1789  063C              ;	---------------------------------
1790  063C              ; Function player_check_floor_walk
1791  063C              ; ---------------------------------
1792  063C              _player_check_floor_walk:
1793  063C  CD 00 00    	call	___sdcc_enter_ix
1794  063F  F5          	push	af
1795  0640  DD 66 05    	ld	h,(ix+5)
1796  0643  DD 6E 04    	ld	l,(ix+4)
1797  0646  E5          	push	hl
1798  0647  CD 00 00    	call	_spr_calc_index
1799  064A  F1          	pop	af
1800  064B  22 00 00    	ld	(_index1),hl
1801  064E  11 00 00    	ld	de,_scr_map+0
1802  0651  7B          	ld	a,e
1803  0652  21 00 00    	ld	hl,_index1
1804  0655  86          	add	a, (hl)
1805  0656  DD 77 FE    	ld	(ix-2),a
1806  0659  7A          	ld	a, d
1807  065A  23          	inc	hl
1808  065B  8E          	adc	a, (hl)
1809  065C  DD 77 FF    	ld	(ix-1),a
1810  065F  E1          	pop	hl
1811  0660  7E          	ld	a,(hl)
1812  0661  E5          	push	hl
1813  0662  32 00 00    	ld	(_v0),a
1814  0665  ED 4B 00 00 	ld	bc,(_index1)
1815  0669  03          	inc	bc
1816  066A  6B          	ld	l, e
1817  066B  62          	ld	h, d
1818  066C  09          	add	hl, bc
1819  066D  7E          	ld	a, (hl)
1820  066E  32 00 00    	ld	(_v1),a
1821  0671  3A 00 00    	ld	a,(_v0)
1822  0674  D6 0E       	sub	a,0x0e
1823  0676  20 05       	jr	NZ,l_player_check_floor_walk_00102
1824  0678  21 00 00    	ld	hl,_v0
1825  067B  36 00       	ld	(hl),0x00
1826  067D              l_player_check_floor_walk_00102:
1827  067D  3A 00 00    	ld	a,(_v1)
1828  0680  D6 0E       	sub	a,0x0e
1829  0682  20 05       	jr	NZ,l_player_check_floor_walk_00104
1830  0684  21 00 00    	ld	hl,_v1
1831  0687  36 00       	ld	(hl),0x00
1832  0689              l_player_check_floor_walk_00104:
1833  0689  3A 00 00    	ld	a,(_v0)
1834  068C  B7          	or	a, a
1835  068D  20 0B       	jr	NZ,l_player_check_floor_walk_00106
1836  068F  3A 00 00    	ld	a,(_v1)
1837  0692  B7          	or	a, a
1838  0693  20 05       	jr	NZ,l_player_check_floor_walk_00106
1839  0695  2E 01       	ld	l,0x01
1840  0697  C3 44 07    	jp	l_player_check_floor_walk_00124
1841  069A              l_player_check_floor_walk_00106:
1842  069A  DD 4E 04    	ld	c,(ix+4)
1843  069D  CB 39       	srl	c
1844  069F  CB 39       	srl	c
1845  06A1  CB 39       	srl	c
1846  06A3  21 00 00    	ld	hl,_v0
1847  06A6  7E          	ld	a, (hl)
1848  06A7  D6 02       	sub	a,0x02
1849  06A9  38 36       	jr	C,l_player_check_floor_walk_00112
1850  06AB  3E 09       	ld	a,0x09
1851  06AD  96          	sub	a, (hl)
1852  06AE  38 31       	jr	C,l_player_check_floor_walk_00112
1853  06B0  7E          	ld	a, (hl)
1854  06B1  D6 08       	sub	a,0x08
1855  06B3  30 07       	jr	NC,l_player_check_floor_walk_00109
1856  06B5  46          	ld	b, (hl)
1857  06B6  04          	inc	b
1858  06B7  E1          	pop	hl
1859  06B8  E5          	push	hl
1860  06B9  70          	ld	(hl), b
1861  06BA  18 04       	jr	l_player_check_floor_walk_00110
1862  06BC              l_player_check_floor_walk_00109:
1863  06BC  E1          	pop	hl
1864  06BD  E5          	push	hl
1865  06BE  36 00       	ld	(hl),0x00
1866  06C0              l_player_check_floor_walk_00110:
1867  06C0  DD 7E 05    	ld	a,(ix+5)
1868  06C3  32 00 00    	ld	(_s_col1),a
1869  06C6  21 00 00    	ld	hl,_s_lin1
1870  06C9  71          	ld	(hl),c
1871  06CA  79          	ld	a,c
1872  06CB  07          	rlca
1873  06CC  07          	rlca
1874  06CD  07          	rlca
1875  06CE  E6 F8       	and	a,0xf8
1876  06D0  77          	ld	(hl),a
1877  06D1  0F          	rrca
1878  06D2  0F          	rrca
1879  06D3  0F          	rrca
1880  06D4  E6 1F       	and	a,0x1f
1881  06D6  3C          	inc	a
1882  06D7  32 00 00    	ld	(_s_row1),a
1883  06DA  C5          	push	bc
1884  06DB  D5          	push	de
1885  06DC  CD 00 00    	call	_game_cell_paint
1886  06DF  D1          	pop	de
1887  06E0  C1          	pop	bc
1888  06E1              l_player_check_floor_walk_00112:
1889  06E1  21 00 00    	ld	hl,_v1
1890  06E4  7E          	ld	a, (hl)
1891  06E5  D6 02       	sub	a,0x02
1892  06E7  38 3B       	jr	C,l_player_check_floor_walk_00118
1893  06E9  3E 09       	ld	a,0x09
1894  06EB  96          	sub	a, (hl)
1895  06EC  38 36       	jr	C,l_player_check_floor_walk_00118
1896  06EE  21 00 00    	ld	hl,_index1
1897  06F1  34          	inc	(hl)
1898  06F2  20 02       	jr	NZ,l_player_check_floor_walk_00174
1899  06F4  23          	inc	hl
1900  06F5  34          	inc	(hl)
1901  06F6              l_player_check_floor_walk_00174:
1902  06F6  2A 00 00    	ld	hl,(_index1)
1903  06F9  19          	add	hl,de
1904  06FA  EB          	ex	de,hl
1905  06FB  21 00 00    	ld	hl,_v1
1906  06FE  7E          	ld	a, (hl)
1907  06FF  D6 08       	sub	a,0x08
1908  0701  30 05       	jr	NC,l_player_check_floor_walk_00115
1909  0703  7E          	ld	a, (hl)
1910  0704  3C          	inc	a
1911  0705  12          	ld	(de), a
1912  0706  18 02       	jr	l_player_check_floor_walk_00116
1913  0708              l_player_check_floor_walk_00115:
1914  0708  AF          	xor	a, a
1915  0709  12          	ld	(de), a
1916  070A              l_player_check_floor_walk_00116:
1917  070A  DD 7E 05    	ld	a,(ix+5)
1918  070D  3C          	inc	a
1919  070E  32 00 00    	ld	(_s_col1),a
1920  0711  21 00 00    	ld	hl,_s_lin1
1921  0714  71          	ld	(hl),c
1922  0715  79          	ld	a,c
1923  0716  07          	rlca
1924  0717  07          	rlca
1925  0718  07          	rlca
1926  0719  E6 F8       	and	a,0xf8
1927  071B  77          	ld	(hl), a
1928  071C  79          	ld	a, c
1929  071D  3C          	inc	a
1930  071E  32 00 00    	ld	(_s_row1),a
1931  0721  CD 00 00    	call	_game_cell_paint
1932  0724              l_player_check_floor_walk_00118:
1933  0724  ED 4B 00 00 	ld	bc,(_p_state)
1934  0728  0A          	ld	a,(bc)
1935  0729  5F          	ld	e,a
1936  072A  3A 00 00    	ld	a,(_v0)
1937  072D  D6 0B       	sub	a,0x0b
1938  072F  28 07       	jr	Z,l_player_check_floor_walk_00120
1939  0731  3A 00 00    	ld	a,(_v1)
1940  0734  D6 0B       	sub	a,0x0b
1941  0736  20 06       	jr	NZ,l_player_check_floor_walk_00121
1942  0738              l_player_check_floor_walk_00120:
1943  0738  7B          	ld	a, e
1944  0739  F6 10       	or	a,0x10
1945  073B  02          	ld	(bc), a
1946  073C  18 04       	jr	l_player_check_floor_walk_00122
1947  073E              l_player_check_floor_walk_00121:
1948  073E  CB A3       	res	4, e
1949  0740  7B          	ld	a, e
1950  0741  02          	ld	(bc), a
1951  0742              l_player_check_floor_walk_00122:
1952  0742  2E 00       	ld	l,0x00
1953  0744              l_player_check_floor_walk_00124:
1954  0744  F1          	pop	af
1955  0745  DD E1       	pop	ix
1956  0747  C9          	ret
1957  0748              	SECTION code_compiler
1958  0748              ;	---------------------------------
1959  0748              ; Function player_lost_life
1960  0748              ; ---------------------------------
1961  0748              _player_lost_life:
1962  0748  CD 00 00    	call	___sdcc_enter_ix
1963  074B  F5          	push	af
1964  074C  CD 00 00    	call	_ay_reset
1965  074F  CD 00 00    	call	_audio_explosion
1966  0752  CD 00 00    	call	_game_update_stats
1967  0755  4F          	ld	c, a
1968  0756              l_player_lost_life_00104:
1969  0756  79          	ld	a, c
1970  0757  D6 20       	sub	a,0x20
1971  0759  30 7C       	jr	NC,l_player_lost_life_00106
1972  075B  21 00 00    	ld	hl,_player_kill_index
1973  075E  7E          	ld	a, (hl)
1974  075F  3C          	inc	a
1975  0760  20 05       	jr	NZ,l_player_lost_life_00147
1976  0762  23          	inc	hl
1977  0763  7E          	ld	a, (hl)
1978  0764  3C          	inc	a
1979  0765  28 3D       	jr	Z,l_player_lost_life_00102
1980  0767              l_player_lost_life_00147:
1981  0767  2A 00 00    	ld	hl,(_player_kill_index)
1982  076A  22 00 00    	ld	(_index1),hl
1983  076D  21 07 00    	ld	hl,+(_col + 0x0007)
1984  0770  56          	ld	d, (hl)
1985  0771  3A 07 00    	ld	a,(_lin + 0x0007)
1986  0774  C6 10       	add	a,0x10
1987  0776  5F          	ld	e, a
1988  0777  3A 07 00    	ld	a,(_tile + 0x0007)
1989  077A  DD 77 FF    	ld	(ix-1),a
1990  077D  2A 07 00    	ld	hl,(_colint + 0x0007)
1991  0780  DD 7E FF    	ld	a,(ix-1)
1992  0783  85          	add	a, l
1993  0784  47          	ld	b, a
1994  0785  C5          	push	bc
1995  0786  D5          	push	de
1996  0787  0E 07       	ld	c,0x07
1997  0789  C5          	push	bc
1998  078A  CD 00 00    	call	_NIRVANAP_spriteT_callee
1999  078D  C1          	pop	bc
2000  078E  76          	halt
2001  078F  C5          	push	bc
2002  0790  21 00 00    	ld	hl,0x0000
2003  0793  E5          	push	hl
2004  0794  2E 07       	ld	l,0x07
2005  0796  E5          	push	hl
2006  0797  CD 00 00    	call	_NIRVANAP_spriteT_callee
2007  079A  C1          	pop	bc
2008  079B  76          	halt
2009  079C  C5          	push	bc
2010  079D  CD 00 00    	call	_game_cell_paint_index
2011  07A0  C1          	pop	bc
2012  07A1  76          	halt
2013  07A2  18 2A       	jr	l_player_lost_life_00103
2014  07A4              l_player_lost_life_00102:
2015  07A4  21 07 00    	ld	hl,+(_col + 0x0007)
2016  07A7  46          	ld	b, (hl)
2017  07A8  3A 07 00    	ld	a,(_lin + 0x0007)
2018  07AB  C6 10       	add	a,0x10
2019  07AD  57          	ld	d, a
2020  07AE  3A 07 00    	ld	a,(_tile + 0x0007)
2021  07B1  2A 07 00    	ld	hl, (_colint + 0x0007)
2022  07B4  85          	add	a, l
2023  07B5  C5          	push	bc
2024  07B6  4A          	ld	c, d
2025  07B7  C5          	push	bc
2026  07B8  57          	ld	d,a
2027  07B9  1E 07       	ld	e,0x07
2028  07BB  D5          	push	de
2029  07BC  CD 00 00    	call	_NIRVANAP_spriteT_callee
2030  07BF  C1          	pop	bc
2031  07C0  76          	halt
2032  07C1  C5          	push	bc
2033  07C2  21 00 00    	ld	hl,0x0000
2034  07C5  E5          	push	hl
2035  07C6  2E 07       	ld	l,0x07
2036  07C8  E5          	push	hl
2037  07C9  CD 00 00    	call	_NIRVANAP_spriteT_callee
2038  07CC  C1          	pop	bc
2039  07CD  76          	halt
2040  07CE              l_player_lost_life_00103:
2041  07CE  C5          	push	bc
2042  07CF  CD 00 00    	call	_game_rotate_attrib
2043  07D2  C1          	pop	bc
2044  07D3  0C          	inc	c
2045  07D4  C3 56 07    	jp	l_player_lost_life_00104
2046  07D7              l_player_lost_life_00106:
2047  07D7  3A 07 00    	ld	a,(_lin + 0x0007)
2048  07DA  32 00 00    	ld	(_s_lin0),a
2049  07DD  3A 07 00    	ld	a,(_col + 0x0007)
2050  07E0  32 00 00    	ld	(_s_col0),a
2051  07E3  CD 00 00    	call	_spr_init_effects
2052  07E6  06 00       	ld	b,0x00
2053  07E8              l_player_lost_life_00113:
2054  07E8  C5          	push	bc
2055  07E9  21 00 00    	ld	hl,0x0000
2056  07EC  E5          	push	hl
2057  07ED  AF          	xor	a, a
2058  07EE  48          	ld	c,b
2059  07EF  47          	ld	b,a
2060  07F0  C5          	push	bc
2061  07F1  CD 00 00    	call	_NIRVANAP_spriteT_callee
2062  07F4  C1          	pop	bc
2063  07F5  04          	inc	b
2064  07F6  3E 07       	ld	a,0x07
2065  07F8  90          	sub	a, b
2066  07F9  30 ED       	jr	NC,l_player_lost_life_00113
2067  07FB  3A 00 00    	ld	a,(_game_inf_lives)
2068  07FE  B7          	or	a, a
2069  07FF  20 04       	jr	NZ,l_player_lost_life_00109
2070  0801  21 00 00    	ld	hl,_player_lives
2071  0804  35          	dec	(hl)
2072  0805              l_player_lost_life_00109:
2073  0805  3A 00 00    	ld	a,(_player_lives)
2074  0808  B7          	or	a, a
2075  0809  28 05       	jr	Z,l_player_lost_life_00111
2076  080B  CD 00 00    	call	_game_round_init
2077  080E  18 0A       	jr	l_player_lost_life_00115
2078  0810              l_player_lost_life_00111:
2079  0810  21 00 00    	ld	hl,_player_lives
2080  0813  36 00       	ld	(hl),0x00
2081  0815  21 00 00    	ld	hl,_game_over
2082  0818  36 01       	ld	(hl),0x01
2083  081A              l_player_lost_life_00115:
2084  081A  F1          	pop	af
2085  081B  DD E1       	pop	ix
2086  081D  C9          	ret
2087  081E              	SECTION IGNORE
2088  0000              
