1     0000              MODULE game_enemies_c
2     0000              LINE 0, "game_enemies.c"
0     0000              
1     0000              ;--------------------------------------------------------
2     0000              ; File Created by SDCC : free open source ANSI-C Compiler
3     0000              ; Version 3.6.9 #9958 (Mac OS X i386)
4     0000              ;--------------------------------------------------------
5     0000              ; Processed by Z88DK
6     0000              ;--------------------------------------------------------
7     0000              
8     0000              	EXTERN __divschar
9     0000              	EXTERN __divschar_callee
10    0000              	EXTERN __divsint
11    0000              	EXTERN __divsint_callee
12    0000              	EXTERN __divslong
13    0000              	EXTERN __divslong_callee
14    0000              	EXTERN __divslonglong
15    0000              	EXTERN __divslonglong_callee
16    0000              	EXTERN __divsuchar
17    0000              	EXTERN __divsuchar_callee
18    0000              	EXTERN __divuchar
19    0000              	EXTERN __divuchar_callee
20    0000              	EXTERN __divuint
21    0000              	EXTERN __divuint_callee
22    0000              	EXTERN __divulong
23    0000              	EXTERN __divulong_callee
24    0000              	EXTERN __divulonglong
25    0000              	EXTERN __divulonglong_callee
26    0000              	EXTERN __divuschar
27    0000              	EXTERN __divuschar_callee
28    0000              	EXTERN __modschar
29    0000              	EXTERN __modschar_callee
30    0000              	EXTERN __modsint
31    0000              	EXTERN __modsint_callee
32    0000              	EXTERN __modslong
33    0000              	EXTERN __modslong_callee
34    0000              	EXTERN __modslonglong
35    0000              	EXTERN __modslonglong_callee
36    0000              	EXTERN __modsuchar
37    0000              	EXTERN __modsuchar_callee
38    0000              	EXTERN __moduchar
39    0000              	EXTERN __moduchar_callee
40    0000              	EXTERN __moduint
41    0000              	EXTERN __moduint_callee
42    0000              	EXTERN __modulong
43    0000              	EXTERN __modulong_callee
44    0000              	EXTERN __modulonglong
45    0000              	EXTERN __modulonglong_callee
46    0000              	EXTERN __moduschar
47    0000              	EXTERN __moduschar_callee
48    0000              	EXTERN __mulint
49    0000              	EXTERN __mulint_callee
50    0000              	EXTERN __mullong
51    0000              	EXTERN __mullong_callee
52    0000              	EXTERN __mullonglong
53    0000              	EXTERN __mullonglong_callee
54    0000              	EXTERN __mulschar
55    0000              	EXTERN __mulschar_callee
56    0000              	EXTERN __mulsuchar
57    0000              	EXTERN __mulsuchar_callee
58    0000              	EXTERN __muluschar
59    0000              	EXTERN __muluschar_callee
60    0000              	EXTERN __rlslonglong
61    0000              	EXTERN __rlslonglong_callee
62    0000              	EXTERN __rlulonglong
63    0000              	EXTERN __rlulonglong_callee
64    0000              	EXTERN __rrslonglong
65    0000              	EXTERN __rrslonglong_callee
66    0000              	EXTERN __rrulonglong
67    0000              	EXTERN __rrulonglong_callee
68    0000              	EXTERN ___sdcc_call_hl
69    0000              	EXTERN ___sdcc_call_iy
70    0000              	EXTERN ___sdcc_enter_ix
71    0000              	EXTERN _banked_call
72    0000              	EXTERN _banked_ret
73    0000              	EXTERN ___fs2schar
74    0000              	EXTERN ___fs2schar_callee
75    0000              	EXTERN ___fs2sint
76    0000              	EXTERN ___fs2sint_callee
77    0000              	EXTERN ___fs2slong
78    0000              	EXTERN ___fs2slong_callee
79    0000              	EXTERN ___fs2slonglong
80    0000              	EXTERN ___fs2slonglong_callee
81    0000              	EXTERN ___fs2uchar
82    0000              	EXTERN ___fs2uchar_callee
83    0000              	EXTERN ___fs2uint
84    0000              	EXTERN ___fs2uint_callee
85    0000              	EXTERN ___fs2ulong
86    0000              	EXTERN ___fs2ulong_callee
87    0000              	EXTERN ___fs2ulonglong
88    0000              	EXTERN ___fs2ulonglong_callee
89    0000              	EXTERN ___fsadd
90    0000              	EXTERN ___fsadd_callee
91    0000              	EXTERN ___fsdiv
92    0000              	EXTERN ___fsdiv_callee
93    0000              	EXTERN ___fseq
94    0000              	EXTERN ___fseq_callee
95    0000              	EXTERN ___fsgt
96    0000              	EXTERN ___fsgt_callee
97    0000              	EXTERN ___fslt
98    0000              	EXTERN ___fslt_callee
99    0000              	EXTERN ___fsmul
100   0000              	EXTERN ___fsmul_callee
101   0000              	EXTERN ___fsneq
102   0000              	EXTERN ___fsneq_callee
103   0000              	EXTERN ___fssub
104   0000              	EXTERN ___fssub_callee
105   0000              	EXTERN ___schar2fs
106   0000              	EXTERN ___schar2fs_callee
107   0000              	EXTERN ___sint2fs
108   0000              	EXTERN ___sint2fs_callee
109   0000              	EXTERN ___slong2fs
110   0000              	EXTERN ___slong2fs_callee
111   0000              	EXTERN ___slonglong2fs
112   0000              	EXTERN ___slonglong2fs_callee
113   0000              	EXTERN ___uchar2fs
114   0000              	EXTERN ___uchar2fs_callee
115   0000              	EXTERN ___uint2fs
116   0000              	EXTERN ___uint2fs_callee
117   0000              	EXTERN ___ulong2fs
118   0000              	EXTERN ___ulong2fs_callee
119   0000              	EXTERN ___ulonglong2fs
120   0000              	EXTERN ___ulonglong2fs_callee
121   0000              	EXTERN ____sdcc_2_copy_src_mhl_dst_deix
122   0000              	EXTERN ____sdcc_2_copy_src_mhl_dst_bcix
123   0000              	EXTERN ____sdcc_4_copy_src_mhl_dst_deix
124   0000              	EXTERN ____sdcc_4_copy_src_mhl_dst_bcix
125   0000              	EXTERN ____sdcc_4_copy_src_mhl_dst_mbc
126   0000              	EXTERN ____sdcc_4_ldi_nosave_bc
127   0000              	EXTERN ____sdcc_4_ldi_save_bc
128   0000              	EXTERN ____sdcc_4_push_hlix
129   0000              	EXTERN ____sdcc_4_push_mhl
130   0000              	EXTERN ____sdcc_lib_setmem_hl
131   0000              	EXTERN ____sdcc_ll_add_de_bc_hl
132   0000              	EXTERN ____sdcc_ll_add_de_bc_hlix
133   0000              	EXTERN ____sdcc_ll_add_de_hlix_bc
134   0000              	EXTERN ____sdcc_ll_add_de_hlix_bcix
135   0000              	EXTERN ____sdcc_ll_add_deix_bc_hl
136   0000              	EXTERN ____sdcc_ll_add_deix_hlix
137   0000              	EXTERN ____sdcc_ll_add_hlix_bc_deix
138   0000              	EXTERN ____sdcc_ll_add_hlix_deix_bc
139   0000              	EXTERN ____sdcc_ll_add_hlix_deix_bcix
140   0000              	EXTERN ____sdcc_ll_asr_hlix_a
141   0000              	EXTERN ____sdcc_ll_asr_mbc_a
142   0000              	EXTERN ____sdcc_ll_copy_src_de_dst_hlix
143   0000              	EXTERN ____sdcc_ll_copy_src_de_dst_hlsp
144   0000              	EXTERN ____sdcc_ll_copy_src_deix_dst_hl
145   0000              	EXTERN ____sdcc_ll_copy_src_deix_dst_hlix
146   0000              	EXTERN ____sdcc_ll_copy_src_deixm_dst_hlsp
147   0000              	EXTERN ____sdcc_ll_copy_src_desp_dst_hlsp
148   0000              	EXTERN ____sdcc_ll_copy_src_hl_dst_de
149   0000              	EXTERN ____sdcc_ll_copy_src_hlsp_dst_de
150   0000              	EXTERN ____sdcc_ll_copy_src_hlsp_dst_deixm
151   0000              	EXTERN ____sdcc_ll_lsl_hlix_a
152   0000              	EXTERN ____sdcc_ll_lsl_mbc_a
153   0000              	EXTERN ____sdcc_ll_lsr_hlix_a
154   0000              	EXTERN ____sdcc_ll_lsr_mbc_a
155   0000              	EXTERN ____sdcc_ll_push_hlix
156   0000              	EXTERN ____sdcc_ll_push_mhl
157   0000              	EXTERN ____sdcc_ll_sub_de_bc_hl
158   0000              	EXTERN ____sdcc_ll_sub_de_bc_hlix
159   0000              	EXTERN ____sdcc_ll_sub_de_hlix_bc
160   0000              	EXTERN ____sdcc_ll_sub_de_hlix_bcix
161   0000              	EXTERN ____sdcc_ll_sub_deix_bc_hl
162   0000              	EXTERN ____sdcc_ll_sub_deix_hlix
163   0000              	EXTERN ____sdcc_ll_sub_hlix_bc_deix
164   0000              	EXTERN ____sdcc_ll_sub_hlix_deix_bc
165   0000              	EXTERN ____sdcc_ll_sub_hlix_deix_bcix
166   0000              	EXTERN ____sdcc_load_debc_deix
167   0000              	EXTERN ____sdcc_load_dehl_deix
168   0000              	EXTERN ____sdcc_load_debc_mhl
169   0000              	EXTERN ____sdcc_load_hlde_mhl
170   0000              	EXTERN ____sdcc_store_dehl_bcix
171   0000              	EXTERN ____sdcc_store_debc_hlix
172   0000              	EXTERN ____sdcc_store_debc_mhl
173   0000              	EXTERN ____sdcc_cpu_pop_ei
174   0000              	EXTERN ____sdcc_cpu_pop_ei_jp
175   0000              	EXTERN ____sdcc_cpu_push_di
176   0000              	EXTERN ____sdcc_outi
177   0000              	EXTERN ____sdcc_outi_128
178   0000              	EXTERN ____sdcc_outi_256
179   0000              	EXTERN ____sdcc_ldi
180   0000              	EXTERN ____sdcc_ldi_128
181   0000              	EXTERN ____sdcc_ldi_256
182   0000              	EXTERN ____sdcc_4_copy_srcd_hlix_dst_deix
183   0000              	EXTERN ____sdcc_4_and_src_mbc_mhl_dst_deix
184   0000              	EXTERN ____sdcc_4_or_src_mbc_mhl_dst_deix
185   0000              	EXTERN ____sdcc_4_xor_src_mbc_mhl_dst_deix
186   0000              	EXTERN ____sdcc_4_or_src_dehl_dst_bcix
187   0000              	EXTERN ____sdcc_4_xor_src_dehl_dst_bcix
188   0000              	EXTERN ____sdcc_4_and_src_dehl_dst_bcix
189   0000              	EXTERN ____sdcc_4_xor_src_mbc_mhl_dst_debc
190   0000              	EXTERN ____sdcc_4_or_src_mbc_mhl_dst_debc
191   0000              	EXTERN ____sdcc_4_and_src_mbc_mhl_dst_debc
192   0000              	EXTERN ____sdcc_4_cpl_src_mhl_dst_debc
193   0000              	EXTERN ____sdcc_4_xor_src_debc_mhl_dst_debc
194   0000              	EXTERN ____sdcc_4_or_src_debc_mhl_dst_debc
195   0000              	EXTERN ____sdcc_4_and_src_debc_mhl_dst_debc
196   0000              	EXTERN ____sdcc_4_and_src_debc_hlix_dst_debc
197   0000              	EXTERN ____sdcc_4_or_src_debc_hlix_dst_debc
198   0000              	EXTERN ____sdcc_4_xor_src_debc_hlix_dst_debc
199   0000              
200   0000              ;--------------------------------------------------------
201   0000              ; Public variables in this module
202   0000              ;--------------------------------------------------------
203   0000              	GLOBAL _enemy_fall
204   0000              	GLOBAL _enemy_gota
205   0000              	GLOBAL _enemy_turn
206   0000              	GLOBAL _enemy_move
207   0000              	GLOBAL _enemy_static
208   0000              	GLOBAL _enemy_horizontal
209   0000              	GLOBAL _enemy_vertical
210   0000              	GLOBAL _enemy_walk
211   0000              	GLOBAL _enemy_kill
212   0000              	GLOBAL _enemy_init
213   0000              ;--------------------------------------------------------
214   0000              ; Externals used
215   0000              ;--------------------------------------------------------
216   0000              	GLOBAL _ulltoa_callee
217   0000              	GLOBAL _ulltoa
218   0000              	GLOBAL _strtoull_callee
219   0000              	GLOBAL _strtoull
220   0000              	GLOBAL _strtoll_callee
221   0000              	GLOBAL _strtoll
222   0000              	GLOBAL _lltoa_callee
223   0000              	GLOBAL _lltoa
224   0000              	GLOBAL _llabs_callee
225   0000              	GLOBAL _llabs
226   0000              	GLOBAL __lldivu__callee
227   0000              	GLOBAL __lldivu_
228   0000              	GLOBAL __lldiv__callee
229   0000              	GLOBAL __lldiv_
230   0000              	GLOBAL _atoll_callee
231   0000              	GLOBAL _atoll
232   0000              	GLOBAL _realloc_unlocked_callee
233   0000              	GLOBAL _realloc_unlocked
234   0000              	GLOBAL _malloc_unlocked_fastcall
235   0000              	GLOBAL _malloc_unlocked
236   0000              	GLOBAL _free_unlocked_fastcall
237   0000              	GLOBAL _free_unlocked
238   0000              	GLOBAL _calloc_unlocked_callee
239   0000              	GLOBAL _calloc_unlocked
240   0000              	GLOBAL _aligned_alloc_unlocked_callee
241   0000              	GLOBAL _aligned_alloc_unlocked
242   0000              	GLOBAL _realloc_callee
243   0000              	GLOBAL _realloc
244   0000              	GLOBAL _malloc_fastcall
245   0000              	GLOBAL _malloc
246   0000              	GLOBAL _free_fastcall
247   0000              	GLOBAL _free
248   0000              	GLOBAL _calloc_callee
249   0000              	GLOBAL _calloc
250   0000              	GLOBAL _aligned_alloc_callee
251   0000              	GLOBAL _aligned_alloc
252   0000              	GLOBAL _utoa_callee
253   0000              	GLOBAL _utoa
254   0000              	GLOBAL _ultoa_callee
255   0000              	GLOBAL _ultoa
256   0000              	GLOBAL _system_fastcall
257   0000              	GLOBAL _system
258   0000              	GLOBAL _strtoul_callee
259   0000              	GLOBAL _strtoul
260   0000              	GLOBAL _strtol_callee
261   0000              	GLOBAL _strtol
262   0000              	GLOBAL _strtof_callee
263   0000              	GLOBAL _strtof
264   0000              	GLOBAL _strtod_callee
265   0000              	GLOBAL _strtod
266   0000              	GLOBAL _srand_fastcall
267   0000              	GLOBAL _srand
268   0000              	GLOBAL _rand
269   0000              	GLOBAL _quick_exit_fastcall
270   0000              	GLOBAL _quick_exit
271   0000              	GLOBAL _qsort_callee
272   0000              	GLOBAL _qsort
273   0000              	GLOBAL _ltoa_callee
274   0000              	GLOBAL _ltoa
275   0000              	GLOBAL _labs_fastcall
276   0000              	GLOBAL _labs
277   0000              	GLOBAL _itoa_callee
278   0000              	GLOBAL _itoa
279   0000              	GLOBAL _ftoh_callee
280   0000              	GLOBAL _ftoh
281   0000              	GLOBAL _ftog_callee
282   0000              	GLOBAL _ftog
283   0000              	GLOBAL _ftoe_callee
284   0000              	GLOBAL _ftoe
285   0000              	GLOBAL _ftoa_callee
286   0000              	GLOBAL _ftoa
287   0000              	GLOBAL _exit_fastcall
288   0000              	GLOBAL _exit
289   0000              	GLOBAL _dtoh_callee
290   0000              	GLOBAL _dtoh
291   0000              	GLOBAL _dtog_callee
292   0000              	GLOBAL _dtog
293   0000              	GLOBAL _dtoe_callee
294   0000              	GLOBAL _dtoe
295   0000              	GLOBAL _dtoa_callee
296   0000              	GLOBAL _dtoa
297   0000              	GLOBAL _bsearch_callee
298   0000              	GLOBAL _bsearch
299   0000              	GLOBAL _atol_fastcall
300   0000              	GLOBAL _atol
301   0000              	GLOBAL _atoi_fastcall
302   0000              	GLOBAL _atoi
303   0000              	GLOBAL _atof_fastcall
304   0000              	GLOBAL _atof
305   0000              	GLOBAL _atexit_fastcall
306   0000              	GLOBAL _atexit
307   0000              	GLOBAL _at_quick_exit_fastcall
308   0000              	GLOBAL _at_quick_exit
309   0000              	GLOBAL _abs_fastcall
310   0000              	GLOBAL _abs
311   0000              	GLOBAL _abort
312   0000              	GLOBAL __strtou__callee
313   0000              	GLOBAL __strtou_
314   0000              	GLOBAL __strtoi__callee
315   0000              	GLOBAL __strtoi_
316   0000              	GLOBAL __random_uniform_xor_8__fastcall
317   0000              	GLOBAL __random_uniform_xor_8_
318   0000              	GLOBAL __random_uniform_xor_32__fastcall
319   0000              	GLOBAL __random_uniform_xor_32_
320   0000              	GLOBAL __random_uniform_cmwc_8__fastcall
321   0000              	GLOBAL __random_uniform_cmwc_8_
322   0000              	GLOBAL __shellsort__callee
323   0000              	GLOBAL __shellsort_
324   0000              	GLOBAL __quicksort__callee
325   0000              	GLOBAL __quicksort_
326   0000              	GLOBAL __insertion_sort__callee
327   0000              	GLOBAL __insertion_sort_
328   0000              	GLOBAL __ldivu__callee
329   0000              	GLOBAL __ldivu_
330   0000              	GLOBAL __ldiv__callee
331   0000              	GLOBAL __ldiv_
332   0000              	GLOBAL __divu__callee
333   0000              	GLOBAL __divu_
334   0000              	GLOBAL __div__callee
335   0000              	GLOBAL __div_
336   0000              	GLOBAL _NIRVANAP_drawTW_raw_callee
337   0000              	GLOBAL _NIRVANAP_drawTW_raw
338   0000              	GLOBAL _NIRVANAP_drawTW_callee
339   0000              	GLOBAL _NIRVANAP_drawTW
340   0000              	GLOBAL _NIRVANAP_drawW_raw_callee
341   0000              	GLOBAL _NIRVANAP_drawW_raw
342   0000              	GLOBAL _NIRVANAP_drawW_callee
343   0000              	GLOBAL _NIRVANAP_drawW
344   0000              	GLOBAL _NIRVANAP_spriteT_callee
345   0000              	GLOBAL _NIRVANAP_spriteT
346   0000              	GLOBAL _NIRVANAP_fillC_callee
347   0000              	GLOBAL _NIRVANAP_fillC
348   0000              	GLOBAL _NIRVANAP_readC_callee
349   0000              	GLOBAL _NIRVANAP_readC
350   0000              	GLOBAL _NIRVANAP_paintC_callee
351   0000              	GLOBAL _NIRVANAP_paintC
352   0000              	GLOBAL _NIRVANAP_printC_callee
353   0000              	GLOBAL _NIRVANAP_printC
354   0000              	GLOBAL _NIRVANAP_fillT_raw_callee
355   0000              	GLOBAL _NIRVANAP_fillT_raw
356   0000              	GLOBAL _NIRVANAP_fillT_callee
357   0000              	GLOBAL _NIRVANAP_fillT
358   0000              	GLOBAL _NIRVANAP_drawT_raw_callee
359   0000              	GLOBAL _NIRVANAP_drawT_raw
360   0000              	GLOBAL _NIRVANAP_drawT_callee
361   0000              	GLOBAL _NIRVANAP_drawT
362   0000              	GLOBAL _NIRVANAP_stop
363   0000              	GLOBAL _NIRVANAP_start
364   0000              	GLOBAL _zx_print_str
365   0000              	GLOBAL _zx_print_int
366   0000              	GLOBAL _zx_print_chr
367   0000              	GLOBAL _zx_isr
368   0000              	GLOBAL _z80_otdr_callee
369   0000              	GLOBAL _z80_otdr
370   0000              	GLOBAL _z80_otir_callee
371   0000              	GLOBAL _z80_otir
372   0000              	GLOBAL _z80_outp_callee
373   0000              	GLOBAL _z80_outp
374   0000              	GLOBAL _z80_indr_callee
375   0000              	GLOBAL _z80_indr
376   0000              	GLOBAL _z80_inir_callee
377   0000              	GLOBAL _z80_inir
378   0000              	GLOBAL _z80_inp_fastcall
379   0000              	GLOBAL _z80_inp
380   0000              	GLOBAL _z80_set_int_state_fastcall
381   0000              	GLOBAL _z80_set_int_state
382   0000              	GLOBAL _z80_get_int_state
383   0000              	GLOBAL _z80_delay_tstate_fastcall
384   0000              	GLOBAL _z80_delay_tstate
385   0000              	GLOBAL _z80_delay_ms_fastcall
386   0000              	GLOBAL _z80_delay_ms
387   0000              	GLOBAL _im2_remove_generic_callback_callee
388   0000              	GLOBAL _im2_remove_generic_callback
389   0000              	GLOBAL _im2_prepend_generic_callback_callee
390   0000              	GLOBAL _im2_prepend_generic_callback
391   0000              	GLOBAL _im2_append_generic_callback_callee
392   0000              	GLOBAL _im2_append_generic_callback
393   0000              	GLOBAL _im2_create_generic_isr_8080_callee
394   0000              	GLOBAL _im2_create_generic_isr_8080
395   0000              	GLOBAL _im2_create_generic_isr_callee
396   0000              	GLOBAL _im2_create_generic_isr
397   0000              	GLOBAL _im2_install_isr_callee
398   0000              	GLOBAL _im2_install_isr
399   0000              	GLOBAL _im2_init_fastcall
400   0000              	GLOBAL _im2_init
401   0000              	GLOBAL _intrinsic_swap_word_32_fastcall
402   0000              	GLOBAL _intrinsic_swap_word_32
403   0000              	GLOBAL _intrinsic_swap_endian_32_fastcall
404   0000              	GLOBAL _intrinsic_swap_endian_32
405   0000              	GLOBAL _intrinsic_swap_endian_16_fastcall
406   0000              	GLOBAL _intrinsic_swap_endian_16
407   0000              	GLOBAL _intrinsic_return_de
408   0000              	GLOBAL _intrinsic_return_bc
409   0000              	GLOBAL _intrinsic_exx
410   0000              	GLOBAL _intrinsic_ex_de_hl
411   0000              	GLOBAL _intrinsic_nop
412   0000              	GLOBAL _intrinsic_im_2
413   0000              	GLOBAL _intrinsic_im_1
414   0000              	GLOBAL _intrinsic_im_0
415   0000              	GLOBAL _intrinsic_retn
416   0000              	GLOBAL _intrinsic_reti
417   0000              	GLOBAL _intrinsic_halt
418   0000              	GLOBAL _intrinsic_ei
419   0000              	GLOBAL _intrinsic_di
420   0000              	GLOBAL _intrinsic_stub
421   0000              	GLOBAL _intrinsic_ini
422   0000              	GLOBAL _intrinsic_outi
423   0000              	GLOBAL _intrinsic_ldi
424   0000              	GLOBAL _zx_pattern_fill_callee
425   0000              	GLOBAL _zx_pattern_fill
426   0000              	GLOBAL _zx_saddrpup_fastcall
427   0000              	GLOBAL _zx_saddrpup
428   0000              	GLOBAL _zx_saddrpright_callee
429   0000              	GLOBAL _zx_saddrpright
430   0000              	GLOBAL _zx_saddrpleft_callee
431   0000              	GLOBAL _zx_saddrpleft
432   0000              	GLOBAL _zx_saddrpdown_fastcall
433   0000              	GLOBAL _zx_saddrpdown
434   0000              	GLOBAL _zx_saddrcup_fastcall
435   0000              	GLOBAL _zx_saddrcup
436   0000              	GLOBAL _zx_saddrcright_fastcall
437   0000              	GLOBAL _zx_saddrcright
438   0000              	GLOBAL _zx_saddrcleft_fastcall
439   0000              	GLOBAL _zx_saddrcleft
440   0000              	GLOBAL _zx_saddrcdown_fastcall
441   0000              	GLOBAL _zx_saddrcdown
442   0000              	GLOBAL _zx_saddr2py_fastcall
443   0000              	GLOBAL _zx_saddr2py
444   0000              	GLOBAL _zx_saddr2px_fastcall
445   0000              	GLOBAL _zx_saddr2px
446   0000              	GLOBAL _zx_saddr2cy_fastcall
447   0000              	GLOBAL _zx_saddr2cy
448   0000              	GLOBAL _zx_saddr2cx_fastcall
449   0000              	GLOBAL _zx_saddr2cx
450   0000              	GLOBAL _zx_saddr2aaddr_fastcall
451   0000              	GLOBAL _zx_saddr2aaddr
452   0000              	GLOBAL _zx_py2saddr_fastcall
453   0000              	GLOBAL _zx_py2saddr
454   0000              	GLOBAL _zx_py2aaddr_fastcall
455   0000              	GLOBAL _zx_py2aaddr
456   0000              	GLOBAL _zx_pxy2saddr_callee
457   0000              	GLOBAL _zx_pxy2saddr
458   0000              	GLOBAL _zx_pxy2aaddr_callee
459   0000              	GLOBAL _zx_pxy2aaddr
460   0000              	GLOBAL _zx_px2bitmask_fastcall
461   0000              	GLOBAL _zx_px2bitmask
462   0000              	GLOBAL _zx_cy2saddr_fastcall
463   0000              	GLOBAL _zx_cy2saddr
464   0000              	GLOBAL _zx_cy2aaddr_fastcall
465   0000              	GLOBAL _zx_cy2aaddr
466   0000              	GLOBAL _zx_cxy2saddr_callee
467   0000              	GLOBAL _zx_cxy2saddr
468   0000              	GLOBAL _zx_cxy2aaddr_callee
469   0000              	GLOBAL _zx_cxy2aaddr
470   0000              	GLOBAL _zx_bitmask2px_fastcall
471   0000              	GLOBAL _zx_bitmask2px
472   0000              	GLOBAL _zx_aaddrcup_fastcall
473   0000              	GLOBAL _zx_aaddrcup
474   0000              	GLOBAL _zx_aaddrcright_fastcall
475   0000              	GLOBAL _zx_aaddrcright
476   0000              	GLOBAL _zx_aaddrcleft_fastcall
477   0000              	GLOBAL _zx_aaddrcleft
478   0000              	GLOBAL _zx_aaddrcdown_fastcall
479   0000              	GLOBAL _zx_aaddrcdown
480   0000              	GLOBAL _zx_aaddr2saddr_fastcall
481   0000              	GLOBAL _zx_aaddr2saddr
482   0000              	GLOBAL _zx_aaddr2py_fastcall
483   0000              	GLOBAL _zx_aaddr2py
484   0000              	GLOBAL _zx_aaddr2px_fastcall
485   0000              	GLOBAL _zx_aaddr2px
486   0000              	GLOBAL _zx_aaddr2cy_fastcall
487   0000              	GLOBAL _zx_aaddr2cy
488   0000              	GLOBAL _zx_aaddr2cx_fastcall
489   0000              	GLOBAL _zx_aaddr2cx
490   0000              	GLOBAL _zx_visit_wc_pix_callee
491   0000              	GLOBAL _zx_visit_wc_pix
492   0000              	GLOBAL _zx_visit_wc_attr_callee
493   0000              	GLOBAL _zx_visit_wc_attr
494   0000              	GLOBAL _zx_scroll_wc_up_pix_callee
495   0000              	GLOBAL _zx_scroll_wc_up_pix
496   0000              	GLOBAL _zx_scroll_wc_up_attr_callee
497   0000              	GLOBAL _zx_scroll_wc_up_attr
498   0000              	GLOBAL _zx_scroll_wc_up_callee
499   0000              	GLOBAL _zx_scroll_wc_up
500   0000              	GLOBAL _zx_scroll_up_pix_callee
501   0000              	GLOBAL _zx_scroll_up_pix
502   0000              	GLOBAL _zx_scroll_up_attr_callee
503   0000              	GLOBAL _zx_scroll_up_attr
504   0000              	GLOBAL _zx_scroll_up_callee
505   0000              	GLOBAL _zx_scroll_up
506   0000              	GLOBAL _zx_cls_wc_pix_callee
507   0000              	GLOBAL _zx_cls_wc_pix
508   0000              	GLOBAL _zx_cls_wc_attr_callee
509   0000              	GLOBAL _zx_cls_wc_attr
510   0000              	GLOBAL _zx_cls_wc_callee
511   0000              	GLOBAL _zx_cls_wc
512   0000              	GLOBAL _zx_cls_pix_fastcall
513   0000              	GLOBAL _zx_cls_pix
514   0000              	GLOBAL _zx_cls_attr_fastcall
515   0000              	GLOBAL _zx_cls_attr
516   0000              	GLOBAL _zx_cls_fastcall
517   0000              	GLOBAL _zx_cls
518   0000              	GLOBAL _zx_border_fastcall
519   0000              	GLOBAL _zx_border
520   0000              	GLOBAL _zx_tape_verify_block_callee
521   0000              	GLOBAL _zx_tape_verify_block
522   0000              	GLOBAL _zx_tape_save_block_callee
523   0000              	GLOBAL _zx_tape_save_block
524   0000              	GLOBAL _zx_tape_load_block_callee
525   0000              	GLOBAL _zx_tape_load_block
526   0000              	GLOBAL _spr_draw8
527   0000              	GLOBAL _spr_destroy
528   0000              	GLOBAL _spr_unflattenP1
529   0000              	GLOBAL _spr_flatten
530   0000              	GLOBAL _spr_btile_paint_back
531   0000              	GLOBAL _spr_turn_horizontal
532   0000              	GLOBAL _spr_play_anim
533   0000              	GLOBAL _spr_add_anim
534   0000              	GLOBAL _spr_clear_scr
535   0000              	GLOBAL _spr_back_repaint
536   0000              	GLOBAL _spr_get_tile_dir
537   0000              	GLOBAL _spr_get_tile
538   0000              	GLOBAL _spr_paint_player
539   0000              	GLOBAL _spr_paint
540   0000              	GLOBAL _spr_move_left
541   0000              	GLOBAL _spr_move_right
542   0000              	GLOBAL _spr_move_left_f
543   0000              	GLOBAL _spr_move_right_f
544   0000              	GLOBAL _spr_move_horizontal
545   0000              	GLOBAL _spr_move_down_f
546   0000              	GLOBAL _spr_move_up_f
547   0000              	GLOBAL _spr_move_down
548   0000              	GLOBAL _spr_move_up
549   0000              	GLOBAL _spr_set_right
550   0000              	GLOBAL _spr_set_left
551   0000              	GLOBAL _spr_set_down
552   0000              	GLOBAL _spr_set_up
553   0000              	GLOBAL _spr_calc_index
554   0000              	GLOBAL _spr_chktime
555   0000              	GLOBAL _player_pick
556   0000              	GLOBAL _player_use_floor
557   0000              	GLOBAL _player_lost_life
558   0000              	GLOBAL _player_move_jump
559   0000              	GLOBAL _player_tile
560   0000              	GLOBAL _player_pick_extra
561   0000              	GLOBAL _player_pick_exit
562   0000              	GLOBAL _player_pick_deadly
563   0000              	GLOBAL _player_pick_item
564   0000              	GLOBAL _player_check_ceil
565   0000              	GLOBAL _player_check_floor
566   0000              	GLOBAL _player_score_add
567   0000              	GLOBAL _player_move_walk
568   0000              	GLOBAL _player_turn
569   0000              	GLOBAL _player_move
570   0000              	GLOBAL _player_check_input
571   0000              	GLOBAL _player_init
572   0000              	GLOBAL _game_anim_air
573   0000              	GLOBAL _reverse
574   0000              	GLOBAL _game_copy_tile
575   0000              	GLOBAL _game_copy_tile_std
576   0000              	GLOBAL _game_flash_exit
577   0000              	GLOBAL _game_page_map
578   0000              	GLOBAL _game_attribs
579   0000              	GLOBAL _game_print_header
580   0000              	GLOBAL _game_check_time
581   0000              	GLOBAL _game_rotate_attrib_osd
582   0000              	GLOBAL _game_key_paint
583   0000              	GLOBAL _game_colour_message
584   0000              	GLOBAL _game_paint_attrib
585   0000              	GLOBAL _game_print_score
586   0000              	GLOBAL _game_cell_paint_index
587   0000              	GLOBAL _game_cell_paint
588   0000              	GLOBAL _game_check_cell
589   0000              	GLOBAL _game_check_map
590   0000              	GLOBAL _game_loop
591   0000              	GLOBAL _game_round_init
592   0000              	GLOBAL _game_start_timer
593   0000              	GLOBAL _game_update_stats
594   0000              	GLOBAL _game_print_footer
595   0000              	GLOBAL _game_fill_row
596   0000              	GLOBAL _game_cls
597   0000              	GLOBAL _game_fps
598   0000              	GLOBAL _game_draw_map
599   0000              	GLOBAL _ay_reset
600   0000              	GLOBAL _ay_song_stop
601   0000              	GLOBAL _ay_song_play
602   0000              	GLOBAL _ay_fx_stop
603   0000              	GLOBAL _ay_fx_play
604   0000              	GLOBAL _ay_is_playing
605   0000              	GLOBAL _audio_levelup
606   0000              	GLOBAL _audio_menu
607   0000              	GLOBAL _audio_game_end
608   0000              	GLOBAL _audio_game_start
609   0000              	GLOBAL _audio_level_complete
610   0000              	GLOBAL _audio_level_start
611   0000              	GLOBAL _audio_puerta
612   0000              	GLOBAL _audio_tick
613   0000              	GLOBAL _audio_door
614   0000              	GLOBAL _audio_coin
615   0000              	GLOBAL _audio_fall
616   0000              	GLOBAL _audio_jump
617   0000              	GLOBAL _audio_dead
618   0000              	GLOBAL _audio_ingame
619   0000              	GLOBAL _test_func
620   0000              	GLOBAL _test_proc
621   0000              	GLOBAL _in_mouse_kempston_wheel_delta
622   0000              	GLOBAL _in_mouse_kempston_wheel
623   0000              	GLOBAL _in_mouse_kempston_callee
624   0000              	GLOBAL _in_mouse_kempston
625   0000              	GLOBAL _in_mouse_kempston_setpos_callee
626   0000              	GLOBAL _in_mouse_kempston_setpos
627   0000              	GLOBAL _in_mouse_kempston_reset
628   0000              	GLOBAL _in_mouse_kempston_init
629   0000              	GLOBAL _in_mouse_amx_wheel_delta
630   0000              	GLOBAL _in_mouse_amx_wheel
631   0000              	GLOBAL _in_mouse_amx_callee
632   0000              	GLOBAL _in_mouse_amx
633   0000              	GLOBAL _in_mouse_amx_setpos_callee
634   0000              	GLOBAL _in_mouse_amx_setpos
635   0000              	GLOBAL _in_mouse_amx_reset
636   0000              	GLOBAL _in_mouse_amx_init_callee
637   0000              	GLOBAL _in_mouse_amx_init
638   0000              	GLOBAL _in_stick_sinclair2
639   0000              	GLOBAL _in_stick_sinclair1
640   0000              	GLOBAL _in_stick_kempston
641   0000              	GLOBAL _in_stick_fuller
642   0000              	GLOBAL _in_stick_cursor
643   0000              	GLOBAL _in_stick_keyboard_fastcall
644   0000              	GLOBAL _in_stick_keyboard
645   0000              	GLOBAL _in_wait_nokey
646   0000              	GLOBAL _in_wait_key
647   0000              	GLOBAL _in_test_key
648   0000              	GLOBAL _in_pause_fastcall
649   0000              	GLOBAL _in_pause
650   0000              	GLOBAL _in_key_scancode_fastcall
651   0000              	GLOBAL _in_key_scancode
652   0000              	GLOBAL _in_key_pressed_fastcall
653   0000              	GLOBAL _in_key_pressed
654   0000              	GLOBAL _in_inkey
655   0000              	GLOBAL _NIRVANAP_CHAR_TABLE
656   0000              	GLOBAL _NIRVANAP_WIDE_IMAGES
657   0000              	GLOBAL _NIRVANAP_TILE_IMAGES
658   0000              	GLOBAL _NIRVANAP_HOLE
659   0000              	GLOBAL _NIRVANAP_ISR_HOOK
660   0000              	GLOBAL _air_curr_byte
661   0000              	GLOBAL _spr_init_cout
662   0000              	GLOBAL _spr_init_cin
663   0000              	GLOBAL _scan_map
664   0000              	GLOBAL _map_paper_last
665   0000              	GLOBAL _map_paper_clr
666   0000              	GLOBAL _map_paper
667   0000              	GLOBAL _map_border
668   0000              	GLOBAL _anim_count
669   0000              	GLOBAL _anim_loop
670   0000              	GLOBAL _anim_end
671   0000              	GLOBAL _anim_int
672   0000              	GLOBAL _anim_tile
673   0000              	GLOBAL _anim_col
674   0000              	GLOBAL _anim_lin
675   0000              	GLOBAL _map_heigth
676   0000              	GLOBAL _map_width
677   0000              	GLOBAL _scr_curr
678   0000              	GLOBAL _scr_map
679   0000              	GLOBAL _spr_kind
680   0000              	GLOBAL _spr_frames
681   0000              	GLOBAL _spr_speed
682   0000              	GLOBAL _spr_tile
683   0000              	GLOBAL _screen_ink
684   0000              	GLOBAL _screen_paper
685   0000              	GLOBAL _game_start_scr
686   0000              	GLOBAL _game_score_top
687   0000              	GLOBAL _player_coins
688   0000              	GLOBAL _player_lives
689   0000              	GLOBAL _game_over
690   0000              	GLOBAL _game_tile_cnt
691   0000              	GLOBAL _game_sound
692   0000              	GLOBAL _game_inf_lives
693   0000              	GLOBAL _game_inmune
694   0000              	GLOBAL _sprite_curr_index
695   0000              	GLOBAL _spr_count
696   0000              	GLOBAL _key_ink
697   0000              	GLOBAL _key_last
698   0000              	GLOBAL _anim_time
699   0000              	GLOBAL _air_time
700   0000              	GLOBAL _frame_time
701   0000              	GLOBAL _curr_time
702   0000              	GLOBAL _p_state_a
703   0000              	GLOBAL _p_state
704   0000              	GLOBAL _key_attrib
705   0000              	GLOBAL _game_attrib_osd
706   0000              	GLOBAL _attrib_osd
707   0000              	GLOBAL _attrib_hl
708   0000              	GLOBAL _attrib
709   0000              	GLOBAL _zx_val_asm
710   0000              	GLOBAL _enemies
711   0000              	GLOBAL _tmp_ui
712   0000              	GLOBAL _index1
713   0000              	GLOBAL _index0
714   0000              	GLOBAL _index_tmp
715   0000              	GLOBAL _loop_count
716   0000              	GLOBAL _s_class
717   0000              	GLOBAL _s_row1
718   0000              	GLOBAL _s_col1
719   0000              	GLOBAL _s_col0
720   0000              	GLOBAL _s_lin1
721   0000              	GLOBAL _s_lin0
722   0000              	GLOBAL _s_tile1
723   0000              	GLOBAL _s_tile0
724   0000              	GLOBAL _nirv_sprite_index
725   0000              	GLOBAL _player_kill_index
726   0000              	GLOBAL _player_killed
727   0000              	GLOBAL _player_jump_top
728   0000              	GLOBAL _game_fps_show
729   0000              	GLOBAL _game_debug
730   0000              	GLOBAL _sprite
731   0000              	GLOBAL _fps
732   0000              	GLOBAL _game_mode
733   0000              	GLOBAL _game_tileset
734   0000              	GLOBAL _menu_curr_sel
735   0000              	GLOBAL _game_round_up
736   0000              	GLOBAL _game_playing
737   0000              	GLOBAL _game_exit_lin
738   0000              	GLOBAL _game_exit_col
739   0000              	GLOBAL _game_conveyor_col1
740   0000              	GLOBAL _game_conveyor_col0
741   0000              	GLOBAL _game_conveyor_lin
742   0000              	GLOBAL _game_conveyor_dir
743   0000              	GLOBAL _game_song_play_start
744   0000              	GLOBAL _game_song_play
745   0000              	GLOBAL _game_world
746   0000              	GLOBAL _game_gravity
747   0000              	GLOBAL _player_jumpcount
748   0000              	GLOBAL _player_hit
749   0000              	GLOBAL _player_hit_time
750   0000              	GLOBAL _player_lin_scr
751   0000              	GLOBAL _player_col_scr
752   0000              	GLOBAL _player_fall_start
753   0000              	GLOBAL _player_jump_count
754   0000              	GLOBAL _player_jump_hack
755   0000              	GLOBAL _player_vel_inc
756   0000              	GLOBAL _player_vel_y0
757   0000              	GLOBAL _player_vel_y
758   0000              	GLOBAL _player_score
759   0000              	GLOBAL _tbuffer
760   0000              	GLOBAL _obj_count
761   0000              	GLOBAL _obj_col
762   0000              	GLOBAL _obj_lin
763   0000              	GLOBAL _spr_timer
764   0000              	GLOBAL _last_time
765   0000              	GLOBAL _colint
766   0000              	GLOBAL _col
767   0000              	GLOBAL _lin
768   0000              	GLOBAL _tile
769   0000              	GLOBAL _value_b
770   0000              	GLOBAL _value_a
771   0000              	GLOBAL _state_a
772   0000              	GLOBAL _state
773   0000              	GLOBAL _class
774   0000              	GLOBAL _dirs
775   0000              	GLOBAL _k1
776   0000              	GLOBAL _joyfunc2
777   0000              	GLOBAL _joyfunc1
778   0000              	GLOBAL _btiles
779   0000              	GLOBAL _v3
780   0000              	GLOBAL _v2
781   0000              	GLOBAL _v1
782   0000              	GLOBAL _v0
783   0000              	GLOBAL _i
784   0000              	GLOBAL _spec128
785   0000              	GLOBAL _GLOBAL_ZX_PORT_7FFD
786   0000              	GLOBAL _GLOBAL_ZX_PORT_1FFD
787   0000              	GLOBAL _GLOBAL_ZX_PORT_FE
788   0000              	GLOBAL _ay_fx_door
789   0000              	GLOBAL _ay_fx_tick
790   0000              	GLOBAL _ay_fx_game_start
791   0000              	GLOBAL _ay_fx_fall
792   0000              	GLOBAL _ay_fx_jump
793   0000              	GLOBAL _ay_fx_dead
794   0000              	GLOBAL _ay_fx_coin
795   0000              	GLOBAL _hitiles2
796   0000              	GLOBAL _hitiles1
797   0000              	GLOBAL _ay_song_menu
798   0000              	GLOBAL _ay_song_ingame1
799   0000              	GLOBAL _ay_song_ingame0
800   0000              	GLOBAL _hidoors2
801   0000              	GLOBAL _hidoors1
802   0000              	GLOBAL _hisprites2
803   0000              	GLOBAL _hisprites1
804   0000              	GLOBAL _air_end_byte
805   0000              	GLOBAL _air_start_byte
806   0000              	GLOBAL _key_map
807   0000              	GLOBAL _paper0
808   0000              	GLOBAL _lenght0
809   0000              	GLOBAL _world0
810   0000              	GLOBAL _spr_init_len
811   0000              	GLOBAL _spr_init
812   0000              ;--------------------------------------------------------
813   0000              ; special function registers
814   0000              ;--------------------------------------------------------
815   0000              defc _IO_FE	=	0x00fe
816   0000              defc _IO_1FFD	=	0x1ffd
817   0000              defc _IO_7FFD	=	0x7ffd
818   0000              ;--------------------------------------------------------
819   0000              ; ram data
820   0000              ;--------------------------------------------------------
821   0000              	SECTION bss_compiler
822   0000              ;--------------------------------------------------------
823   0000              ; ram data
824   0000              ;--------------------------------------------------------
825   0000              
826   0000              IF 0
827   0000              
828   0000              ; .area _INITIALIZED removed by z88dk
829   0000              
830   0000              
831   0000              ENDIF
832   0000              
833   0000              ;--------------------------------------------------------
834   0000              ; absolute external ram data
835   0000              ;--------------------------------------------------------
836   0000              	SECTION IGNORE
837   0000              ;--------------------------------------------------------
838   0000              ; global & static initialisations
839   0000              ;--------------------------------------------------------
840   0000              	SECTION code_crt_init
841   0000              ;--------------------------------------------------------
842   0000              ; Home
843   0000              ;--------------------------------------------------------
844   0000              	SECTION IGNORE
845   0000              ;--------------------------------------------------------
846   0000              ; code
847   0000              ;--------------------------------------------------------
848   0000              	SECTION code_compiler
849   0000              ;	---------------------------------
850   0000              ; Function enemy_turn
851   0000              ; ---------------------------------
852   0000              _enemy_turn:
853   0000  21 00 00    	ld	hl,_sprite
854   0003  36 00       	ld	(hl),0x00
855   0005  21 00 00    	ld	hl,_nirv_sprite_index
856   0008  36 00       	ld	(hl),0x00
857   000A              l_enemy_turn_00107:
858   000A  3A 00 00    	ld	a,(_sprite)
859   000D  21 00 00    	ld	hl,_spr_count
860   0010  96          	sub	a, (hl)
861   0011  D2 99 00    	jp	NC, l_enemy_turn_00109
862   0014  2A 00 00    	ld	hl,(_sprite)
863   0017  26 00       	ld	h,0x00
864   0019  01 00 00    	ld	bc,_class
865   001C  09          	add	hl,bc
866   001D  7E          	ld	a,(hl)
867   001E  32 00 00    	ld	(_s_class),a
868   0021  B7          	or	a, a
869   0022  28 60       	jr	Z,l_enemy_turn_00104
870   0024  21 00 00    	ld	hl,_sprite
871   0027  CD 00 00    	call	_spr_chktime
872   002A  7D          	ld	a, l
873   002B  B7          	or	a, a
874   002C  28 56       	jr	Z,l_enemy_turn_00104
875   002E  2A 00 00    	ld	hl,(_sprite)
876   0031  26 00       	ld	h,0x00
877   0033  01 00 00    	ld	bc,_lin
878   0036  09          	add	hl,bc
879   0037  7E          	ld	a,(hl)
880   0038  32 00 00    	ld	(_s_lin0),a
881   003B  2A 00 00    	ld	hl,(_sprite)
882   003E  26 00       	ld	h,0x00
883   0040  01 00 00    	ld	bc,_col
884   0043  09          	add	hl,bc
885   0044  7E          	ld	a,(hl)
886   0045  32 00 00    	ld	(_s_col0),a
887   0048  2A 00 00    	ld	hl,(_sprite)
888   004B  26 00       	ld	h,0x00
889   004D  01 00 00    	ld	bc,_tile
890   0050  09          	add	hl,bc
891   0051  7E          	ld	a,(hl)
892   0052  32 00 00    	ld	(_s_tile0),a
893   0055  2A 00 00    	ld	hl,(_sprite)
894   0058  26 00       	ld	h,0x00
895   005A  01 00 00    	ld	bc,_state
896   005D  09          	add	hl,bc
897   005E  22 00 00    	ld	(_p_state),hl
898   0061  2A 00 00    	ld	hl,(_sprite)
899   0064  26 00       	ld	h,0x00
900   0066  01 00 00    	ld	bc,_state_a
901   0069  09          	add	hl,bc
902   006A  22 00 00    	ld	(_p_state_a),hl
903   006D  CD A2 00    	call	_enemy_move
904   0070  CD 00 00    	call	_spr_paint
905   0073  2A 00 00    	ld	hl,(_sprite)
906   0076  26 00       	ld	h,0x00
907   0078  29          	add	hl,hl
908   0079  01 00 00    	ld	bc,_last_time
909   007C  09          	add	hl,bc
910   007D  ED 5B 00 00 	ld	de,(_curr_time)
911   0081  73          	ld	(hl),e
912   0082  23          	inc	hl
913   0083  72          	ld	(hl),d
914   0084              l_enemy_turn_00104:
915   0084  21 00 00    	ld	hl,_sprite
916   0087  34          	inc	(hl)
917   0088  21 00 00    	ld	hl,_nirv_sprite_index
918   008B  7E          	ld	a,(hl)
919   008C  3C          	inc	a
920   008D  77          	ld	(hl),a
921   008E  D6 08       	sub	a,0x08
922   0090  DA 0A 00    	jp	C, l_enemy_turn_00107
923   0093  36 00       	ld	(hl),0x00
924   0095  76          	halt
925   0096  C3 0A 00    	jp	l_enemy_turn_00107
926   0099              l_enemy_turn_00109:
927   0099  3E 08       	ld	a,0x08
928   009B  21 00 00    	ld	hl,_spr_count
929   009E  96          	sub	a, (hl)
930   009F  D0          	ret	NC
931   00A0  76          	halt
932   00A1  C9          	ret
933   00A2              	SECTION code_compiler
934   00A2              ;	---------------------------------
935   00A2              ; Function enemy_move
936   00A2              ; ---------------------------------
937   00A2              _enemy_move:
938   00A2  2A 00 00    	ld	hl,(_sprite)
939   00A5  26 00       	ld	h,0x00
940   00A7  01 00 00    	ld	bc,_spr_kind
941   00AA  09          	add	hl,bc
942   00AB  7E          	ld	a,(hl)
943   00AC  FE 01       	cp	a,0x01
944   00AE  28 1B       	jr	Z,l_enemy_move_00102
945   00B0  FE 02       	cp	a,0x02
946   00B2  28 21       	jr	Z,l_enemy_move_00104
947   00B4  FE 03       	cp	a,0x03
948   00B6  28 18       	jr	Z,l_enemy_move_00103
949   00B8  FE 04       	cp	a,0x04
950   00BA  28 0A       	jr	Z,l_enemy_move_00101
951   00BC  FE 06       	cp	a,0x06
952   00BE  28 1A       	jr	Z,l_enemy_move_00105
953   00C0  D6 07       	sub	a,0x07
954   00C2  28 1B       	jr	Z,l_enemy_move_00106
955   00C4  18 1C       	jr	l_enemy_move_00108
956   00C6              l_enemy_move_00101:
957   00C6  CD 8C 02    	call	_enemy_static
958   00C9  18 17       	jr	l_enemy_move_00108
959   00CB              l_enemy_move_00102:
960   00CB  CD BE 02    	call	_enemy_horizontal
961   00CE  18 12       	jr	l_enemy_move_00108
962   00D0              l_enemy_move_00103:
963   00D0  CD BE 02    	call	_enemy_horizontal
964   00D3  18 0D       	jr	l_enemy_move_00108
965   00D5              l_enemy_move_00104:
966   00D5  CD 70 03    	call	_enemy_vertical
967   00D8  18 08       	jr	l_enemy_move_00108
968   00DA              l_enemy_move_00105:
969   00DA  CD E3 00    	call	_enemy_gota
970   00DD  18 03       	jr	l_enemy_move_00108
971   00DF              l_enemy_move_00106:
972   00DF  CD 0B 02    	call	_enemy_fall
973   00E2              l_enemy_move_00108:
974   00E2  C9          	ret
975   00E3              	SECTION code_compiler
976   00E3              ;	---------------------------------
977   00E3              ; Function enemy_gota
978   00E3              ; ---------------------------------
979   00E3              _enemy_gota:
980   00E3  CD 00 00    	call	___sdcc_enter_ix
981   00E6  F5          	push	af
982   00E7  3B          	dec	sp
983   00E8  3E 00       	ld	a, +((_colint) & 0xFF)
984   00EA  21 00 00    	ld	hl,_sprite
985   00ED  86          	add	a, (hl)
986   00EE  DD 77 FE    	ld	(ix-2),a
987   00F1  6F          	ld	l,a
988   00F2  3E 00       	ld	a,+((_colint) / 256)
989   00F4  CE 00       	adc	a,0x00
990   00F6  DD 77 FF    	ld	(ix-1),a
991   00F9  67          	ld	h,a
992   00FA  7E          	ld	a, (hl)
993   00FB  DD 77 FD    	ld	(ix-3),a
994   00FE  B7          	or	a, a
995   00FF  20 3B       	jr	NZ,l_enemy_gota_00120
996   0101  2A 00 00    	ld	hl,(_sprite)
997   0104  26 00       	ld	h,0x00
998   0106  01 00 00    	ld	bc,_col
999   0109  09          	add	hl,bc
1000  010A  56          	ld	d, (hl)
1001  010B  2A 00 00    	ld	hl,(_sprite)
1002  010E  26 00       	ld	h,0x00
1003  0110  01 00 00    	ld	bc,_lin
1004  0113  09          	add	hl,bc
1005  0114  7E          	ld	a,(hl)
1006  0115  C6 10       	add	a,0x10
1007  0117  5F          	ld	e, a
1008  0118  D5          	push	de
1009  0119  CD 00 00    	call	_spr_calc_index
1010  011C  F1          	pop	af
1011  011D  22 00 00    	ld	(_index1),hl
1012  0120  01 00 00    	ld	bc,_scr_map
1013  0123  09          	add	hl,bc
1014  0124  7E          	ld	a,(hl)
1015  0125  B7          	or	a,a
1016  0126  20 06       	jr	NZ,l_enemy_gota_00102
1017  0128  CD 00 00    	call	_spr_move_down_f
1018  012B  C3 06 02    	jp	l_enemy_gota_00122
1019  012E              l_enemy_gota_00102:
1020  012E  2A 00 00    	ld	hl,(_sprite)
1021  0131  26 00       	ld	h,0x00
1022  0133  01 00 00    	ld	bc,_colint
1023  0136  09          	add	hl,bc
1024  0137  36 01       	ld	(hl),0x01
1025  0139  C3 06 02    	jp	l_enemy_gota_00122
1026  013C              l_enemy_gota_00120:
1027  013C  DD 34 FD    	inc	(ix-3)
1028  013F  DD 6E FE    	ld	l,(ix-2)
1029  0142  DD 66 FF    	ld	h,(ix-1)
1030  0145  DD 7E FD    	ld	a,(ix-3)
1031  0148  77          	ld	(hl), a
1032  0149  3E 00       	ld	a, +((_colint) & 0xFF)
1033  014B  21 00 00    	ld	hl,_sprite
1034  014E  86          	add	a, (hl)
1035  014F  DD 77 FE    	ld	(ix-2),a
1036  0152  6F          	ld	l,a
1037  0153  3E 00       	ld	a,+((_colint) / 256)
1038  0155  CE 00       	adc	a,0x00
1039  0157  DD 77 FF    	ld	(ix-1),a
1040  015A  67          	ld	h,a
1041  015B  7E          	ld	a, (hl)
1042  015C  DD 77 FD    	ld	(ix-3),a
1043  015F  3E 00       	ld	a, +((_spr_frames) & 0xFF)
1044  0161  21 00 00    	ld	hl,_sprite
1045  0164  86          	add	a, (hl)
1046  0165  DD 77 FE    	ld	(ix-2),a
1047  0168  6F          	ld	l,a
1048  0169  3E 00       	ld	a,+((_spr_frames) / 256)
1049  016B  CE 00       	adc	a,0x00
1050  016D  DD 77 FF    	ld	(ix-1),a
1051  0170  67          	ld	h,a
1052  0171  DD 7E FD    	ld	a,(ix-3)
1053  0174  96          	sub	a,(hl)
1054  0175  C2 06 02    	jp	NZ,l_enemy_gota_00122
1055  0178  2A 00 00    	ld	hl,(_sprite)
1056  017B  26 00       	ld	h,0x00
1057  017D  01 00 00    	ld	bc,_lin
1058  0180  09          	add	hl,bc
1059  0181  4D          	ld	c,l
1060  0182  44          	ld	b,h
1061  0183  2A 00 00    	ld	hl,(_sprite)
1062  0186  26 00       	ld	h,0x00
1063  0188  11 00 00    	ld	de,_value_a
1064  018B  19          	add	hl,de
1065  018C  7E          	ld	a,(hl)
1066  018D  02          	ld	(bc),a
1067  018E  0E 00       	ld	c,0x00
1068  0190  2A 00 00    	ld	hl,(_sprite)
1069  0193  61          	ld	h,c
1070  0194  11 00 00    	ld	de,_col
1071  0197  19          	add	hl,de
1072  0198  36 FF       	ld	(hl),0xff
1073  019A              l_enemy_gota_00114:
1074  019A  79          	ld	a, c
1075  019B  B7          	or	a, a
1076  019C  20 50       	jr	NZ,l_enemy_gota_00116
1077  019E  C5          	push	bc
1078  019F  CD 00 00    	call	_rand
1079  01A2  C1          	pop	bc
1080  01A3  7D          	ld	a, l
1081  01A4  E6 0F       	and	a,0x0f
1082  01A6  87          	add	a, a
1083  01A7  C6 FF       	add	a,0xff
1084  01A9  32 00 00    	ld	(_v0),a
1085  01AC  3C          	inc	a
1086  01AD  20 05       	jr	NZ,l_enemy_gota_00105
1087  01AF  21 00 00    	ld	hl,_v0
1088  01B2  36 01       	ld	(hl),0x01
1089  01B4              l_enemy_gota_00105:
1090  01B4  3A 00 00    	ld	a,(_v0)
1091  01B7  D6 0F       	sub	a,0x0f
1092  01B9  20 05       	jr	NZ,l_enemy_gota_00107
1093  01BB  21 00 00    	ld	hl,_v0
1094  01BE  36 0D       	ld	(hl),0x0d
1095  01C0              l_enemy_gota_00107:
1096  01C0  3A 00 00    	ld	a,(_v0)
1097  01C3  D6 17       	sub	a,0x17
1098  01C5  20 05       	jr	NZ,l_enemy_gota_00109
1099  01C7  21 00 00    	ld	hl,_v0
1100  01CA  36 15       	ld	(hl),0x15
1101  01CC              l_enemy_gota_00109:
1102  01CC  21 00 00    	ld	hl,_col
1103  01CF  46          	ld	b, (hl)
1104  01D0  3A 00 00    	ld	a,(_v0)
1105  01D3  90          	sub	a, b
1106  01D4  28 C4       	jr	Z,l_enemy_gota_00114
1107  01D6  21 01 00    	ld	hl,_col + 1
1108  01D9  46          	ld	b, (hl)
1109  01DA  3A 00 00    	ld	a,(_v0)
1110  01DD  90          	sub	a, b
1111  01DE  28 BA       	jr	Z,l_enemy_gota_00114
1112  01E0  21 02 00    	ld	hl,_col + 2
1113  01E3  46          	ld	b, (hl)
1114  01E4  3A 00 00    	ld	a,(_v0)
1115  01E7  90          	sub	a, b
1116  01E8  28 B0       	jr	Z,l_enemy_gota_00114
1117  01EA  0E 01       	ld	c,0x01
1118  01EC  18 AC       	jr	l_enemy_gota_00114
1119  01EE              l_enemy_gota_00116:
1120  01EE  2A 00 00    	ld	hl,(_sprite)
1121  01F1  26 00       	ld	h,0x00
1122  01F3  01 00 00    	ld	bc,_col
1123  01F6  09          	add	hl,bc
1124  01F7  3A 00 00    	ld	a,(_v0)
1125  01FA  77          	ld	(hl),a
1126  01FB  2A 00 00    	ld	hl,(_sprite)
1127  01FE  26 00       	ld	h,0x00
1128  0200  01 00 00    	ld	bc,_colint
1129  0203  09          	add	hl,bc
1130  0204  AF          	xor	a,a
1131  0205  77          	ld	(hl),a
1132  0206              l_enemy_gota_00122:
1133  0206  DD F9       	ld	sp, ix
1134  0208  DD E1       	pop	ix
1135  020A  C9          	ret
1136  020B              	SECTION code_compiler
1137  020B              ;	---------------------------------
1138  020B              ; Function enemy_fall
1139  020B              ; ---------------------------------
1140  020B              _enemy_fall:
1141  020B  CD 00 00    	call	___sdcc_enter_ix
1142  020E  3B          	dec	sp
1143  020F  01 00 00    	ld	bc,_colint+0
1144  0212  79          	ld	a, c
1145  0213  21 00 00    	ld	hl,_sprite
1146  0216  86          	add	a, (hl)
1147  0217  5F          	ld	e, a
1148  0218  78          	ld	a, b
1149  0219  CE 00       	adc	a,0x00
1150  021B  57          	ld	d, a
1151  021C  1A          	ld	a, (de)
1152  021D  3C          	inc	a
1153  021E  12          	ld	(de), a
1154  021F  79          	ld	a, c
1155  0220  86          	add	a, (hl)
1156  0221  4F          	ld	c, a
1157  0222  78          	ld	a, b
1158  0223  CE 00       	adc	a,0x00
1159  0225  47          	ld	b, a
1160  0226  0A          	ld	a, (bc)
1161  0227  DD 77 FF    	ld	(ix-1),a
1162  022A  5E          	ld	e,(hl)
1163  022B  16 00       	ld	d,0x00
1164  022D  21 00 00    	ld	hl,_spr_frames
1165  0230  19          	add	hl,de
1166  0231  DD 7E FF    	ld	a,(ix-1)
1167  0234  96          	sub	a,(hl)
1168  0235  20 02       	jr	NZ,l_enemy_fall_00102
1169  0237  AF          	xor	a, a
1170  0238  02          	ld	(bc), a
1171  0239              l_enemy_fall_00102:
1172  0239  CD 00 00    	call	_spr_move_down_f
1173  023C  2A FF FF    	ld	hl,(_s_col0 - 1)
1174  023F  3A 00 00    	ld	a,(_s_lin0)
1175  0242  6F          	ld	l,a
1176  0243  E5          	push	hl
1177  0244  CD 00 00    	call	_spr_calc_index
1178  0247  F1          	pop	af
1179  0248  22 00 00    	ld	(_index1),hl
1180  024B  CD 00 00    	call	_game_cell_paint_index
1181  024E  21 00 00    	ld	hl,_s_col0
1182  0251  46          	ld	b, (hl)
1183  0252  04          	inc	b
1184  0253  3A 00 00    	ld	a,(_s_lin0)
1185  0256  4F          	ld	c,a
1186  0257  C5          	push	bc
1187  0258  CD 00 00    	call	_spr_calc_index
1188  025B  F1          	pop	af
1189  025C  22 00 00    	ld	(_index1),hl
1190  025F  CD 00 00    	call	_game_cell_paint_index
1191  0262  2A 00 00    	ld	hl,(_sprite)
1192  0265  26 00       	ld	h,0x00
1193  0267  01 00 00    	ld	bc,_lin
1194  026A  09          	add	hl,bc
1195  026B  7E          	ld	a,(hl)
1196  026C  D6 68       	sub	a,0x68
1197  026E  38 18       	jr	C,l_enemy_fall_00105
1198  0270  2A 00 00    	ld	hl,(_sprite)
1199  0273  26 00       	ld	h,0x00
1200  0275  01 00 00    	ld	bc,_class
1201  0278  09          	add	hl,bc
1202  0279  AF          	xor	a,a
1203  027A  77          	ld	(hl),a
1204  027B  21 00 00    	ld	hl,0x0000
1205  027E  E5          	push	hl
1206  027F  AF          	xor	a, a
1207  0280  2A 00 00    	ld	hl,(_sprite)
1208  0283  67          	ld	h,a
1209  0284  E5          	push	hl
1210  0285  CD 00 00    	call	_NIRVANAP_spriteT_callee
1211  0288              l_enemy_fall_00105:
1212  0288  33          	inc	sp
1213  0289  DD E1       	pop	ix
1214  028B  C9          	ret
1215  028C              	SECTION code_compiler
1216  028C              ;	---------------------------------
1217  028C              ; Function enemy_static
1218  028C              ; ---------------------------------
1219  028C              _enemy_static:
1220  028C  CD 00 00    	call	___sdcc_enter_ix
1221  028F  3B          	dec	sp
1222  0290  01 00 00    	ld	bc,_colint+0
1223  0293  79          	ld	a, c
1224  0294  21 00 00    	ld	hl,_sprite
1225  0297  86          	add	a, (hl)
1226  0298  5F          	ld	e, a
1227  0299  78          	ld	a, b
1228  029A  CE 00       	adc	a,0x00
1229  029C  57          	ld	d, a
1230  029D  1A          	ld	a, (de)
1231  029E  3C          	inc	a
1232  029F  12          	ld	(de), a
1233  02A0  79          	ld	a, c
1234  02A1  86          	add	a, (hl)
1235  02A2  4F          	ld	c, a
1236  02A3  78          	ld	a, b
1237  02A4  CE 00       	adc	a,0x00
1238  02A6  47          	ld	b, a
1239  02A7  0A          	ld	a, (bc)
1240  02A8  DD 77 FF    	ld	(ix-1),a
1241  02AB  5E          	ld	e,(hl)
1242  02AC  16 00       	ld	d,0x00
1243  02AE  21 00 00    	ld	hl,_spr_frames
1244  02B1  19          	add	hl,de
1245  02B2  DD 7E FF    	ld	a,(ix-1)
1246  02B5  96          	sub	a,(hl)
1247  02B6  20 02       	jr	NZ,l_enemy_static_00103
1248  02B8  AF          	xor	a, a
1249  02B9  02          	ld	(bc), a
1250  02BA              l_enemy_static_00103:
1251  02BA  33          	inc	sp
1252  02BB  DD E1       	pop	ix
1253  02BD  C9          	ret
1254  02BE              	SECTION code_compiler
1255  02BE              ;	---------------------------------
1256  02BE              ; Function enemy_horizontal
1257  02BE              ; ---------------------------------
1258  02BE              _enemy_horizontal:
1259  02BE  2A 00 00    	ld	hl,(_p_state)
1260  02C1  CB 56       	bit	2,(hl)
1261  02C3  28 57       	jr	Z,l_enemy_horizontal_00110
1262  02C5  CD 00 00    	call	_spr_move_right_f
1263  02C8  2A 00 00    	ld	hl,(_sprite)
1264  02CB  26 00       	ld	h,0x00
1265  02CD  01 00 00    	ld	bc,_col
1266  02D0  09          	add	hl,bc
1267  02D1  4E          	ld	c, (hl)
1268  02D2  2A 00 00    	ld	hl,(_sprite)
1269  02D5  26 00       	ld	h,0x00
1270  02D7  11 00 00    	ld	de,_value_b
1271  02DA  19          	add	hl,de
1272  02DB  46          	ld	b, (hl)
1273  02DC  79          	ld	a,c
1274  02DD  90          	sub	a,b
1275  02DE  38 0F       	jr	C,l_enemy_horizontal_00104
1276  02E0  3A 00 00    	ld	a,(_sprite)
1277  02E3  5F          	ld	e,a
1278  02E4  16 00       	ld	d,0x00
1279  02E6  21 00 00    	ld	hl,_colint
1280  02E9  19          	add	hl,de
1281  02EA  7E          	ld	a,(hl)
1282  02EB  D6 03       	sub	a,0x03
1283  02ED  28 05       	jr	Z,l_enemy_horizontal_00101
1284  02EF              l_enemy_horizontal_00104:
1285  02EF  3E 1E       	ld	a,0x1e
1286  02F1  91          	sub	a, c
1287  02F2  30 7B       	jr	NC,l_enemy_horizontal_00112
1288  02F4              l_enemy_horizontal_00101:
1289  02F4  CD 00 00    	call	_spr_set_left
1290  02F7  2A 00 00    	ld	hl,(_sprite)
1291  02FA  26 00       	ld	h,0x00
1292  02FC  01 00 00    	ld	bc,_state
1293  02FF  09          	add	hl,bc
1294  0300  4D          	ld	c,l
1295  0301  44          	ld	b,h
1296  0302  2A 00 00    	ld	hl,(_p_state)
1297  0305  7E          	ld	a,(hl)
1298  0306  02          	ld	(bc),a
1299  0307  2A 00 00    	ld	hl,(_sprite)
1300  030A  26 00       	ld	h,0x00
1301  030C  01 00 00    	ld	bc,_tile
1302  030F  09          	add	hl,bc
1303  0310  E5          	push	hl
1304  0311  21 00 00    	ld	hl,_sprite
1305  0314  CD 00 00    	call	_spr_get_tile
1306  0317  C1          	pop	bc
1307  0318  7D          	ld	a,l
1308  0319  02          	ld	(bc), a
1309  031A  18 53       	jr	l_enemy_horizontal_00112
1310  031C              l_enemy_horizontal_00110:
1311  031C  CD 00 00    	call	_spr_move_left_f
1312  031F  2A 00 00    	ld	hl,(_sprite)
1313  0322  26 00       	ld	h,0x00
1314  0324  01 00 00    	ld	bc,_col
1315  0327  09          	add	hl,bc
1316  0328  4E          	ld	c, (hl)
1317  0329  2A 00 00    	ld	hl,(_sprite)
1318  032C  26 00       	ld	h,0x00
1319  032E  11 00 00    	ld	de,_value_a
1320  0331  19          	add	hl,de
1321  0332  7E          	ld	a,(hl)
1322  0333  91          	sub	a,c
1323  0334  38 0E       	jr	C,l_enemy_horizontal_00108
1324  0336  3A 00 00    	ld	a,(_sprite)
1325  0339  5F          	ld	e,a
1326  033A  16 00       	ld	d,0x00
1327  033C  21 00 00    	ld	hl,_colint
1328  033F  19          	add	hl,de
1329  0340  7E          	ld	a,(hl)
1330  0341  B7          	or	a, a
1331  0342  28 05       	jr	Z,l_enemy_horizontal_00105
1332  0344              l_enemy_horizontal_00108:
1333  0344  3E 01       	ld	a,0x01
1334  0346  91          	sub	a, c
1335  0347  38 26       	jr	C,l_enemy_horizontal_00112
1336  0349              l_enemy_horizontal_00105:
1337  0349  CD 00 00    	call	_spr_set_right
1338  034C  2A 00 00    	ld	hl,(_sprite)
1339  034F  26 00       	ld	h,0x00
1340  0351  01 00 00    	ld	bc,_state
1341  0354  09          	add	hl,bc
1342  0355  4D          	ld	c,l
1343  0356  44          	ld	b,h
1344  0357  2A 00 00    	ld	hl,(_p_state)
1345  035A  7E          	ld	a,(hl)
1346  035B  02          	ld	(bc),a
1347  035C  2A 00 00    	ld	hl,(_sprite)
1348  035F  26 00       	ld	h,0x00
1349  0361  01 00 00    	ld	bc,_tile
1350  0364  09          	add	hl,bc
1351  0365  E5          	push	hl
1352  0366  21 00 00    	ld	hl,_sprite
1353  0369  CD 00 00    	call	_spr_get_tile
1354  036C  C1          	pop	bc
1355  036D  7D          	ld	a,l
1356  036E  02          	ld	(bc), a
1357  036F              l_enemy_horizontal_00112:
1358  036F  C9          	ret
1359  0370              	SECTION code_compiler
1360  0370              ;	---------------------------------
1361  0370              ; Function enemy_vertical
1362  0370              ; ---------------------------------
1363  0370              _enemy_vertical:
1364  0370  CD 00 00    	call	___sdcc_enter_ix
1365  0373  3B          	dec	sp
1366  0374  01 00 00    	ld	bc,_colint+0
1367  0377  79          	ld	a, c
1368  0378  21 00 00    	ld	hl,_sprite
1369  037B  86          	add	a, (hl)
1370  037C  5F          	ld	e, a
1371  037D  78          	ld	a, b
1372  037E  CE 00       	adc	a,0x00
1373  0380  57          	ld	d, a
1374  0381  1A          	ld	a, (de)
1375  0382  3C          	inc	a
1376  0383  12          	ld	(de), a
1377  0384  79          	ld	a, c
1378  0385  86          	add	a, (hl)
1379  0386  4F          	ld	c, a
1380  0387  78          	ld	a, b
1381  0388  CE 00       	adc	a,0x00
1382  038A  47          	ld	b, a
1383  038B  0A          	ld	a, (bc)
1384  038C  DD 77 FF    	ld	(ix-1),a
1385  038F  5E          	ld	e,(hl)
1386  0390  16 00       	ld	d,0x00
1387  0392  21 00 00    	ld	hl,_spr_frames
1388  0395  19          	add	hl,de
1389  0396  DD 7E FF    	ld	a,(ix-1)
1390  0399  96          	sub	a,(hl)
1391  039A  20 02       	jr	NZ,l_enemy_vertical_00102
1392  039C  AF          	xor	a, a
1393  039D  02          	ld	(bc), a
1394  039E              l_enemy_vertical_00102:
1395  039E  2A 00 00    	ld	hl,(_p_state)
1396  03A1  7E          	ld	a,(hl)
1397  03A2  0F          	rrca
1398  03A3  30 25       	jr	NC,l_enemy_vertical_00110
1399  03A5  CD 00 00    	call	_spr_move_up_f
1400  03A8  2A 00 00    	ld	hl,(_sprite)
1401  03AB  26 00       	ld	h,0x00
1402  03AD  01 00 00    	ld	bc,_lin
1403  03B0  09          	add	hl,bc
1404  03B1  4E          	ld	c, (hl)
1405  03B2  3A 00 00    	ld	a,(_sprite)
1406  03B5  5F          	ld	e,a
1407  03B6  16 00       	ld	d,0x00
1408  03B8  21 00 00    	ld	hl,_value_a
1409  03BB  19          	add	hl,de
1410  03BC  7E          	ld	a,(hl)
1411  03BD  91          	sub	a, c
1412  03BE  28 05       	jr	Z,l_enemy_vertical_00103
1413  03C0  3E 80       	ld	a,0x80
1414  03C2  91          	sub	a, c
1415  03C3  30 29       	jr	NC,l_enemy_vertical_00112
1416  03C5              l_enemy_vertical_00103:
1417  03C5  CD 00 00    	call	_spr_set_down
1418  03C8  18 24       	jr	l_enemy_vertical_00112
1419  03CA              l_enemy_vertical_00110:
1420  03CA  CD 00 00    	call	_spr_move_down_f
1421  03CD  2A 00 00    	ld	hl,(_sprite)
1422  03D0  26 00       	ld	h,0x00
1423  03D2  01 00 00    	ld	bc,_lin
1424  03D5  09          	add	hl,bc
1425  03D6  4E          	ld	c, (hl)
1426  03D7  3A 00 00    	ld	a,(_sprite)
1427  03DA  5F          	ld	e,a
1428  03DB  16 00       	ld	d,0x00
1429  03DD  21 00 00    	ld	hl,_value_b
1430  03E0  19          	add	hl,de
1431  03E1  46          	ld	b, (hl)
1432  03E2  79          	ld	a, c
1433  03E3  90          	sub	a, b
1434  03E4  28 05       	jr	Z,l_enemy_vertical_00106
1435  03E6  3E 80       	ld	a,0x80
1436  03E8  91          	sub	a, c
1437  03E9  30 03       	jr	NC,l_enemy_vertical_00112
1438  03EB              l_enemy_vertical_00106:
1439  03EB  CD 00 00    	call	_spr_set_up
1440  03EE              l_enemy_vertical_00112:
1441  03EE  33          	inc	sp
1442  03EF  DD E1       	pop	ix
1443  03F1  C9          	ret
1444  03F2              	SECTION code_compiler
1445  03F2              ;	---------------------------------
1446  03F2              ; Function enemy_walk is a stub
1447  03F2              ; ---------------------------------
1448  03F2              EXTERN l_ret
1449  03F2              defc _enemy_walk = l_ret
1450  03F2              	SECTION code_compiler
1451  03F2              ;	---------------------------------
1452  03F2              ; Function enemy_kill
1453  03F2              ; ---------------------------------
1454  03F2              _enemy_kill:
1455  03F2  4D          	ld	c,l
1456  03F3  11 00 00    	ld	de,_lin+0
1457  03F6  26 00       	ld	h,0x00
1458  03F8  19          	add	hl, de
1459  03F9  7E          	ld	a, (hl)
1460  03FA  32 00 00    	ld	(_s_lin0),a
1461  03FD  11 00 00    	ld	de,_col+0
1462  0400  69          	ld	l,c
1463  0401  26 00       	ld	h,0x00
1464  0403  19          	add	hl, de
1465  0404  7E          	ld	a, (hl)
1466  0405  32 00 00    	ld	(_s_col0),a
1467  0408  69          	ld	l, c
1468  0409  C3 00 00    	jp  _spr_destroy
1469  040C              	SECTION code_compiler
1470  040C              ;	---------------------------------
1471  040C              ; Function enemy_init
1472  040C              ; ---------------------------------
1473  040C              _enemy_init:
1474  040C  CD 00 00    	call	___sdcc_enter_ix
1475  040F  F5          	push	af
1476  0410  F5          	push	af
1477  0411  F5          	push	af
1478  0412  01 00 00    	ld	bc,_scr_map
1479  0415  2A 00 00    	ld	hl,(_index1)
1480  0418  09          	add	hl,bc
1481  0419  5E          	ld	e, (hl)
1482  041A  DD 36 FA 00 	ld	(ix-6),0x00
1483  041E  CB 43       	bit	0, e
1484  0420  28 05       	jr	Z,l_enemy_init_00102
1485  0422  1D          	dec	e
1486  0423  DD 36 FA 01 	ld	(ix-6),0x01
1487  0427              l_enemy_init_00102:
1488  0427  06 00       	ld	b,0x00
1489  0429  DD 70 FB    	ld	(ix-5),b
1490  042C  DD 36 FE 00 	ld	(ix-2),0x00
1491  0430              l_enemy_init_00107:
1492  0430  DD 7E FE    	ld	a,(ix-2)
1493  0433  D6 0F       	sub	a,0x0f
1494  0435  30 1E       	jr	NC,l_enemy_init_00160
1495  0437  3E 00       	ld	a, +((_class) & 0xFF)
1496  0439  DD 86 FE    	add	a,(ix-2)
1497  043C  6F          	ld	l, a
1498  043D  3E 00       	ld	a, +((_class) / 256)
1499  043F  CE 00       	adc	a,0x00
1500  0441  67          	ld	h, a
1501  0442  7E          	ld	a, (hl)
1502  0443  B7          	or	a, a
1503  0444  28 0F       	jr	Z,l_enemy_init_00160
1504  0446  93          	sub	a, e
1505  0447  20 01       	jr	NZ,l_enemy_init_00106
1506  0449  04          	inc	b
1507  044A              l_enemy_init_00106:
1508  044A  DD 34 FE    	inc	(ix-2)
1509  044D  DD 7E FE    	ld	a,(ix-2)
1510  0450  DD 77 FB    	ld	(ix-5),a
1511  0453  18 DB       	jr	l_enemy_init_00107
1512  0455              l_enemy_init_00160:
1513  0455  DD 70 FF    	ld	(ix-1),b
1514  0458  DD 7E FE    	ld	a,(ix-2)
1515  045B  DD 77 FB    	ld	(ix-5),a
1516  045E  21 00 00    	ld	hl,_v0
1517  0461  36 00       	ld	(hl),0x00
1518  0463              l_enemy_init_00135:
1519  0463  3E F0       	ld	a,0xf0
1520  0465  21 00 00    	ld	hl,_v0
1521  0468  96          	sub	a, (hl)
1522  0469  DA 8E 07    	jp	C, l_enemy_init_00138
1523  046C  3E 00       	ld	a, +((_spr_init) & 0xFF)
1524  046E  86          	add	a, (hl)
1525  046F  4F          	ld	c, a
1526  0470  3E 00       	ld	a, +((_spr_init) / 256)
1527  0472  CE 00       	adc	a,0x00
1528  0474  47          	ld	b, a
1529  0475  0A          	ld	a, (bc)
1530  0476  93          	sub	a, e
1531  0477  C2 84 07    	jp	NZ,l_enemy_init_00133
1532  047A  6E          	ld	l,(hl)
1533  047B  26 00       	ld	h,0x00
1534  047D  4D          	ld	c,l
1535  047E  44          	ld	b,h
1536  047F  23          	inc	hl
1537  0480  3E 00       	ld	a, +((_spr_init) & 0xFF)
1538  0482  85          	add	a, l
1539  0483  6F          	ld	l, a
1540  0484  3E 00       	ld	a, +((_spr_init) / 256)
1541  0486  8C          	adc	a, h
1542  0487  67          	ld	h, a
1543  0488  56          	ld	d, (hl)
1544  0489  3E 00       	ld	a, +((_spr_frames) & 0xFF)
1545  048B  DD 86 FB    	add	a,(ix-5)
1546  048E  DD 77 FC    	ld	(ix-4),a
1547  0491  3E 00       	ld	a, +((_spr_frames) / 256)
1548  0493  CE 00       	adc	a,0x00
1549  0495  DD 77 FD    	ld	(ix-3),a
1550  0498  03          	inc	bc
1551  0499  03          	inc	bc
1552  049A  21 00 00    	ld	hl,_spr_init
1553  049D  09          	add	hl, bc
1554  049E  4E          	ld	c, (hl)
1555  049F  DD 6E FC    	ld	l,(ix-4)
1556  04A2  DD 66 FD    	ld	h,(ix-3)
1557  04A5  71          	ld	(hl), c
1558  04A6  3E 00       	ld	a, +((_spr_kind) & 0xFF)
1559  04A8  DD 86 FB    	add	a,(ix-5)
1560  04AB  DD 77 FC    	ld	(ix-4),a
1561  04AE  3E 00       	ld	a, +((_spr_kind) / 256)
1562  04B0  CE 00       	adc	a,0x00
1563  04B2  DD 77 FD    	ld	(ix-3),a
1564  04B5  3A 00 00    	ld	a,(_v0)
1565  04B8  4F          	ld	c,a
1566  04B9  06 00       	ld	b,0x00
1567  04BB  03          	inc	bc
1568  04BC  03          	inc	bc
1569  04BD  03          	inc	bc
1570  04BE  21 00 00    	ld	hl,_spr_init
1571  04C1  09          	add	hl, bc
1572  04C2  4E          	ld	c, (hl)
1573  04C3  DD 6E FC    	ld	l,(ix-4)
1574  04C6  DD 66 FD    	ld	h,(ix-3)
1575  04C9  71          	ld	(hl), c
1576  04CA  3A 00 00    	ld	a,(_v0)
1577  04CD  4F          	ld	c,a
1578  04CE  06 00       	ld	b,0x00
1579  04D0  21 04 00    	ld	hl,0x0004
1580  04D3  09          	add	hl, bc
1581  04D4  3E 00       	ld	a, +((_spr_init) & 0xFF)
1582  04D6  85          	add	a, l
1583  04D7  6F          	ld	l, a
1584  04D8  3E 00       	ld	a, +((_spr_init) / 256)
1585  04DA  8C          	adc	a, h
1586  04DB  67          	ld	h, a
1587  04DC  7E          	ld	a, (hl)
1588  04DD  32 00 00    	ld	(_spr_init_cin),a
1589  04E0  DD 7E FF    	ld	a,(ix-1)
1590  04E3  B7          	or	a, a
1591  04E4  28 13       	jr	Z,l_enemy_init_00110
1592  04E6  3D          	dec	a
1593  04E7  28 1C       	jr	Z,l_enemy_init_00111
1594  04E9  DD 7E FF    	ld	a,(ix-1)
1595  04EC  D6 02       	sub	a,0x02
1596  04EE  28 1F       	jr	Z,l_enemy_init_00112
1597  04F0  DD 7E FF    	ld	a,(ix-1)
1598  04F3  D6 03       	sub	a,0x03
1599  04F5  28 22       	jr	Z,l_enemy_init_00113
1600  04F7  18 28       	jr	l_enemy_init_00114
1601  04F9              l_enemy_init_00110:
1602  04F9  21 00 00    	ld	hl,_spr_init_cin
1603  04FC  36 00       	ld	(hl),0x00
1604  04FE  21 00 00    	ld	hl,_spr_init_cout
1605  0501  36 00       	ld	(hl),0x00
1606  0503  18 1C       	jr	l_enemy_init_00114
1607  0505              l_enemy_init_00111:
1608  0505  21 05 00    	ld	hl,0x0005 + _spr_init
1609  0508  09          	add	hl,bc
1610  0509  7E          	ld	a, (hl)
1611  050A  32 00 00    	ld	(_spr_init_cout),a
1612  050D  18 12       	jr	l_enemy_init_00114
1613  050F              l_enemy_init_00112:
1614  050F  21 06 00    	ld	hl,0x0006 + _spr_init
1615  0512  09          	add	hl,bc
1616  0513  7E          	ld	a, (hl)
1617  0514  32 00 00    	ld	(_spr_init_cout),a
1618  0517  18 08       	jr	l_enemy_init_00114
1619  0519              l_enemy_init_00113:
1620  0519  21 07 00    	ld	hl,0x0007 + _spr_init
1621  051C  09          	add	hl,bc
1622  051D  7E          	ld	a, (hl)
1623  051E  32 00 00    	ld	(_spr_init_cout),a
1624  0521              l_enemy_init_00114:
1625  0521  3E 00       	ld	a, +((_class) & 0xFF)
1626  0523  DD 86 FB    	add	a,(ix-5)
1627  0526  4F          	ld	c, a
1628  0527  3E 00       	ld	a, +((_class) / 256)
1629  0529  CE 00       	adc	a,0x00
1630  052B  47          	ld	b, a
1631  052C  7B          	ld	a, e
1632  052D  02          	ld	(bc), a
1633  052E  3E 00       	ld	a, +((_spr_speed) & 0xFF)
1634  0530  DD 86 FB    	add	a,(ix-5)
1635  0533  DD 77 FC    	ld	(ix-4),a
1636  0536  3E 00       	ld	a, +((_spr_speed) / 256)
1637  0538  CE 00       	adc	a,0x00
1638  053A  DD 77 FD    	ld	(ix-3),a
1639  053D  ED 4B 00 00 	ld	bc,(_index1)
1640  0541  03          	inc	bc
1641  0542  21 00 00    	ld	hl,_scr_map
1642  0545  09          	add	hl, bc
1643  0546  4E          	ld	c, (hl)
1644  0547  DD 6E FC    	ld	l,(ix-4)
1645  054A  DD 66 FD    	ld	h,(ix-3)
1646  054D  71          	ld	(hl), c
1647  054E  3E 00       	ld	a, +((_value_a) & 0xFF)
1648  0550  DD 86 FB    	add	a,(ix-5)
1649  0553  DD 77 FC    	ld	(ix-4),a
1650  0556  3E 00       	ld	a, +((_value_a) / 256)
1651  0558  CE 00       	adc	a,0x00
1652  055A  DD 77 FD    	ld	(ix-3),a
1653  055D  2A 00 00    	ld	hl,(_index1)
1654  0560  01 20 00    	ld	bc,0x0020
1655  0563  09          	add	hl,bc
1656  0564  01 00 00    	ld	bc,_scr_map
1657  0567  09          	add	hl,bc
1658  0568  4E          	ld	c, (hl)
1659  0569  DD 6E FC    	ld	l,(ix-4)
1660  056C  DD 66 FD    	ld	h,(ix-3)
1661  056F  71          	ld	(hl), c
1662  0570  3E 00       	ld	a, +((_value_b) & 0xFF)
1663  0572  DD 86 FB    	add	a,(ix-5)
1664  0575  DD 77 FC    	ld	(ix-4),a
1665  0578  3E 00       	ld	a, +((_value_b) / 256)
1666  057A  CE 00       	adc	a,0x00
1667  057C  DD 77 FD    	ld	(ix-3),a
1668  057F  2A 00 00    	ld	hl,(_index1)
1669  0582  01 21 00    	ld	bc,0x0021
1670  0585  09          	add	hl,bc
1671  0586  01 00 00    	ld	bc,_scr_map
1672  0589  09          	add	hl,bc
1673  058A  4E          	ld	c, (hl)
1674  058B  DD 6E FC    	ld	l,(ix-4)
1675  058E  DD 66 FD    	ld	h,(ix-3)
1676  0591  71          	ld	(hl), c
1677  0592  2A 00 00    	ld	hl,(_index1)
1678  0595  01 00 00    	ld	bc,_scr_map
1679  0598  09          	add	hl,bc
1680  0599  AF          	xor	a,a
1681  059A  77          	ld	(hl),a
1682  059B  ED 4B 00 00 	ld	bc,(_index1)
1683  059F  03          	inc	bc
1684  05A0  21 00 00    	ld	hl,_scr_map
1685  05A3  09          	add	hl, bc
1686  05A4  36 00       	ld	(hl),0x00
1687  05A6  2A 00 00    	ld	hl,(_index1)
1688  05A9  01 20 00    	ld	bc,0x0020
1689  05AC  09          	add	hl,bc
1690  05AD  01 00 00    	ld	bc,_scr_map
1691  05B0  09          	add	hl,bc
1692  05B1  36 00       	ld	(hl),0x00
1693  05B3  2A 00 00    	ld	hl,(_index1)
1694  05B6  01 21 00    	ld	bc,0x0021
1695  05B9  09          	add	hl,bc
1696  05BA  01 00 00    	ld	bc,_scr_map
1697  05BD  09          	add	hl,bc
1698  05BE  36 00       	ld	(hl),0x00
1699  05C0  3E 00       	ld	a, +((_state) & 0xFF)
1700  05C2  DD 86 FB    	add	a,(ix-5)
1701  05C5  4F          	ld	c, a
1702  05C6  3E 00       	ld	a, +((_state) / 256)
1703  05C8  CE 00       	adc	a,0x00
1704  05CA  47          	ld	b, a
1705  05CB  AF          	xor	a, a
1706  05CC  02          	ld	(bc), a
1707  05CD  3E 00       	ld	a, +((_state_a) & 0xFF)
1708  05CF  DD 86 FB    	add	a,(ix-5)
1709  05D2  4F          	ld	c, a
1710  05D3  3E 00       	ld	a, +((_state_a) / 256)
1711  05D5  CE 00       	adc	a,0x00
1712  05D7  47          	ld	b, a
1713  05D8  AF          	xor	a, a
1714  05D9  02          	ld	(bc), a
1715  05DA  3E 00       	ld	a, +((_lin) & 0xFF)
1716  05DC  DD 86 FB    	add	a,(ix-5)
1717  05DF  DD 77 FC    	ld	(ix-4),a
1718  05E2  3E 00       	ld	a, +((_lin) / 256)
1719  05E4  CE 00       	adc	a,0x00
1720  05E6  DD 77 FD    	ld	(ix-3),a
1721  05E9  ED 4B 00 00 	ld	bc,(_index1)
1722  05ED  79          	ld	a,c
1723  05EE  0E 05       	ld	c,0x05
1724  05F0              l_enemy_init_00230:
1725  05F0  CB 38       	srl	b
1726  05F2  1F          	rra
1727  05F3  0D          	dec	c
1728  05F4  20 FA       	jr	NZ,l_enemy_init_00230
1729  05F6  07          	rlca
1730  05F7  07          	rlca
1731  05F8  07          	rlca
1732  05F9  E6 F8       	and	a,0xf8
1733  05FB  DD 6E FC    	ld	l,(ix-4)
1734  05FE  DD 66 FD    	ld	h,(ix-3)
1735  0601  77          	ld	(hl), a
1736  0602  3E 00       	ld	a, +((_col) & 0xFF)
1737  0604  DD 86 FB    	add	a,(ix-5)
1738  0607  4F          	ld	c, a
1739  0608  3E 00       	ld	a, +((_col) / 256)
1740  060A  CE 00       	adc	a,0x00
1741  060C  47          	ld	b, a
1742  060D  3A 00 00    	ld	a,(_index1)
1743  0610  E6 1F       	and	a,0x1f
1744  0612  02          	ld	(bc), a
1745  0613  3E 00       	ld	a, +((_colint) & 0xFF)
1746  0615  DD 86 FB    	add	a,(ix-5)
1747  0618  4F          	ld	c, a
1748  0619  3E 00       	ld	a, +((_colint) / 256)
1749  061B  CE 00       	adc	a,0x00
1750  061D  47          	ld	b, a
1751  061E  AF          	xor	a, a
1752  061F  02          	ld	(bc), a
1753  0620  3E 00       	ld	a, +((_state) & 0xFF)
1754  0622  DD 86 FB    	add	a,(ix-5)
1755  0625  4F          	ld	c, a
1756  0626  3E 00       	ld	a, +((_state) / 256)
1757  0628  CE 00       	adc	a,0x00
1758  062A  47          	ld	b, a
1759  062B  ED 43 00 00 	ld	(_p_state),bc
1760  062F  3E 00       	ld	a,+((_state_a) & 0xFF)
1761  0631  DD 86 FB    	add	a,(ix-5)
1762  0634  4F          	ld	c, a
1763  0635  3E 00       	ld	a, +((_state_a) / 256)
1764  0637  CE 00       	adc	a,0x00
1765  0639  47          	ld	b, a
1766  063A  ED 43 00 00 	ld	(_p_state_a),bc
1767  063E  3E 00       	ld	a,+((_spr_kind) & 0xFF)
1768  0640  DD 86 FB    	add	a,(ix-5)
1769  0643  4F          	ld	c, a
1770  0644  3E 00       	ld	a, +((_spr_kind) / 256)
1771  0646  CE 00       	adc	a,0x00
1772  0648  47          	ld	b, a
1773  0649  0A          	ld	a, (bc)
1774  064A  4F          	ld	c, a
1775  064B  2A 00 00    	ld	hl,(_p_state)
1776  064E  DD 75 FC    	ld	(ix-4),l
1777  0651  DD 74 FD    	ld	(ix-3),h
1778  0654  79          	ld	a,c
1779  0655  3D          	dec	a
1780  0656  28 07       	jr	Z,l_enemy_init_00115
1781  0658  79          	ld	a, c
1782  0659  D6 02       	sub	a,0x02
1783  065B  28 35       	jr	Z,l_enemy_init_00119
1784  065D  18 56       	jr	l_enemy_init_00123
1785  065F              l_enemy_init_00115:
1786  065F  DD 6E FC    	ld	l,(ix-4)
1787  0662  DD 66 FD    	ld	h,(ix-3)
1788  0665  4E          	ld	c, (hl)
1789  0666  DD 7E FA    	ld	a,(ix-6)
1790  0669  B7          	or	a, a
1791  066A  28 0C       	jr	Z,l_enemy_init_00117
1792  066C  79          	ld	a, c
1793  066D  F6 04       	or	a,0x04
1794  066F  DD 6E FC    	ld	l,(ix-4)
1795  0672  DD 66 FD    	ld	h,(ix-3)
1796  0675  77          	ld	(hl), a
1797  0676  18 3D       	jr	l_enemy_init_00123
1798  0678              l_enemy_init_00117:
1799  0678  79          	ld	a, c
1800  0679  F6 08       	or	a,0x08
1801  067B  DD 6E FC    	ld	l,(ix-4)
1802  067E  DD 66 FD    	ld	h,(ix-3)
1803  0681  77          	ld	(hl), a
1804  0682  3E 00       	ld	a, +((_colint) & 0xFF)
1805  0684  DD 86 FB    	add	a,(ix-5)
1806  0687  4F          	ld	c, a
1807  0688  3E 00       	ld	a, +((_colint) / 256)
1808  068A  CE 00       	adc	a,0x00
1809  068C  47          	ld	b, a
1810  068D  3E 03       	ld	a,0x03
1811  068F  02          	ld	(bc), a
1812  0690  18 23       	jr	l_enemy_init_00123
1813  0692              l_enemy_init_00119:
1814  0692  DD 6E FC    	ld	l,(ix-4)
1815  0695  DD 66 FD    	ld	h,(ix-3)
1816  0698  4E          	ld	c, (hl)
1817  0699  DD 7E FA    	ld	a,(ix-6)
1818  069C  B7          	or	a, a
1819  069D  28 0C       	jr	Z,l_enemy_init_00121
1820  069F  79          	ld	a, c
1821  06A0  F6 40       	or	a,0x40
1822  06A2  DD 6E FC    	ld	l,(ix-4)
1823  06A5  DD 66 FD    	ld	h,(ix-3)
1824  06A8  77          	ld	(hl), a
1825  06A9  18 0A       	jr	l_enemy_init_00123
1826  06AB              l_enemy_init_00121:
1827  06AB  79          	ld	a, c
1828  06AC  F6 80       	or	a,0x80
1829  06AE  DD 6E FC    	ld	l,(ix-4)
1830  06B1  DD 66 FD    	ld	h,(ix-3)
1831  06B4  77          	ld	(hl), a
1832  06B5              l_enemy_init_00123:
1833  06B5  3E 00       	ld	a, +((_spr_frames) & 0xFF)
1834  06B7  DD 86 FB    	add	a,(ix-5)
1835  06BA  4F          	ld	c, a
1836  06BB  3E 00       	ld	a, +((_spr_frames) / 256)
1837  06BD  CE 00       	adc	a,0x00
1838  06BF  47          	ld	b, a
1839  06C0  0A          	ld	a, (bc)
1840  06C1  D6 04       	sub	a,0x04
1841  06C3  20 1E       	jr	NZ,l_enemy_init_00128
1842  06C5  3E 00       	ld	a, +((_spr_tile) & 0xFF)
1843  06C7  DD 86 FB    	add	a,(ix-5)
1844  06CA  4F          	ld	c, a
1845  06CB  3E 00       	ld	a, +((_spr_tile) / 256)
1846  06CD  CE 00       	adc	a,0x00
1847  06CF  47          	ld	b, a
1848  06D0  3A 00 00    	ld	a,(_game_tile_cnt)
1849  06D3  02          	ld	(bc),a
1850  06D4  D5          	push	de
1851  06D5  5A          	ld	e,d
1852  06D6  57          	ld	d,a
1853  06D7  D5          	push	de
1854  06D8  CD 00 00    	call	_game_copy_tile_std
1855  06DB  F1          	pop	af
1856  06DC  D1          	pop	de
1857  06DD  7D          	ld	a,l
1858  06DE  32 00 00    	ld	(_game_tile_cnt),a
1859  06E1  18 45       	jr	l_enemy_init_00129
1860  06E3              l_enemy_init_00128:
1861  06E3  21 00 00    	ld	hl,_i
1862  06E6  36 00       	ld	(hl),0x00
1863  06E8  3E 00       	ld	a, +((_spr_tile) & 0xFF)
1864  06EA  DD 86 FB    	add	a,(ix-5)
1865  06ED  4F          	ld	c, a
1866  06EE  3E 00       	ld	a, +((_spr_tile) / 256)
1867  06F0  CE 00       	adc	a,0x00
1868  06F2  47          	ld	b, a
1869  06F3  3A 00 00    	ld	a,(_game_tile_cnt)
1870  06F6  02          	ld	(bc), a
1871  06F7              l_enemy_init_00124:
1872  06F7  3E 00       	ld	a, +((_spr_frames) & 0xFF)
1873  06F9  DD 86 FB    	add	a,(ix-5)
1874  06FC  4F          	ld	c, a
1875  06FD  3E 00       	ld	a, +((_spr_frames) / 256)
1876  06FF  CE 00       	adc	a,0x00
1877  0701  47          	ld	b, a
1878  0702  0A          	ld	a, (bc)
1879  0703  4F          	ld	c, a
1880  0704  21 00 00    	ld	hl,_i
1881  0707  7E          	ld	a, (hl)
1882  0708  91          	sub	a, c
1883  0709  30 1D       	jr	NC,l_enemy_init_00129
1884  070B  7A          	ld	a, d
1885  070C  86          	add	a, (hl)
1886  070D  47          	ld	b, a
1887  070E  D5          	push	de
1888  070F  AF          	xor	a, a
1889  0710  F5          	push	af
1890  0711  33          	inc	sp
1891  0712  3A 00 00    	ld	a,(_game_tile_cnt)
1892  0715  48          	ld	c,b
1893  0716  47          	ld	b,a
1894  0717  C5          	push	bc
1895  0718  CD 00 00    	call	_game_copy_tile
1896  071B  F1          	pop	af
1897  071C  33          	inc	sp
1898  071D  D1          	pop	de
1899  071E  21 00 00    	ld	hl,_game_tile_cnt
1900  0721  34          	inc	(hl)
1901  0722  21 00 00    	ld	hl,_i
1902  0725  34          	inc	(hl)
1903  0726  18 CF       	jr	l_enemy_init_00124
1904  0728              l_enemy_init_00129:
1905  0728  3E 00       	ld	a, +((_tile) & 0xFF)
1906  072A  DD 86 FB    	add	a,(ix-5)
1907  072D  DD 77 FC    	ld	(ix-4),a
1908  0730  3E 00       	ld	a, +((_tile) / 256)
1909  0732  CE 00       	adc	a,0x00
1910  0734  DD 77 FD    	ld	(ix-3),a
1911  0737  21 01 00    	ld	hl,0x0001
1912  073A  39          	add	hl, sp
1913  073B  4D          	ld	c, l
1914  073C  44          	ld	b, h
1915  073D  D5          	push	de
1916  073E  69          	ld	l, c
1917  073F  60          	ld	h, b
1918  0740  CD 00 00    	call	_spr_get_tile
1919  0743  D1          	pop	de
1920  0744  4D          	ld	c,l
1921  0745  DD 6E FC    	ld	l,(ix-4)
1922  0748  DD 66 FD    	ld	h,(ix-3)
1923  074B  71          	ld	(hl), c
1924  074C  7B          	ld	a, e
1925  074D  D6 52       	sub	a,0x52
1926  074F  20 0E       	jr	NZ,l_enemy_init_00131
1927  0751  3E 00       	ld	a, +((_spr_frames) & 0xFF)
1928  0753  DD 86 FB    	add	a,(ix-5)
1929  0756  4F          	ld	c, a
1930  0757  3E 00       	ld	a, +((_spr_frames) / 256)
1931  0759  CE 00       	adc	a,0x00
1932  075B  47          	ld	b, a
1933  075C  3E 02       	ld	a,0x02
1934  075E  02          	ld	(bc), a
1935  075F              l_enemy_init_00131:
1936  075F  21 00 00    	ld	hl,_spr_count
1937  0762  34          	inc	(hl)
1938  0763  01 00 00    	ld	bc,_spr_timer+0
1939  0766  DD 6E FB    	ld	l,(ix-5)
1940  0769  26 00       	ld	h,0x00
1941  076B  29          	add	hl, hl
1942  076C  09          	add	hl,bc
1943  076D  ED 5B 00 00 	ld	de,(_curr_time)
1944  0771  73          	ld	(hl),e
1945  0772  23          	inc	hl
1946  0773  72          	ld	(hl),d
1947  0774  DD 6E FB    	ld	l,(ix-5)
1948  0777  26 00       	ld	h,0x00
1949  0779  29          	add	hl, hl
1950  077A  11 00 00    	ld	de,_last_time
1951  077D  19          	add	hl, de
1952  077E  AF          	xor	a, a
1953  077F  77          	ld	(hl), a
1954  0780  23          	inc	hl
1955  0781  77          	ld	(hl), a
1956  0782  18 0A       	jr	l_enemy_init_00138
1957  0784              l_enemy_init_00133:
1958  0784  21 00 00    	ld	hl,_v0
1959  0787  7E          	ld	a, (hl)
1960  0788  C6 08       	add	a,0x08
1961  078A  77          	ld	(hl), a
1962  078B  C3 63 04    	jp	l_enemy_init_00135
1963  078E              l_enemy_init_00138:
1964  078E  DD F9       	ld	sp, ix
1965  0790  DD E1       	pop	ix
1966  0792  C9          	ret
1967  0793              	SECTION IGNORE
1968  0000              
